TN:
SF:/home/Kurbanov/lab3/cont/array.cpp
FN:104,110,_ZN7MyArray8pushBackERKNSt7__cxx1112basic_stringIcSt11char_traitsIcESaIcEEE
FN:112,128,_ZN7MyArray6insertEmRKNSt7__cxx1112basic_stringIcSt11char_traitsIcESaIcEEE
FN:13,23,_ZN7MyArrayC2Em
FN:130,140,_ZN7MyArray8removeAtEm
FN:142,148,_ZN7MyArray2atB5cxx11Em
FN:150,156,_ZNK7MyArray2atB5cxx11Em
FN:158,164,_ZN7MyArray3setEmRKNSt7__cxx1112basic_stringIcSt11char_traitsIcESaIcEEE
FN:168,171,_ZN7MyArrayixB5cxx11Em
FN:173,176,_ZNK7MyArrayixB5cxx11Em
FN:180,183,_ZNK7MyArray4sizeEv
FN:185,188,_ZNK7MyArray11getCapacityEv
FN:190,193,_ZNK7MyArray5emptyEv
FN:195,205,_ZNK7MyArray5printEv
FN:207,223,_ZN7MyArray6resizeEm
FN:227,233,_ZNK7MyArray13serializeTextERSo
FN:235,254,_ZN7MyArray15deserializeTextERSi
FN:25,31,_ZN7MyArrayD2Ev
FN:258,263,_ZNK7MyArray9serializeB5cxx11Ev
FN:265,269,_ZN7MyArray11deserializeERKNSt7__cxx1112basic_stringIcSt11char_traitsIcESaIcEEE
FN:273,290,_ZNK7MyArray15serializeBinaryERSo
FN:292,323,_ZN7MyArray17deserializeBinaryERSi
FN:35,44,_ZN7MyArrayC2ERKS_
FN:48,56,_ZN7MyArrayC2EOS_
FN:60,69,_ZN7MyArrayaSERKS_
FN:73,90,_ZN7MyArrayaSEOS_
FN:94,100,_ZN7MyArray4swapERS_
FNDA:63,_ZN7MyArray8pushBackERKNSt7__cxx1112basic_stringIcSt11char_traitsIcESaIcEEE
FNDA:4,_ZN7MyArray6insertEmRKNSt7__cxx1112basic_stringIcSt11char_traitsIcESaIcEEE
FNDA:31,_ZN7MyArrayC2Em
FNDA:5,_ZN7MyArray8removeAtEm
FNDA:40,_ZN7MyArray2atB5cxx11Em
FNDA:3,_ZNK7MyArray2atB5cxx11Em
FNDA:3,_ZN7MyArray3setEmRKNSt7__cxx1112basic_stringIcSt11char_traitsIcESaIcEEE
FNDA:27,_ZN7MyArrayixB5cxx11Em
FNDA:1,_ZNK7MyArrayixB5cxx11Em
FNDA:44,_ZNK7MyArray4sizeEv
FNDA:17,_ZNK7MyArray11getCapacityEv
FNDA:3,_ZNK7MyArray5emptyEv
FNDA:0,_ZNK7MyArray5printEv
FNDA:8,_ZN7MyArray6resizeEm
FNDA:2,_ZNK7MyArray13serializeTextERSo
FNDA:2,_ZN7MyArray15deserializeTextERSi
FNDA:34,_ZN7MyArrayD2Ev
FNDA:1,_ZNK7MyArray9serializeB5cxx11Ev
FNDA:1,_ZN7MyArray11deserializeERKNSt7__cxx1112basic_stringIcSt11char_traitsIcESaIcEEE
FNDA:1,_ZNK7MyArray15serializeBinaryERSo
FNDA:1,_ZN7MyArray17deserializeBinaryERSi
FNDA:2,_ZN7MyArrayC2ERKS_
FNDA:1,_ZN7MyArrayC2EOS_
FNDA:2,_ZN7MyArrayaSERKS_
FNDA:1,_ZN7MyArrayaSEOS_
FNDA:2,_ZN7MyArray4swapERS_
FNF:26
FNH:25
DA:13,31
DA:14,31
DA:15,31
DA:16,31
DA:18,31
DA:19,1
DA:22,238
DA:23,31
DA:25,34
DA:27,259
DA:28,34
DA:29,34
DA:30,34
DA:31,34
DA:35,2
DA:36,2
DA:37,2
DA:38,2
DA:40,18
DA:41,7
DA:42,5
DA:44,2
DA:48,1
DA:49,1
DA:50,1
DA:51,1
DA:53,1
DA:54,1
DA:55,1
DA:56,1
DA:60,2
DA:62,2
DA:63,1
DA:66,1
DA:67,1
DA:68,1
DA:69,1
DA:73,1
DA:75,1
DA:76,0
DA:79,9
DA:81,1
DA:82,1
DA:83,1
DA:85,1
DA:86,1
DA:87,1
DA:89,1
DA:94,2
DA:97,2
DA:98,2
DA:99,2
DA:100,2
DA:104,63
DA:106,63
DA:107,2
DA:109,63
DA:110,63
DA:112,4
DA:114,4
DA:115,1
DA:118,3
DA:119,3
DA:122,6
DA:123,3
DA:126,3
DA:127,3
DA:128,3
DA:130,5
DA:132,5
DA:133,2
DA:136,8
DA:137,5
DA:139,3
DA:140,3
DA:142,40
DA:144,40
DA:145,1
DA:147,39
DA:150,3
DA:152,3
DA:153,1
DA:155,2
DA:158,3
DA:160,3
DA:161,1
DA:163,2
DA:164,2
DA:168,27
DA:170,27
DA:173,1
DA:175,1
DA:180,44
DA:182,44
DA:185,17
DA:187,17
DA:190,3
DA:192,3
DA:195,0
DA:197,0
DA:198,0
DA:199,0
DA:200,0
DA:201,0
DA:204,0
DA:205,0
DA:207,8
DA:209,8
DA:210,1
DA:213,8
DA:215,36
DA:216,23
DA:217,15
DA:220,26
DA:221,8
DA:222,8
DA:223,8
DA:227,2
DA:229,2
DA:230,8
DA:231,6
DA:233,2
DA:235,2
DA:237,2
DA:238,2
DA:239,0
DA:242,2
DA:244,2
DA:245,0
DA:248,2
DA:249,8
DA:250,6
DA:251,0
DA:254,2
DA:258,1
DA:260,1
DA:261,1
DA:262,2
DA:263,1
DA:265,1
DA:267,1
DA:268,1
DA:269,1
DA:273,1
DA:275,1
DA:276,1
DA:278,5
DA:279,4
DA:280,4
DA:281,4
DA:282,4
DA:283,3
DA:287,1
DA:288,0
DA:290,1
DA:292,1
DA:294,1
DA:295,1
DA:296,1
DA:297,0
DA:300,1
DA:301,0
DA:304,1
DA:306,5
DA:307,4
DA:308,4
DA:309,4
DA:310,0
DA:313,4
DA:314,4
DA:315,4
DA:316,3
DA:317,3
DA:318,0
DA:321,4
DA:322,4
DA:323,1
LF:177
LH:160
end_of_record
TN:
SF:/home/Kurbanov/lab3/cont/avltree.cpp
FN:13,17,_ZN7AvlTreeC2Ev
FN:139,146,_ZN7AvlTree6insertERKNSt7__cxx1112basic_stringIcSt11char_traitsIcESaIcEEE
FN:150,223,_ZN7AvlTree10removeNodeEPNS_4NodeERKNSt7__cxx1112basic_stringIcSt11char_traitsIcESaIcEEERb
FN:19,24,_ZN7AvlTreeD2Ev
FN:226,233,_ZN7AvlTree6removeERKNSt7__cxx1112basic_stringIcSt11char_traitsIcESaIcEEE
FN:238,250,_ZN7AvlTree12containsNodeEPNS_4NodeERKNSt7__cxx1112basic_stringIcSt11char_traitsIcESaIcEEE
FN:252,255,_ZNK7AvlTree8containsERKNSt7__cxx1112basic_stringIcSt11char_traitsIcESaIcEEE
FN:259,271,_ZN7AvlTree8printRecEPNS_4NodeEi
FN:273,276,_ZNK7AvlTree5printEv
FN:28,36,_ZN7AvlTree12clearSubtreeEPNS_4NodeE
FN:280,283,_ZNK7AvlTree4sizeEv
FN:285,288,_ZNK7AvlTree5emptyEv
FN:292,302,_ZN7AvlTree12serializeRecERNSt7__cxx1119basic_ostringstreamIcSt11char_traitsIcESaIcEEEPNS_4NodeE
FN:304,309,_ZNK7AvlTree9serializeB5cxx11Ev
FN:311,327,_ZN7AvlTree14deserializeRecERNSt7__cxx1119basic_istringstreamIcSt11char_traitsIcESaIcEEE
FN:329,356,_ZN7AvlTree11deserializeERKNSt7__cxx1112basic_stringIcSt11char_traitsIcESaIcEEE
FN:360,376,_ZN7AvlTree18serializeBinaryRecERSoPNS_4NodeE
FN:378,384,_ZNK7AvlTree15serializeBinaryERSo
FN:38,49,_ZN7AvlTree12cloneSubtreeEPNS_4NodeE
FN:386,418,_ZN7AvlTree20deserializeBinaryRecERSi
FN:420,446,_ZN7AvlTree17deserializeBinaryERSi
FN:450,455,_ZN7AvlTreeC2ERKS_
FN:457,463,_ZN7AvlTreeC2EOS_
FN:465,474,_ZN7AvlTreeaSERKS_
FN:476,490,_ZN7AvlTreeaSEOS_
FN:494,499,_ZN7AvlTree4swapERS_
FN:53,56,_ZN7AvlTree8heightOfEPNS_4NodeE
FN:58,61,_ZN7AvlTree13balanceFactorEPNS_4NodeE
FN:65,77,_ZN7AvlTree11rotateRightEPNS_4NodeE
FN:79,91,_ZN7AvlTree10rotateLeftEPNS_4NodeE
FN:95,137,_ZN7AvlTree10insertNodeEPNS_4NodeERKNSt7__cxx1112basic_stringIcSt11char_traitsIcESaIcEEERb
FNDA:25,_ZN7AvlTreeC2Ev
FNDA:60,_ZN7AvlTree6insertERKNSt7__cxx1112basic_stringIcSt11char_traitsIcESaIcEEE
FNDA:9,_ZN7AvlTree10removeNodeEPNS_4NodeERKNSt7__cxx1112basic_stringIcSt11char_traitsIcESaIcEEERb
FNDA:28,_ZN7AvlTreeD2Ev
FNDA:3,_ZN7AvlTree6removeERKNSt7__cxx1112basic_stringIcSt11char_traitsIcESaIcEEE
FNDA:97,_ZN7AvlTree12containsNodeEPNS_4NodeERKNSt7__cxx1112basic_stringIcSt11char_traitsIcESaIcEEE
FNDA:50,_ZNK7AvlTree8containsERKNSt7__cxx1112basic_stringIcSt11char_traitsIcESaIcEEE
FNDA:8,_ZN7AvlTree8printRecEPNS_4NodeEi
FNDA:2,_ZNK7AvlTree5printEv
FNDA:180,_ZN7AvlTree12clearSubtreeEPNS_4NodeE
FNDA:37,_ZNK7AvlTree4sizeEv
FNDA:4,_ZNK7AvlTree5emptyEv
FNDA:14,_ZN7AvlTree12serializeRecERNSt7__cxx1119basic_ostringstreamIcSt11char_traitsIcESaIcEEEPNS_4NodeE
FNDA:2,_ZNK7AvlTree9serializeB5cxx11Ev
FNDA:15,_ZN7AvlTree14deserializeRecERNSt7__cxx1119basic_istringstreamIcSt11char_traitsIcESaIcEEE
FNDA:3,_ZN7AvlTree11deserializeERKNSt7__cxx1112basic_stringIcSt11char_traitsIcESaIcEEE
FNDA:16,_ZN7AvlTree18serializeBinaryRecERSoPNS_4NodeE
FNDA:2,_ZNK7AvlTree15serializeBinaryERSo
FNDA:12,_ZN7AvlTree12cloneSubtreeEPNS_4NodeE
FNDA:12,_ZN7AvlTree20deserializeBinaryRecERSi
FNDA:2,_ZN7AvlTree17deserializeBinaryERSi
FNDA:2,_ZN7AvlTreeC2ERKS_
FNDA:1,_ZN7AvlTreeC2EOS_
FNDA:2,_ZN7AvlTreeaSERKS_
FNDA:1,_ZN7AvlTreeaSEOS_
FNDA:2,_ZN7AvlTree4swapERS_
FNDA:274,_ZN7AvlTree8heightOfEPNS_4NodeE
FNDA:57,_ZN7AvlTree13balanceFactorEPNS_4NodeE
FNDA:2,_ZN7AvlTree11rotateRightEPNS_4NodeE
FNDA:4,_ZN7AvlTree10rotateLeftEPNS_4NodeE
FNDA:110,_ZN7AvlTree10insertNodeEPNS_4NodeERKNSt7__cxx1112basic_stringIcSt11char_traitsIcESaIcEEERb
FNF:31
FNH:31
DA:13,25
DA:14,25
DA:15,25
DA:17,25
DA:19,28
DA:21,28
DA:22,28
DA:23,28
DA:24,28
DA:28,180
DA:30,180
DA:31,107
DA:33,73
DA:34,73
DA:35,73
DA:38,12
DA:40,12
DA:41,7
DA:44,5
DA:45,5
DA:46,5
DA:47,5
DA:48,5
DA:53,274
DA:55,274
DA:58,57
DA:60,57
DA:65,2
DA:67,2
DA:68,2
DA:70,2
DA:71,2
DA:73,2
DA:74,2
DA:76,2
DA:79,4
DA:81,4
DA:82,4
DA:84,4
DA:85,4
DA:87,4
DA:88,4
DA:90,4
DA:95,110
DA:97,110
DA:98,59
DA:99,59
DA:102,51
DA:103,13
DA:104,38
DA:105,37
DA:107,1
DA:108,1
DA:111,50
DA:112,50
DA:115,50
DA:116,1
DA:120,49
DA:121,3
DA:125,46
DA:126,1
DA:127,1
DA:131,45
DA:132,0
DA:133,0
DA:136,45
DA:139,60
DA:141,60
DA:142,60
DA:143,60
DA:144,59
DA:146,60
DA:150,9
DA:152,9
DA:153,1
DA:156,8
DA:157,0
DA:158,8
DA:159,5
DA:162,3
DA:165,3
DA:166,2
DA:168,2
DA:170,1
DA:171,1
DA:175,1
DA:176,1
DA:177,1
DA:178,1
DA:180,1
DA:181,1
DA:182,0
DA:185,1
DA:187,1
DA:192,7
DA:193,0
DA:197,7
DA:198,7
DA:201,7
DA:202,0
DA:206,7
DA:207,0
DA:208,0
DA:212,7
DA:213,0
DA:217,7
DA:218,0
DA:219,0
DA:222,7
DA:226,3
DA:228,3
DA:229,3
DA:230,3
DA:231,2
DA:233,3
DA:238,97
DA:240,97
DA:241,9
DA:243,88
DA:244,41
DA:246,47
DA:247,12
DA:249,35
DA:252,50
DA:254,50
DA:259,8
DA:261,8
DA:262,5
DA:265,3
DA:266,5
DA:267,2
DA:269,3
DA:270,3
DA:273,2
DA:275,2
DA:276,2
DA:280,37
DA:282,37
DA:285,4
DA:287,4
DA:292,14
DA:294,14
DA:295,8
DA:296,8
DA:299,6
DA:300,6
DA:301,6
DA:304,2
DA:306,2
DA:307,2
DA:308,4
DA:309,2
DA:311,15
DA:313,15
DA:314,15
DA:315,1
DA:318,14
DA:319,8
DA:322,6
DA:323,6
DA:324,6
DA:325,6
DA:326,6
DA:327,15
DA:329,3
DA:331,3
DA:332,3
DA:333,3
DA:335,3
DA:336,3
DA:339,3
DA:340,3
DA:341,3
DA:342,2
DA:344,9
DA:345,6
DA:346,6
DA:347,6
DA:348,6
DA:349,1
DA:351,6
DA:352,3
DA:355,3
DA:356,3
DA:360,16
DA:362,16
DA:363,16
DA:364,16
DA:365,9
DA:368,7
DA:369,7
DA:370,7
DA:371,7
DA:374,7
DA:375,7
DA:378,2
DA:380,2
DA:381,2
DA:382,1
DA:384,1
DA:386,12
DA:388,12
DA:389,12
DA:390,12
DA:391,1
DA:394,11
DA:395,6
DA:398,5
DA:399,5
DA:400,5
DA:401,0
DA:404,5
DA:405,5
DA:406,5
DA:407,5
DA:408,5
DA:409,0
DA:413,5
DA:414,5
DA:415,5
DA:416,5
DA:417,5
DA:418,5
DA:420,2
DA:422,2
DA:423,2
DA:424,2
DA:426,2
DA:429,1
DA:430,1
DA:431,1
DA:432,1
DA:434,6
DA:435,5
DA:436,5
DA:437,5
DA:438,5
DA:439,1
DA:441,5
DA:442,3
DA:445,1
DA:446,1
DA:450,2
DA:451,2
DA:452,2
DA:455,2
DA:457,1
DA:458,1
DA:459,1
DA:461,1
DA:462,1
DA:463,1
DA:465,2
DA:467,2
DA:468,1
DA:471,1
DA:472,1
DA:473,1
DA:474,1
DA:476,1
DA:478,1
DA:479,0
DA:482,1
DA:483,1
DA:484,1
DA:486,1
DA:487,1
DA:489,1
DA:494,2
DA:497,2
DA:498,2
DA:499,2
LF:272
LH:258
end_of_record
TN:
SF:/home/Kurbanov/lab3/cont/avltree.h
FN:49,54,_ZN7AvlTree4NodeC2ERKNSt7__cxx1112basic_stringIcSt11char_traitsIcESaIcEEE
FNDA:75,_ZN7AvlTree4NodeC2ERKNSt7__cxx1112basic_stringIcSt11char_traitsIcESaIcEEE
FNF:1
FNH:1
DA:49,75
DA:50,75
DA:51,75
DA:52,75
DA:53,75
DA:54,75
LF:6
LH:6
end_of_record
TN:
SF:/home/Kurbanov/lab3/cont/forward_list.cpp
FN:10,10,_ZN11ForwardListC2Ev
FN:108,120,_ZN11ForwardList11insertAfterERKNSt7__cxx1112basic_stringIcSt11char_traitsIcESaIcEEES7_
FN:12,15,_ZN11ForwardListD2Ev
FN:122,144,_ZN11ForwardList12insertBeforeERKNSt7__cxx1112basic_stringIcSt11char_traitsIcESaIcEEES7_
FN:146,158,_ZN11ForwardList11removeAfterERKNSt7__cxx1112basic_stringIcSt11char_traitsIcESaIcEEE
FN:160,184,_ZN11ForwardList12removeBeforeERKNSt7__cxx1112basic_stringIcSt11char_traitsIcESaIcEEE
FN:17,24,_ZN11ForwardList5clearEv
FN:186,198,_ZNK11ForwardList5printEv
FN:202,209,_ZNK11ForwardList13serializeTextERSo
FN:211,221,_ZN11ForwardList15deserializeTextERSi
FN:223,228,_ZNK11ForwardList9serializeB5cxx11Ev
FN:230,234,_ZN11ForwardList11deserializeERKNSt7__cxx1112basic_stringIcSt11char_traitsIcESaIcEEE
FN:238,266,_ZNK11ForwardList15serializeBinaryERSo
FN:26,31,_ZN11ForwardList9pushFrontERKNSt7__cxx1112basic_stringIcSt11char_traitsIcESaIcEEE
FN:268,299,_ZN11ForwardList17deserializeBinaryERSi
FN:33,46,_ZN11ForwardList8pushBackERKNSt7__cxx1112basic_stringIcSt11char_traitsIcESaIcEEE
FN:48,56,_ZN11ForwardList8popFrontEv
FN:58,75,_ZN11ForwardList7popBackEv
FN:77,94,_ZN11ForwardList13removeByValueERKNSt7__cxx1112basic_stringIcSt11char_traitsIcESaIcEEE
FN:96,106,_ZNK11ForwardList8findNodeERKNSt7__cxx1112basic_stringIcSt11char_traitsIcESaIcEEE
FNDA:33,_ZN11ForwardListC2Ev
FNDA:3,_ZN11ForwardList11insertAfterERKNSt7__cxx1112basic_stringIcSt11char_traitsIcESaIcEEES7_
FNDA:33,_ZN11ForwardListD2Ev
FNDA:4,_ZN11ForwardList12insertBeforeERKNSt7__cxx1112basic_stringIcSt11char_traitsIcESaIcEEES7_
FNDA:3,_ZN11ForwardList11removeAfterERKNSt7__cxx1112basic_stringIcSt11char_traitsIcESaIcEEE
FNDA:5,_ZN11ForwardList12removeBeforeERKNSt7__cxx1112basic_stringIcSt11char_traitsIcESaIcEEE
FNDA:41,_ZN11ForwardList5clearEv
FNDA:1,_ZNK11ForwardList5printEv
FNDA:1,_ZNK11ForwardList13serializeTextERSo
FNDA:5,_ZN11ForwardList15deserializeTextERSi
FNDA:1,_ZNK11ForwardList9serializeB5cxx11Ev
FNDA:3,_ZN11ForwardList11deserializeERKNSt7__cxx1112basic_stringIcSt11char_traitsIcESaIcEEE
FNDA:3,_ZNK11ForwardList15serializeBinaryERSo
FNDA:3,_ZN11ForwardList9pushFrontERKNSt7__cxx1112basic_stringIcSt11char_traitsIcESaIcEEE
FNDA:3,_ZN11ForwardList17deserializeBinaryERSi
FNDA:82,_ZN11ForwardList8pushBackERKNSt7__cxx1112basic_stringIcSt11char_traitsIcESaIcEEE
FNDA:3,_ZN11ForwardList8popFrontEv
FNDA:2,_ZN11ForwardList7popBackEv
FNDA:2,_ZN11ForwardList13removeByValueERKNSt7__cxx1112basic_stringIcSt11char_traitsIcESaIcEEE
FNDA:73,_ZNK11ForwardList8findNodeERKNSt7__cxx1112basic_stringIcSt11char_traitsIcESaIcEEE
FNF:20
FNH:20
DA:10,33
DA:12,33
DA:14,33
DA:15,33
DA:17,41
DA:19,159
DA:20,77
DA:21,77
DA:22,77
DA:24,41
DA:26,3
DA:28,3
DA:29,3
DA:30,3
DA:31,3
DA:33,82
DA:35,82
DA:36,82
DA:37,28
DA:38,28
DA:41,54
DA:42,106
DA:43,52
DA:45,54
DA:48,3
DA:50,3
DA:51,0
DA:53,3
DA:54,3
DA:55,3
DA:58,2
DA:60,2
DA:61,0
DA:63,2
DA:64,0
DA:65,0
DA:66,0
DA:69,2
DA:70,3
DA:71,1
DA:73,2
DA:74,2
DA:77,2
DA:80,2
DA:81,0
DA:84,2
DA:85,14
DA:86,12
DA:87,4
DA:88,4
DA:89,4
DA:91,8
DA:94,2
DA:96,73
DA:98,73
DA:99,150
DA:100,132
DA:101,55
DA:103,77
DA:105,18
DA:108,3
DA:110,3
DA:111,7
DA:112,6
DA:113,2
DA:114,2
DA:115,2
DA:116,2
DA:118,4
DA:122,4
DA:124,4
DA:125,1
DA:127,3
DA:128,1
DA:129,1
DA:132,2
DA:133,2
DA:134,2
DA:135,1
DA:136,1
DA:137,1
DA:138,1
DA:139,1
DA:141,0
DA:142,0
DA:146,3
DA:148,3
DA:149,7
DA:150,5
DA:151,1
DA:152,1
DA:153,1
DA:154,1
DA:156,4
DA:160,5
DA:162,5
DA:163,2
DA:165,3
DA:166,1
DA:167,1
DA:170,2
DA:171,2
DA:172,2
DA:173,3
DA:174,2
DA:175,1
DA:176,1
DA:177,1
DA:178,1
DA:180,1
DA:181,1
DA:182,1
DA:186,1
DA:188,1
DA:189,1
DA:190,4
DA:191,3
DA:192,3
DA:193,2
DA:195,3
DA:197,1
DA:198,1
DA:202,1
DA:204,1
DA:205,4
DA:206,3
DA:207,3
DA:209,1
DA:211,5
DA:213,5
DA:215,5
DA:216,18
DA:217,8
DA:218,5
DA:221,5
DA:223,1
DA:225,1
DA:226,1
DA:227,2
DA:228,1
DA:230,3
DA:232,3
DA:233,3
DA:234,3
DA:238,3
DA:241,3
DA:242,3
DA:243,9
DA:244,6
DA:245,6
DA:248,3
DA:250,3
DA:251,9
DA:253,6
DA:254,6
DA:256,6
DA:257,5
DA:260,6
DA:263,3
DA:264,1
DA:266,2
DA:268,3
DA:270,3
DA:272,3
DA:273,3
DA:274,3
DA:276,1
DA:279,6
DA:280,4
DA:281,4
DA:282,4
DA:284,0
DA:287,4
DA:288,4
DA:289,4
DA:290,3
DA:292,3
DA:294,0
DA:297,4
DA:298,4
DA:299,2
LF:181
LH:171
end_of_record
TN:
SF:/home/Kurbanov/lab3/cont/forward_list.h
FN:12,15,_ZN5FNodeC2ENSt7__cxx1112basic_stringIcSt11char_traitsIcESaIcEEE
FNDA:88,_ZN5FNodeC2ENSt7__cxx1112basic_stringIcSt11char_traitsIcESaIcEEE
FNF:1
FNH:1
DA:12,88
DA:13,88
DA:15,88
LF:3
LH:3
end_of_record
TN:
SF:/home/Kurbanov/lab3/cont/hashtable.cpp
FN:129,145,_ZN9HashTableC2ERKS_
FN:147,155,_ZN9HashTableC2EOS_
FN:15,23,_ZN12_GLOBAL__N_17rawHashERKNSt7__cxx1112basic_stringIcSt11char_traitsIcESaIcEEE
FN:157,183,_ZN9HashTableaSERKS_
FN:185,203,_ZN9HashTableaSEOS_
FN:207,232,_ZN9HashTable6insertERKNSt7__cxx1112basic_stringIcSt11char_traitsIcESaIcEEES7_
FN:234,258,_ZN9HashTable5eraseERKNSt7__cxx1112basic_stringIcSt11char_traitsIcESaIcEEE
FN:260,276,_ZN9HashTable4findERKNSt7__cxx1112basic_stringIcSt11char_traitsIcESaIcEEE
FN:278,294,_ZNK9HashTable4findERKNSt7__cxx1112basic_stringIcSt11char_traitsIcESaIcEEE
FN:296,307,_ZN9HashTableixERKNSt7__cxx1112basic_stringIcSt11char_traitsIcESaIcEEE
FN:30,37,_ZN9HashTableC2Ev
FN:309,312,_ZNK9HashTable4sizeEv
FN:314,317,_ZNK9HashTable5emptyEv
FN:319,322,_ZNK9HashTable11bucketCountEv
FN:324,341,_ZNK9HashTable5printEv
FN:345,355,_ZNK9HashTable13serializeTextERSo
FN:357,362,_ZNK9HashTable9serializeB5cxx11Ev
FN:364,401,_ZN9HashTable15deserializeTextERSi
FN:39,46,_ZN9HashTableC2Em
FN:403,407,_ZN9HashTable11deserializeERKNSt7__cxx1112basic_stringIcSt11char_traitsIcESaIcEEE
FN:411,446,_ZNK9HashTable15serializeBinaryERSo
FN:448,493,_ZN9HashTable17deserializeBinaryERSi
FN:48,55,_ZN9HashTableD2Ev
FN:499,503,_ZN13HashTableOpenC2Ev
FN:505,509,_ZN13HashTableOpenC2Em
FN:511,517,_ZN13HashTableOpenD2Ev
FN:519,525,_ZNK13HashTableOpen10hashStringERKNSt7__cxx1112basic_stringIcSt11char_traitsIcESaIcEEE
FN:527,535,_ZN13HashTableOpenC2ERKS_
FN:537,545,_ZN13HashTableOpenC2EOS_
FN:547,564,_ZN13HashTableOpenaSERKS_
FN:566,583,_ZN13HashTableOpenaSEOS_
FN:57,72,_ZN9HashTable11freeBucketsEv
FN:585,598,_ZNK13HashTableOpen17findSlotForInsertERKNSt7__cxx1112basic_stringIcSt11char_traitsIcESaIcEEE
FN:600,615,_ZNK13HashTableOpen14findSlotForKeyERKNSt7__cxx1112basic_stringIcSt11char_traitsIcESaIcEEE
FN:617,637,_ZN13HashTableOpen6rehashEm
FN:639,662,_ZN13HashTableOpen6insertERKNSt7__cxx1112basic_stringIcSt11char_traitsIcESaIcEEES7_
FN:664,673,_ZN13HashTableOpen5eraseERKNSt7__cxx1112basic_stringIcSt11char_traitsIcESaIcEEE
FN:675,682,_ZN13HashTableOpen4findERKNSt7__cxx1112basic_stringIcSt11char_traitsIcESaIcEEE
FN:684,691,_ZNK13HashTableOpen4findERKNSt7__cxx1112basic_stringIcSt11char_traitsIcESaIcEEE
FN:693,702,_ZN13HashTableOpenixERKNSt7__cxx1112basic_stringIcSt11char_traitsIcESaIcEEE
FN:704,707,_ZNK13HashTableOpen4sizeEv
FN:709,712,_ZNK13HashTableOpen5emptyEv
FN:714,717,_ZNK13HashTableOpen8capacityEv
FN:719,728,_ZN13HashTableOpen5clearEv
FN:730,746,_ZNK13HashTableOpen5printEv
FN:74,77,_ZN9HashTable5clearEv
FN:750,759,_ZNK13HashTableOpen13serializeTextERSo
FN:761,766,_ZNK13HashTableOpen9serializeB5cxx11Ev
FN:768,791,_ZN13HashTableOpen15deserializeTextERSi
FN:79,85,_ZNK9HashTable10hashStringERKNSt7__cxx1112basic_stringIcSt11char_traitsIcESaIcEEE
FN:793,797,_ZN13HashTableOpen11deserializeERKNSt7__cxx1112basic_stringIcSt11char_traitsIcESaIcEEE
FN:801,831,_ZNK13HashTableOpen15serializeBinaryERSo
FN:833,878,_ZN13HashTableOpen17deserializeBinaryERSi
FN:87,125,_ZN9HashTable6rehashEm
FNDA:1,_ZN9HashTableC2ERKS_
FNDA:1,_ZN9HashTableC2EOS_
FNDA:159,_ZN12_GLOBAL__N_17rawHashERKNSt7__cxx1112basic_stringIcSt11char_traitsIcESaIcEEE
FNDA:2,_ZN9HashTableaSERKS_
FNDA:1,_ZN9HashTableaSEOS_
FNDA:39,_ZN9HashTable6insertERKNSt7__cxx1112basic_stringIcSt11char_traitsIcESaIcEEES7_
FNDA:2,_ZN9HashTable5eraseERKNSt7__cxx1112basic_stringIcSt11char_traitsIcESaIcEEE
FNDA:34,_ZN9HashTable4findERKNSt7__cxx1112basic_stringIcSt11char_traitsIcESaIcEEE
FNDA:3,_ZNK9HashTable4findERKNSt7__cxx1112basic_stringIcSt11char_traitsIcESaIcEEE
FNDA:2,_ZN9HashTableixERKNSt7__cxx1112basic_stringIcSt11char_traitsIcESaIcEEE
FNDA:19,_ZN9HashTableC2Ev
FNDA:25,_ZNK9HashTable4sizeEv
FNDA:5,_ZNK9HashTable5emptyEv
FNDA:11,_ZNK9HashTable11bucketCountEv
FNDA:1,_ZNK9HashTable5printEv
FNDA:1,_ZNK9HashTable13serializeTextERSo
FNDA:1,_ZNK9HashTable9serializeB5cxx11Ev
FNDA:4,_ZN9HashTable15deserializeTextERSi
FNDA:3,_ZN9HashTableC2Em
FNDA:1,_ZN9HashTable11deserializeERKNSt7__cxx1112basic_stringIcSt11char_traitsIcESaIcEEE
FNDA:2,_ZNK9HashTable15serializeBinaryERSo
FNDA:2,_ZN9HashTable17deserializeBinaryERSi
FNDA:24,_ZN9HashTableD2Ev
FNDA:21,_ZN13HashTableOpenC2Ev
FNDA:3,_ZN13HashTableOpenC2Em
FNDA:26,_ZN13HashTableOpenD2Ev
FNDA:77,_ZNK13HashTableOpen10hashStringERKNSt7__cxx1112basic_stringIcSt11char_traitsIcESaIcEEE
FNDA:1,_ZN13HashTableOpenC2ERKS_
FNDA:1,_ZN13HashTableOpenC2EOS_
FNDA:2,_ZN13HashTableOpenaSERKS_
FNDA:1,_ZN13HashTableOpenaSEOS_
FNDA:34,_ZN9HashTable11freeBucketsEv
FNDA:39,_ZNK13HashTableOpen17findSlotForInsertERKNSt7__cxx1112basic_stringIcSt11char_traitsIcESaIcEEE
FNDA:38,_ZNK13HashTableOpen14findSlotForKeyERKNSt7__cxx1112basic_stringIcSt11char_traitsIcESaIcEEE
FNDA:1,_ZN13HashTableOpen6rehashEm
FNDA:39,_ZN13HashTableOpen6insertERKNSt7__cxx1112basic_stringIcSt11char_traitsIcESaIcEEES7_
FNDA:3,_ZN13HashTableOpen5eraseERKNSt7__cxx1112basic_stringIcSt11char_traitsIcESaIcEEE
FNDA:33,_ZN13HashTableOpen4findERKNSt7__cxx1112basic_stringIcSt11char_traitsIcESaIcEEE
FNDA:2,_ZNK13HashTableOpen4findERKNSt7__cxx1112basic_stringIcSt11char_traitsIcESaIcEEE
FNDA:2,_ZN13HashTableOpenixERKNSt7__cxx1112basic_stringIcSt11char_traitsIcESaIcEEE
FNDA:25,_ZNK13HashTableOpen4sizeEv
FNDA:4,_ZNK13HashTableOpen5emptyEv
FNDA:13,_ZNK13HashTableOpen8capacityEv
FNDA:9,_ZN13HashTableOpen5clearEv
FNDA:1,_ZNK13HashTableOpen5printEv
FNDA:34,_ZN9HashTable5clearEv
FNDA:1,_ZNK13HashTableOpen13serializeTextERSo
FNDA:1,_ZNK13HashTableOpen9serializeB5cxx11Ev
FNDA:4,_ZN13HashTableOpen15deserializeTextERSi
FNDA:82,_ZNK9HashTable10hashStringERKNSt7__cxx1112basic_stringIcSt11char_traitsIcESaIcEEE
FNDA:1,_ZN13HashTableOpen11deserializeERKNSt7__cxx1112basic_stringIcSt11char_traitsIcESaIcEEE
FNDA:3,_ZNK13HashTableOpen15serializeBinaryERSo
FNDA:3,_ZN13HashTableOpen17deserializeBinaryERSi
FNDA:1,_ZN9HashTable6rehashEm
FNF:54
FNH:54
DA:15,159
DA:17,159
DA:18,565
DA:19,406
DA:20,406
DA:22,159
DA:30,19
DA:31,19
DA:33,19
DA:34,171
DA:35,152
DA:37,19
DA:39,3
DA:40,3
DA:42,3
DA:43,22
DA:44,19
DA:46,3
DA:48,24
DA:50,24
DA:51,24
DA:52,24
DA:53,24
DA:54,24
DA:55,24
DA:57,34
DA:59,34
DA:60,2
DA:62,285
DA:63,253
DA:64,293
DA:65,40
DA:66,40
DA:67,40
DA:69,253
DA:71,32
DA:74,34
DA:76,34
DA:77,34
DA:79,82
DA:81,82
DA:82,0
DA:84,82
DA:87,1
DA:89,1
DA:90,0
DA:93,1
DA:94,1
DA:96,1
DA:97,5
DA:98,4
DA:100,1
DA:101,1
DA:104,3
DA:105,2
DA:106,4
DA:107,2
DA:109,2
DA:110,2
DA:112,2
DA:115,2
DA:116,2
DA:117,2
DA:119,2
DA:120,2
DA:124,1
DA:125,1
DA:129,1
DA:130,1
DA:132,1
DA:133,9
DA:134,8
DA:137,9
DA:138,8
DA:140,11
DA:141,3
DA:142,3
DA:145,1
DA:147,1
DA:148,1
DA:149,1
DA:150,1
DA:152,1
DA:153,1
DA:154,1
DA:155,1
DA:157,2
DA:159,2
DA:160,1
DA:163,1
DA:164,1
DA:166,1
DA:167,1
DA:169,1
DA:170,9
DA:171,8
DA:174,9
DA:175,8
DA:176,10
DA:177,2
DA:178,2
DA:182,1
DA:185,1
DA:187,1
DA:188,0
DA:191,1
DA:192,1
DA:194,1
DA:195,1
DA:196,1
DA:198,1
DA:199,1
DA:200,1
DA:202,1
DA:207,39
DA:209,39
DA:210,0
DA:213,39
DA:214,39
DA:216,42
DA:217,4
DA:218,1
DA:219,1
DA:221,3
DA:224,38
DA:225,38
DA:226,38
DA:229,38
DA:230,1
DA:234,2
DA:236,2
DA:237,0
DA:240,2
DA:241,2
DA:242,2
DA:244,2
DA:245,1
DA:246,1
DA:247,1
DA:249,0
DA:251,1
DA:252,1
DA:253,1
DA:255,0
DA:256,0
DA:260,34
DA:262,34
DA:263,1
DA:266,33
DA:267,33
DA:269,37
DA:270,29
DA:271,25
DA:273,4
DA:275,8
DA:278,3
DA:280,3
DA:281,0
DA:284,3
DA:285,3
DA:287,4
DA:288,3
DA:289,2
DA:291,1
DA:293,1
DA:296,2
DA:298,2
DA:299,2
DA:300,1
DA:303,1
DA:304,1
DA:306,1
DA:309,25
DA:311,25
DA:314,5
DA:316,5
DA:319,11
DA:321,11
DA:324,1
DA:326,1
DA:327,1
DA:328,9
DA:329,8
DA:330,8
DA:331,8
DA:332,0
DA:333,0
DA:334,0
DA:335,0
DA:337,0
DA:339,8
DA:341,1
DA:345,1
DA:347,1
DA:348,9
DA:349,8
DA:350,11
DA:351,3
DA:352,3
DA:355,1
DA:357,1
DA:359,1
DA:360,1
DA:361,2
DA:362,1
DA:364,4
DA:366,4
DA:368,4
DA:369,4
DA:371,1
DA:372,1
DA:374,3
DA:376,6
DA:377,5
DA:378,5
DA:380,5
DA:381,1
DA:383,4
DA:384,1
DA:387,3
DA:389,3
DA:390,3
DA:391,3
DA:393,0
DA:394,0
DA:395,0
DA:397,0
DA:399,3
DA:400,7
DA:403,1
DA:405,1
DA:406,1
DA:407,1
DA:411,2
DA:413,2
DA:414,2
DA:416,18
DA:417,16
DA:418,20
DA:419,4
DA:420,4
DA:423,4
DA:425,4
DA:427,4
DA:428,4
DA:429,4
DA:433,4
DA:434,4
DA:435,3
DA:439,4
DA:443,2
DA:444,1
DA:446,1
DA:448,2
DA:450,2
DA:452,2
DA:453,2
DA:454,2
DA:455,1
DA:458,4
DA:459,3
DA:460,3
DA:461,3
DA:462,0
DA:465,3
DA:466,3
DA:467,3
DA:468,3
DA:470,3
DA:471,0
DA:475,3
DA:476,3
DA:477,3
DA:478,0
DA:481,3
DA:482,3
DA:483,3
DA:484,2
DA:486,2
DA:487,0
DA:491,3
DA:492,3
DA:493,1
DA:499,21
DA:500,21
DA:502,189
DA:503,21
DA:505,3
DA:506,3
DA:508,22
DA:509,3
DA:511,26
DA:513,215
DA:514,26
DA:515,26
DA:516,26
DA:517,26
DA:519,77
DA:521,77
DA:522,0
DA:524,77
DA:527,1
DA:528,1
DA:529,1
DA:531,9
DA:532,9
DA:533,8
DA:535,1
DA:537,1
DA:538,1
DA:539,1
DA:540,1
DA:542,1
DA:543,1
DA:544,1
DA:545,1
DA:547,2
DA:549,2
DA:550,1
DA:553,9
DA:555,1
DA:556,1
DA:558,9
DA:559,9
DA:560,8
DA:563,1
DA:566,1
DA:568,1
DA:569,0
DA:572,9
DA:574,1
DA:575,1
DA:576,1
DA:578,1
DA:579,1
DA:580,1
DA:582,1
DA:585,39
DA:587,39
DA:588,39
DA:590,43
DA:591,46
DA:592,3
DA:593,3
DA:594,0
DA:597,39
DA:600,38
DA:602,38
DA:603,38
DA:605,48
DA:606,38
DA:607,28
DA:609,10
DA:610,10
DA:611,0
DA:614,10
DA:617,1
DA:619,1
DA:620,0
DA:623,1
DA:624,1
DA:626,5
DA:627,1
DA:628,1
DA:630,3
DA:631,2
DA:632,1
DA:636,4
DA:637,1
DA:639,39
DA:641,39
DA:642,0
DA:645,39
DA:646,1
DA:649,39
DA:650,39
DA:652,39
DA:653,1
DA:654,1
DA:657,38
DA:658,38
DA:659,38
DA:660,38
DA:661,38
DA:664,3
DA:666,3
DA:667,3
DA:668,1
DA:670,2
DA:671,2
DA:672,2
DA:675,33
DA:677,33
DA:678,33
DA:679,8
DA:681,25
DA:684,2
DA:686,2
DA:687,2
DA:688,1
DA:690,1
DA:693,2
DA:695,2
DA:696,2
DA:697,1
DA:699,1
DA:700,1
DA:701,1
DA:704,25
DA:706,25
DA:709,4
DA:711,4
DA:714,13
DA:716,13
DA:719,9
DA:721,81
DA:722,72
DA:723,72
DA:724,72
DA:725,72
DA:727,9
DA:728,9
DA:730,1
DA:732,1
DA:733,1
DA:734,9
DA:735,8
DA:736,8
DA:737,8
DA:738,8
DA:739,0
DA:740,0
DA:742,0
DA:744,8
DA:746,1
DA:750,1
DA:752,1
DA:753,9
DA:754,8
DA:755,8
DA:756,3
DA:759,1
DA:761,1
DA:763,1
DA:764,1
DA:765,2
DA:766,1
DA:768,4
DA:770,4
DA:772,4
DA:773,4
DA:774,1
DA:775,1
DA:777,3
DA:779,6
DA:780,5
DA:781,5
DA:783,5
DA:784,1
DA:786,4
DA:787,1
DA:789,3
DA:790,7
DA:793,1
DA:795,1
DA:796,1
DA:797,1
DA:801,3
DA:803,3
DA:804,3
DA:806,27
DA:807,24
DA:808,24
DA:810,5
DA:812,5
DA:814,5
DA:815,5
DA:816,5
DA:820,5
DA:821,5
DA:822,4
DA:828,3
DA:829,1
DA:831,2
DA:833,3
DA:835,3
DA:837,3
DA:838,3
DA:839,3
DA:840,1
DA:843,6
DA:844,4
DA:845,4
DA:846,4
DA:847,0
DA:850,4
DA:851,4
DA:852,4
DA:853,4
DA:855,4
DA:856,0
DA:860,4
DA:861,4
DA:862,4
DA:863,0
DA:866,4
DA:867,4
DA:868,4
DA:869,3
DA:871,3
DA:872,0
DA:876,4
DA:877,4
DA:878,2
LF:514
LH:479
end_of_record
TN:
SF:/home/Kurbanov/lab3/cont/hashtable.h
FN:19,26,_ZN9HashTable4NodeC2ENSt7__cxx1112basic_stringIcSt11char_traitsIcESaIcEEES6_PS0_
FN:28,31,_ZNK9HashTable4Node6getKeyB5cxx11Ev
FN:33,36,_ZNK9HashTable4Node8getValueB5cxx11Ev
FN:38,41,_ZN9HashTable4Node11getValueRefB5cxx11Ev
FN:43,46,_ZNK9HashTable4Node7getNextEv
FN:48,51,_ZN9HashTable4Node10getNextRefEv
FNDA:41,_ZN9HashTable4NodeC2ENSt7__cxx1112basic_stringIcSt11char_traitsIcESaIcEEES6_PS0_
FNDA:51,_ZNK9HashTable4Node6getKeyB5cxx11Ev
FNDA:14,_ZNK9HashTable4Node8getValueB5cxx11Ev
FNDA:30,_ZN9HashTable4Node11getValueRefB5cxx11Ev
FNDA:63,_ZNK9HashTable4Node7getNextEv
FNDA:2,_ZN9HashTable4Node10getNextRefEv
FNF:6
FNH:6
DA:19,41
DA:22,41
DA:23,41
DA:24,41
DA:26,41
DA:28,51
DA:30,51
DA:33,14
DA:35,14
DA:38,30
DA:40,30
DA:43,63
DA:45,63
DA:48,2
DA:50,2
LF:15
LH:15
end_of_record
TN:
SF:/home/Kurbanov/lab3/cont/list.cpp
FN:10,10,_ZN4ListC2Ev
FN:12,15,_ZN4ListD2Ev
FN:124,134,_ZN4List8findNodeERKNSt7__cxx1112basic_stringIcSt11char_traitsIcESaIcEEE
FN:136,157,_ZN4List11insertAfterERKNSt7__cxx1112basic_stringIcSt11char_traitsIcESaIcEEES7_
FN:159,180,_ZN4List12insertBeforeERKNSt7__cxx1112basic_stringIcSt11char_traitsIcESaIcEEES7_
FN:17,27,_ZN4List5clearEv
FN:182,202,_ZN4List11removeAfterERKNSt7__cxx1112basic_stringIcSt11char_traitsIcESaIcEEE
FN:204,224,_ZN4List12removeBeforeERKNSt7__cxx1112basic_stringIcSt11char_traitsIcESaIcEEE
FN:226,238,_ZNK4List5printEv
FN:242,249,_ZNK4List13serializeTextERSo
FN:251,261,_ZN4List15deserializeTextERSi
FN:263,268,_ZNK4List9serializeB5cxx11Ev
FN:270,274,_ZN4List11deserializeERKNSt7__cxx1112basic_stringIcSt11char_traitsIcESaIcEEE
FN:278,305,_ZNK4List15serializeBinaryERSo
FN:29,43,_ZN4List9pushFrontERKNSt7__cxx1112basic_stringIcSt11char_traitsIcESaIcEEE
FN:307,338,_ZN4List17deserializeBinaryERSi
FN:45,59,_ZN4List8pushBackERKNSt7__cxx1112basic_stringIcSt11char_traitsIcESaIcEEE
FN:61,77,_ZN4List8popFrontEv
FN:79,95,_ZN4List7popBackEv
FN:97,122,_ZN4List13removeByValueERKNSt7__cxx1112basic_stringIcSt11char_traitsIcESaIcEEE
FNDA:38,_ZN4ListC2Ev
FNDA:38,_ZN4ListD2Ev
FNDA:87,_ZN4List8findNodeERKNSt7__cxx1112basic_stringIcSt11char_traitsIcESaIcEEE
FNDA:3,_ZN4List11insertAfterERKNSt7__cxx1112basic_stringIcSt11char_traitsIcESaIcEEES7_
FNDA:4,_ZN4List12insertBeforeERKNSt7__cxx1112basic_stringIcSt11char_traitsIcESaIcEEES7_
FNDA:46,_ZN4List5clearEv
FNDA:3,_ZN4List11removeAfterERKNSt7__cxx1112basic_stringIcSt11char_traitsIcESaIcEEE
FNDA:5,_ZN4List12removeBeforeERKNSt7__cxx1112basic_stringIcSt11char_traitsIcESaIcEEE
FNDA:1,_ZNK4List5printEv
FNDA:1,_ZNK4List13serializeTextERSo
FNDA:5,_ZN4List15deserializeTextERSi
FNDA:1,_ZNK4List9serializeB5cxx11Ev
FNDA:3,_ZN4List11deserializeERKNSt7__cxx1112basic_stringIcSt11char_traitsIcESaIcEEE
FNDA:3,_ZNK4List15serializeBinaryERSo
FNDA:2,_ZN4List9pushFrontERKNSt7__cxx1112basic_stringIcSt11char_traitsIcESaIcEEE
FNDA:3,_ZN4List17deserializeBinaryERSi
FNDA:86,_ZN4List8pushBackERKNSt7__cxx1112basic_stringIcSt11char_traitsIcESaIcEEE
FNDA:3,_ZN4List8popFrontEv
FNDA:3,_ZN4List7popBackEv
FNDA:2,_ZN4List13removeByValueERKNSt7__cxx1112basic_stringIcSt11char_traitsIcESaIcEEE
FNF:20
FNH:20
DA:10,38
DA:12,38
DA:14,38
DA:15,38
DA:17,46
DA:19,46
DA:20,127
DA:21,81
DA:22,81
DA:23,81
DA:25,46
DA:26,46
DA:27,46
DA:29,2
DA:31,2
DA:32,2
DA:33,2
DA:35,2
DA:36,1
DA:38,2
DA:40,2
DA:41,1
DA:43,2
DA:45,86
DA:47,86
DA:48,86
DA:49,86
DA:51,86
DA:52,55
DA:54,86
DA:56,86
DA:57,31
DA:59,86
DA:61,3
DA:63,3
DA:64,1
DA:67,2
DA:68,2
DA:70,2
DA:71,1
DA:73,1
DA:76,2
DA:79,3
DA:81,3
DA:82,1
DA:85,2
DA:86,2
DA:88,2
DA:89,1
DA:91,1
DA:94,2
DA:97,2
DA:99,2
DA:100,16
DA:101,14
DA:102,4
DA:104,4
DA:105,4
DA:107,0
DA:110,4
DA:111,3
DA:113,1
DA:116,4
DA:117,4
DA:119,10
DA:122,2
DA:124,87
DA:126,87
DA:127,184
DA:128,166
DA:129,69
DA:131,97
DA:133,18
DA:136,3
DA:138,3
DA:139,9
DA:140,8
DA:141,2
DA:142,2
DA:143,2
DA:145,2
DA:146,1
DA:148,2
DA:150,2
DA:151,1
DA:153,2
DA:155,6
DA:159,4
DA:161,4
DA:162,6
DA:163,4
DA:164,2
DA:165,2
DA:166,2
DA:168,2
DA:169,1
DA:171,2
DA:173,2
DA:174,1
DA:176,2
DA:178,2
DA:182,3
DA:184,3
DA:185,7
DA:186,5
DA:187,1
DA:188,1
DA:190,1
DA:191,1
DA:193,1
DA:194,0
DA:197,1
DA:198,1
DA:200,4
DA:204,5
DA:206,5
DA:207,14
DA:208,11
DA:209,2
DA:210,2
DA:212,2
DA:213,1
DA:215,2
DA:216,1
DA:219,2
DA:220,2
DA:222,9
DA:226,1
DA:228,1
DA:229,1
DA:230,4
DA:231,3
DA:232,3
DA:233,2
DA:235,3
DA:237,1
DA:238,1
DA:242,1
DA:244,1
DA:245,4
DA:246,3
DA:247,3
DA:249,1
DA:251,5
DA:253,5
DA:255,5
DA:256,17
DA:257,7
DA:258,5
DA:261,5
DA:263,1
DA:265,1
DA:266,1
DA:267,2
DA:268,1
DA:270,3
DA:272,3
DA:273,3
DA:274,3
DA:278,3
DA:280,3
DA:281,3
DA:282,9
DA:283,6
DA:284,6
DA:287,3
DA:289,3
DA:290,9
DA:292,6
DA:293,6
DA:295,6
DA:296,5
DA:299,6
DA:302,3
DA:303,1
DA:305,2
DA:307,3
DA:309,3
DA:311,3
DA:312,3
DA:313,3
DA:315,1
DA:318,6
DA:319,4
DA:320,4
DA:321,4
DA:323,0
DA:326,4
DA:327,4
DA:328,4
DA:329,3
DA:331,3
DA:333,0
DA:336,4
DA:337,4
DA:338,2
LF:196
LH:192
end_of_record
TN:
SF:/home/Kurbanov/lab3/cont/list.h
FN:12,15,_ZN5LNodeC2ENSt7__cxx1112basic_stringIcSt11char_traitsIcESaIcEEE
FNDA:92,_ZN5LNodeC2ENSt7__cxx1112basic_stringIcSt11char_traitsIcESaIcEEE
FNF:1
FNH:1
DA:12,92
DA:13,92
DA:15,92
LF:3
LH:3
end_of_record
TN:
SF:/home/Kurbanov/lab3/cont/queue.cpp
FN:106,121,_ZN5Queue3popB5cxx11Ev
FN:11,11,_ZN5QueueC2Ev
FN:123,129,_ZNK5Queue5frontB5cxx11Ev
FN:13,16,_ZN5QueueD2Ev
FN:131,137,_ZNK5Queue4backB5cxx11Ev
FN:139,142,_ZNK5Queue4sizeEv
FN:144,147,_ZNK5Queue5emptyEv
FN:149,161,_ZNK5Queue5printEv
FN:165,172,_ZNK5Queue13serializeTextERSo
FN:174,183,_ZN5Queue15deserializeTextERSi
FN:18,29,_ZN5Queue5clearEv
FN:185,190,_ZNK5Queue9serializeB5cxx11Ev
FN:192,196,_ZN5Queue11deserializeERKNSt7__cxx1112basic_stringIcSt11char_traitsIcESaIcEEE
FN:200,221,_ZNK5Queue15serializeBinaryERSo
FN:223,254,_ZN5Queue17deserializeBinaryERSi
FN:33,43,_ZN5QueueC2ERKS_
FN:45,53,_ZN5QueueC2EOS_
FN:55,64,_ZN5QueueaSERKS_
FN:66,82,_ZN5QueueaSEOS_
FN:84,90,_ZN5Queue4swapERS_
FN:94,104,_ZN5Queue4pushERKNSt7__cxx1112basic_stringIcSt11char_traitsIcESaIcEEE
FNDA:15,_ZN5Queue3popB5cxx11Ev
FNDA:25,_ZN5QueueC2Ev
FNDA:17,_ZNK5Queue5frontB5cxx11Ev
FNDA:28,_ZN5QueueD2Ev
FNDA:14,_ZNK5Queue4backB5cxx11Ev
FNDA:30,_ZNK5Queue4sizeEv
FNDA:13,_ZNK5Queue5emptyEv
FNDA:1,_ZNK5Queue5printEv
FNDA:1,_ZNK5Queue13serializeTextERSo
FNDA:5,_ZN5Queue15deserializeTextERSi
FNDA:37,_ZN5Queue5clearEv
FNDA:1,_ZNK5Queue9serializeB5cxx11Ev
FNDA:3,_ZN5Queue11deserializeERKNSt7__cxx1112basic_stringIcSt11char_traitsIcESaIcEEE
FNDA:3,_ZNK5Queue15serializeBinaryERSo
FNDA:3,_ZN5Queue17deserializeBinaryERSi
FNDA:2,_ZN5QueueC2ERKS_
FNDA:1,_ZN5QueueC2EOS_
FNDA:2,_ZN5QueueaSERKS_
FNDA:1,_ZN5QueueaSEOS_
FNDA:2,_ZN5Queue4swapERS_
FNDA:55,_ZN5Queue4pushERKNSt7__cxx1112basic_stringIcSt11char_traitsIcESaIcEEE
FNF:21
FNH:21
DA:11,25
DA:13,28
DA:15,28
DA:16,28
DA:18,37
DA:20,37
DA:21,78
DA:22,41
DA:23,41
DA:24,41
DA:26,37
DA:27,37
DA:28,37
DA:29,37
DA:33,2
DA:34,2
DA:35,2
DA:36,2
DA:38,2
DA:39,7
DA:40,5
DA:41,5
DA:43,2
DA:45,1
DA:46,1
DA:47,1
DA:48,1
DA:50,1
DA:51,1
DA:52,1
DA:53,1
DA:55,2
DA:57,2
DA:58,1
DA:61,1
DA:62,1
DA:63,1
DA:64,1
DA:66,1
DA:68,1
DA:69,0
DA:72,1
DA:73,1
DA:74,1
DA:75,1
DA:77,1
DA:78,1
DA:79,1
DA:81,1
DA:84,2
DA:87,2
DA:88,2
DA:89,2
DA:90,2
DA:94,55
DA:96,55
DA:97,55
DA:98,33
DA:100,22
DA:102,55
DA:103,55
DA:104,55
DA:106,15
DA:108,15
DA:109,1
DA:112,14
DA:113,14
DA:114,14
DA:115,14
DA:116,5
DA:118,14
DA:119,14
DA:120,14
DA:123,17
DA:125,17
DA:126,5
DA:128,12
DA:131,14
DA:133,14
DA:134,2
DA:136,12
DA:139,30
DA:141,30
DA:144,13
DA:146,13
DA:149,1
DA:151,1
DA:152,1
DA:153,4
DA:154,3
DA:155,3
DA:156,2
DA:158,3
DA:160,1
DA:161,1
DA:165,1
DA:167,1
DA:168,4
DA:169,3
DA:170,3
DA:172,1
DA:174,5
DA:176,5
DA:177,5
DA:178,18
DA:179,8
DA:180,5
DA:183,5
DA:185,1
DA:187,1
DA:188,1
DA:189,2
DA:190,1
DA:192,3
DA:194,3
DA:195,3
DA:196,3
DA:200,3
DA:202,3
DA:203,3
DA:205,3
DA:206,9
DA:208,6
DA:209,6
DA:211,6
DA:212,5
DA:215,6
DA:218,3
DA:219,1
DA:221,2
DA:223,3
DA:225,3
DA:227,3
DA:228,3
DA:229,3
DA:231,1
DA:234,6
DA:235,4
DA:236,4
DA:237,4
DA:239,0
DA:242,4
DA:243,4
DA:244,4
DA:245,3
DA:247,3
DA:249,0
DA:252,4
DA:253,4
DA:254,2
LF:150
LH:147
end_of_record
TN:
SF:/home/Kurbanov/lab3/cont/queue.h
FN:49,52,_ZN5Queue4NodeC2ENSt7__cxx1112basic_stringIcSt11char_traitsIcESaIcEEE
FNDA:55,_ZN5Queue4NodeC2ENSt7__cxx1112basic_stringIcSt11char_traitsIcESaIcEEE
FNF:1
FNH:1
DA:49,55
DA:50,55
DA:52,55
LF:3
LH:3
end_of_record
TN:
SF:/home/Kurbanov/lab3/cont/stack.cpp
FN:101,106,_ZNK5Stack9serializeB5cxx11Ev
FN:108,112,_ZN5Stack11deserializeERKNSt7__cxx1112basic_stringIcSt11char_traitsIcESaIcEEE
FN:11,11,_ZN5StackC2Ev
FN:116,144,_ZNK5Stack15serializeBinaryERSo
FN:13,16,_ZN5StackD2Ev
FN:146,185,_ZN5Stack17deserializeBinaryERSi
FN:18,27,_ZN5Stack5clearEv
FN:29,34,_ZN5Stack4pushERKNSt7__cxx1112basic_stringIcSt11char_traitsIcESaIcEEE
FN:36,48,_ZN5Stack3popB5cxx11Ev
FN:50,62,_ZNK5Stack5printEv
FN:64,67,_ZNK5Stack5emptyEv
FN:71,74,_ZNK5Stack13serializeTextERSo
FN:76,95,_ZN5Stack15deserializeTextERSi
FNDA:1,_ZNK5Stack9serializeB5cxx11Ev
FNDA:3,_ZN5Stack11deserializeERKNSt7__cxx1112basic_stringIcSt11char_traitsIcESaIcEEE
FNDA:9,_ZN5StackC2Ev
FNDA:2,_ZNK5Stack15serializeBinaryERSo
FNDA:9,_ZN5StackD2Ev
FNDA:2,_ZN5Stack17deserializeBinaryERSi
FNDA:14,_ZN5Stack5clearEv
FNDA:21,_ZN5Stack4pushERKNSt7__cxx1112basic_stringIcSt11char_traitsIcESaIcEEE
FNDA:10,_ZN5Stack3popB5cxx11Ev
FNDA:0,_ZNK5Stack5printEv
FNDA:8,_ZNK5Stack5emptyEv
FNDA:1,_ZNK5Stack13serializeTextERSo
FNDA:3,_ZN5Stack15deserializeTextERSi
FNF:13
FNH:12
DA:11,9
DA:13,9
DA:15,9
DA:16,9
DA:18,14
DA:20,14
DA:21,25
DA:22,11
DA:23,11
DA:24,11
DA:26,14
DA:27,14
DA:29,21
DA:31,21
DA:32,21
DA:33,21
DA:34,21
DA:36,10
DA:38,10
DA:39,0
DA:42,10
DA:43,10
DA:44,10
DA:45,10
DA:47,10
DA:50,0
DA:52,0
DA:53,0
DA:54,0
DA:55,0
DA:56,0
DA:57,0
DA:59,0
DA:61,0
DA:62,0
DA:64,8
DA:66,8
DA:71,1
DA:72,4
DA:73,3
DA:74,1
DA:76,3
DA:78,3
DA:80,3
DA:81,3
DA:83,9
DA:84,3
DA:85,3
DA:93,6
DA:94,3
DA:95,3
DA:101,1
DA:103,1
DA:104,1
DA:105,2
DA:106,1
DA:108,3
DA:110,3
DA:111,3
DA:112,3
DA:116,2
DA:119,2
DA:120,2
DA:121,6
DA:122,4
DA:123,4
DA:126,2
DA:128,2
DA:129,6
DA:131,4
DA:132,4
DA:134,4
DA:135,3
DA:138,4
DA:141,2
DA:142,0
DA:144,2
DA:146,2
DA:148,2
DA:150,2
DA:151,2
DA:152,2
DA:154,0
DA:157,2
DA:158,2
DA:160,6
DA:161,4
DA:162,4
DA:163,4
DA:165,0
DA:168,4
DA:169,4
DA:170,4
DA:171,3
DA:173,3
DA:175,0
DA:178,4
DA:179,4
DA:182,6
DA:183,4
DA:185,2
LF:101
LH:86
end_of_record
TN:
SF:/home/Kurbanov/lab3/cont/stack.h
FN:12,15,_ZN9StackNodeC2ENSt7__cxx1112basic_stringIcSt11char_traitsIcESaIcEEE
FNDA:21,_ZN9StackNodeC2ENSt7__cxx1112basic_stringIcSt11char_traitsIcESaIcEEE
FNF:1
FNH:1
DA:12,21
DA:13,21
DA:15,21
LF:3
LH:3
end_of_record
TN:
SF:/home/Kurbanov/lab3/utils/catch_amalgamated.cpp
FN:10006,10020,_ZN5Catch12_GLOBAL__N_117listTestNamesOnlyERSoRKSt6vectorINS_14TestCaseHandleESaIS3_EE
FN:1001,1006,_ZN5Catch13ScopedMessageC2EONS_14MessageBuilderE
FN:10027,10045,_ZN5Catch20getFormattedDurationB5cxx11Ed
FN:10047,10056,_ZN5Catch18shouldShowDurationERKNS_7IConfigEd
FN:10058,10078,_ZN5Catch16serializeFiltersERKSt6vectorINSt7__cxx1112basic_stringIcSt11char_traitsIcESaIcEEESaIS6_EE
FN:1008,1011,_ZN5Catch13ScopedMessageC2EOS0_
FN:10080,10085,_ZN5CatchlsERSoNS_11lineOfCharsE
FN:10088,10119,_ZN5Catch20defaultListReportersERSoRKSt6vectorINS_19ReporterDescriptionESaIS2_EENS_9VerbosityE
FN:10095,10098,_ZZN5Catch20defaultListReportersERSoRKSt6vectorINS_19ReporterDescriptionESaIS2_EENS_9VerbosityEENKUlRKS2_S9_E_clES9_S9_
FN:10121,10151,_ZN5Catch20defaultListListenersERSoRKSt6vectorINS_19ListenerDescriptionESaIS2_EE
FN:1013,1015,_ZN5Catch13ScopedMessageD2Ev
FN:10132,10135,_ZZN5Catch20defaultListListenersERSoRKSt6vectorINS_19ListenerDescriptionESaIS2_EEENKUlRKS2_S8_E_clES8_S8_
FN:10153,10193,_ZN5Catch15defaultListTagsERSoRKSt6vectorINS_7TagInfoESaIS2_EEb
FN:10170,10172,_ZZN5Catch15defaultListTagsERSoRKSt6vectorINS_7TagInfoESaIS2_EEbENKUlRKT_RKT0_E_clIS2_S2_EEDaS9_SC_
FN:1018,1079,_ZN5Catch8CapturerC2ENS_9StringRefERKNS_14SourceLineInfoENS_9ResultWas6OfTypeES1_
FN:10195,10233,_ZN5Catch16defaultListTestsERSoPNS_10ColourImplERKSt6vectorINS_14TestCaseHandleESaIS4_EEbNS_9VerbosityE
FN:1022,1030,_ZZN5Catch8CapturerC4ENS_9StringRefERKNS_14SourceLineInfoENS_9ResultWas6OfTypeES1_ENKUlmmE_clEmm
FN:10238,10239,_ZN5Catch12_GLOBAL__N_113SummaryColumnC2ENSt7__cxx1112basic_stringIcSt11char_traitsIcESaIcEEENS_6Colour4CodeE
FN:10241,10254,_ZNO5Catch12_GLOBAL__N_113SummaryColumn6addRowEm
FN:10256,10256,_ZNK5Catch12_GLOBAL__N_113SummaryColumn9getSuffixEv
FN:10257,10257,_ZNK5Catch12_GLOBAL__N_113SummaryColumn9getColourEv
FN:10258,10260,_ZNK5Catch12_GLOBAL__N_113SummaryColumn6getRowEm
FN:10269,10292,_ZN5Catch12_GLOBAL__N_115printSummaryRowERSoRNS_10ColourImplENS_9StringRefERKSt6vectorINS0_13SummaryColumnESaIS6_EEm
FN:10295,10338,_ZN5Catch18printTestRunTotalsERSoRNS_10ColourImplERKNS_6TotalsE
FN:1031,1039,_ZZN5Catch8CapturerC4ENS_9StringRefERKNS_14SourceLineInfoENS_9ResultWas6OfTypeES1_ENKUlmcE_clEmc
FN:10347,10354,_ZN5Catch12_GLOBAL__N_115writeSourceInfoERNS_16JsonObjectWriterERKNS_14SourceLineInfoE
FN:10356,10360,_ZN5Catch12_GLOBAL__N_19writeTagsENS_15JsonArrayWriterERKSt6vectorINS_3TagESaIS3_EE
FN:10362,10370,_ZN5Catch12_GLOBAL__N_115writePropertiesENS_15JsonArrayWriterERKNS_12TestCaseInfoE
FN:10374,10402,_ZN5Catch12JsonReporterC2EONS_14ReporterConfigE
FN:10404,10412,_ZN5Catch12JsonReporterD0Ev
FN:10404,10412,_ZN5Catch12JsonReporterD2Ev
FN:10414,10418,_ZN5Catch12JsonReporter10startArrayEv
FN:10419,10424,_ZN5Catch12JsonReporter10startArrayENS_9StringRefE
FN:10426,10430,_ZN5Catch12JsonReporter11startObjectEv
FN:10431,10436,_ZN5Catch12JsonReporter11startObjectENS_9StringRefE
FN:10438,10442,_ZN5Catch12JsonReporter9endObjectEv
FN:10443,10447,_ZN5Catch12JsonReporter8endArrayEv
FN:10449,10451,_ZN5Catch12JsonReporter8isInsideENS0_6WriterE
FN:10453,10456,_ZN5Catch12JsonReporter12startListingEv
FN:10457,10460,_ZN5Catch12JsonReporter10endListingEv
FN:10462,10464,_ZN5Catch12JsonReporter14getDescriptionB5cxx11Ev
FN:10466,10473,_ZN5Catch12JsonReporter15testRunStartingERKNS_11TestRunInfoE
FN:10475,10480,_ZN5CatchL11writeCountsEONS_16JsonObjectWriterERKNS_6CountsE
FN:10482,10498,_ZN5Catch12JsonReporter12testRunEndedERKNS_12TestRunStatsE
FN:10500,10521,_ZN5Catch12JsonReporter16testCaseStartingERKNS_12TestCaseInfoE
FN:10523,10545,_ZN5Catch12JsonReporter13testCaseEndedERKNS_13TestCaseStatsE
FN:10547,10554,_ZN5Catch12JsonReporter23testCasePartialStartingERKNS_12TestCaseInfoEm
FN:10556,10584,_ZN5Catch12JsonReporter20testCasePartialEndedERKNS_13TestCaseStatsEm
FN:10586,10602,_ZN5Catch12JsonReporter15sectionStartingERKNS_11SectionInfoE
FN:10603,10611,_ZN5Catch12JsonReporter12sectionEndedERKNS_12SectionStatsE
FN:10613,10632,_ZN5Catch12JsonReporter14assertionEndedERKNS_14AssertionStatsE
FN:10635,10635,_ZN5Catch12JsonReporter18benchmarkPreparingENS_9StringRefE
FN:10636,10636,_ZN5Catch12JsonReporter17benchmarkStartingERKNS_13BenchmarkInfoE
FN:10637,10637,_ZN5Catch12JsonReporter14benchmarkEndedERKNS_14BenchmarkStatsINSt6chrono8durationIdSt5ratioILl1ELl1000000000EEEEEE
FN:10638,10638,_ZN5Catch12JsonReporter15benchmarkFailedENS_9StringRefE
FN:10640,10651,_ZN5Catch12JsonReporter13listReportersERKSt6vectorINS_19ReporterDescriptionESaIS2_EE
FN:10652,10664,_ZN5Catch12JsonReporter13listListenersERKSt6vectorINS_19ListenerDescriptionESaIS2_EE
FN:10665,10684,_ZN5Catch12JsonReporter9listTestsERKSt6vectorINS_14TestCaseHandleESaIS2_EE
FN:10685,10700,_ZN5Catch12JsonReporter8listTagsERKSt6vectorINS_7TagInfoESaIS2_EE
FN:10714,10736,_ZN5Catch12_GLOBAL__N_119getCurrentTimestampEv
FN:10738,10750,_ZN5Catch12_GLOBAL__N_111fileNameTagERKSt6vectorINS_3TagESaIS2_EE
FN:10741,10743,_ZZN5Catch12_GLOBAL__N_111fileNameTagERKSt6vectorINS_3TagESaIS2_EEENKUlRKS2_E_clES8_
FN:10756,10760,_ZN5Catch12_GLOBAL__N_114formatDurationEd
FN:10762,10769,_ZN5Catch12_GLOBAL__N_1L25normalizeNamespaceMarkersERNSt7__cxx1112basic_stringIcSt11char_traitsIcESaIcEEE
FN:10773,10781,_ZN5Catch13JunitReporterC2EONS_14ReporterConfigE
FN:10783,10785,_ZN5Catch13JunitReporter14getDescriptionB5cxx11Ev
FN:10787,10794,_ZN5Catch13JunitReporter15testRunStartingERKNS_11TestRunInfoE
FN:10796,10798,_ZN5Catch13JunitReporter16testCaseStartingERKNS_12TestCaseInfoE
FN:1080,1085,_ZN5Catch8CapturerD2Ev
FN:10800,10804,_ZN5Catch13JunitReporter14assertionEndedERKNS_14AssertionStatsE
FN:10806,10810,_ZN5Catch13JunitReporter13testCaseEndedERKNS_13TestCaseStatsE
FN:10812,10816,_ZN5Catch13JunitReporter22testRunEndedCumulativeEv
FN:10818,10853,_ZN5Catch13JunitReporter8writeRunERKNS_22CumulativeReporterBase4NodeINS_12TestRunStatsENS2_INS_13TestCaseStatsENS1_11SectionNodeEEEEEd
FN:10855,10879,_ZN5Catch13JunitReporter13writeTestCaseERKNS_22CumulativeReporterBase4NodeINS_13TestCaseStatsENS1_11SectionNodeEEE
FN:1087,1092,_ZN5Catch8Capturer12captureValueEmRKNSt7__cxx1112basic_stringIcSt11char_traitsIcESaIcEEE
FN:10881,10926,_ZN5Catch13JunitReporter12writeSectionERKNSt7__cxx1112basic_stringIcSt11char_traitsIcESaIcEEES8_RKNS_22CumulativeReporterBase11SectionNodeEb
FN:10928,10934,_ZN5Catch13JunitReporter15writeAssertionsERKNS_22CumulativeReporterBase11SectionNodeE
FN:10936,10995,_ZN5Catch13JunitReporter14writeAssertionERKNS_14AssertionStatsE
FN:11005,11012,_ZN5Catch13MultiReporter17updatePreferencesERKNS_14IEventListenerE
FN:11014,11018,_ZN5Catch13MultiReporter11addListenerEONS_6Detail10unique_ptrINS_14IEventListenerEEE
FN:11020,11033,_ZN5Catch13MultiReporter11addReporterEONS_6Detail10unique_ptrINS_14IEventListenerEEE
FN:11035,11039,_ZN5Catch13MultiReporter19noMatchingTestCasesENS_9StringRefE
FN:11041,11045,_ZN5Catch13MultiReporter21fatalErrorEncounteredENS_9StringRefE
FN:11047,11051,_ZN5Catch13MultiReporter21reportInvalidTestSpecENS_9StringRefE
FN:11053,11057,_ZN5Catch13MultiReporter18benchmarkPreparingENS_9StringRefE
FN:11058,11062,_ZN5Catch13MultiReporter17benchmarkStartingERKNS_13BenchmarkInfoE
FN:11063,11067,_ZN5Catch13MultiReporter14benchmarkEndedERKNS_14BenchmarkStatsINSt6chrono8durationIdSt5ratioILl1ELl1000000000EEEEEE
FN:11069,11073,_ZN5Catch13MultiReporter15benchmarkFailedENS_9StringRefE
FN:11075,11079,_ZN5Catch13MultiReporter15testRunStartingERKNS_11TestRunInfoE
FN:11081,11085,_ZN5Catch13MultiReporter16testCaseStartingERKNS_12TestCaseInfoE
FN:11088,11093,_ZN5Catch13MultiReporter23testCasePartialStartingERKNS_12TestCaseInfoEm
FN:11095,11099,_ZN5Catch13MultiReporter15sectionStartingERKNS_11SectionInfoE
FN:1110,1110,_ZN5Catch12_GLOBAL__N_111RegistryHubC2Ev
FN:11101,11105,_ZN5Catch13MultiReporter17assertionStartingERKNS_13AssertionInfoE
FN:11107,11118,_ZN5Catch13MultiReporter14assertionEndedERKNS_14AssertionStatsE
FN:1111,1113,_ZNK5Catch12_GLOBAL__N_111RegistryHub19getReporterRegistryEv
FN:11120,11124,_ZN5Catch13MultiReporter12sectionEndedERKNS_12SectionStatsE
FN:11126,11141,_ZN5Catch13MultiReporter20testCasePartialEndedERKNS_13TestCaseStatsEm
FN:1114,1116,_ZNK5Catch12_GLOBAL__N_111RegistryHub19getTestCaseRegistryEv
FN:11143,11147,_ZN5Catch13MultiReporter13testCaseEndedERKNS_13TestCaseStatsE
FN:11149,11153,_ZN5Catch13MultiReporter12testRunEndedERKNS_12TestRunStatsE
FN:11156,11160,_ZN5Catch13MultiReporter8skipTestERKNS_12TestCaseInfoE
FN:11162,11166,_ZN5Catch13MultiReporter13listReportersERKSt6vectorINS_19ReporterDescriptionESaIS2_EE
FN:11168,11173,_ZN5Catch13MultiReporter13listListenersERKSt6vectorINS_19ListenerDescriptionESaIS2_EE
FN:1117,1119,_ZNK5Catch12_GLOBAL__N_111RegistryHub30getExceptionTranslatorRegistryEv
FN:11175,11179,_ZN5Catch13MultiReporter9listTestsERKSt6vectorINS_14TestCaseHandleESaIS2_EE
FN:11181,11185,_ZN5Catch13MultiReporter8listTagsERKSt6vectorINS_7TagInfoESaIS2_EE
FN:11196,11207,_ZN5Catch6Detail20registerReporterImplERKNSt7__cxx1112basic_stringIcSt11char_traitsIcESaIcEEENS0_10unique_ptrINS_16IReporterFactoryEEE
FN:1120,1122,_ZNK5Catch12_GLOBAL__N_111RegistryHub19getTagAliasRegistryEv
FN:11209,11211,_ZN5Catch6Detail20registerListenerImplENS0_10unique_ptrINS_20EventListenerFactoryEEE
FN:11225,11234,_ZN5Catch12_GLOBAL__N_120createMetadataStringERKNS_7IConfigE
FN:1123,1125,_ZNK5Catch12_GLOBAL__N_111RegistryHub27getStartupExceptionRegistryEv
FN:11237,11243,_ZN5Catch17SonarQubeReporter15testRunStartingERKNS_11TestRunInfoE
FN:11245,11256,_ZN5Catch17SonarQubeReporter8writeRunERKNS_22CumulativeReporterBase4NodeINS_12TestRunStatsENS2_INS_13TestCaseStatsENS1_11SectionNodeEEEEE
FN:11258,11264,_ZN5Catch17SonarQubeReporter13writeTestFileENS_9StringRefERKSt6vectorIPKNS_22CumulativeReporterBase4NodeINS_13TestCaseStatsENS3_11SectionNodeEEESaIS9_EE
FN:11266,11272,_ZN5Catch17SonarQubeReporter13writeTestCaseERKNS_22CumulativeReporterBase4NodeINS_13TestCaseStatsENS1_11SectionNodeEEE
FN:11274,11291,_ZN5Catch17SonarQubeReporter12writeSectionERKNSt7__cxx1112basic_stringIcSt11char_traitsIcESaIcEEERKNS_22CumulativeReporterBase11SectionNodeEb
FN:1128,1130,_ZN5Catch12_GLOBAL__N_111RegistryHub16registerReporterERKNSt7__cxx1112basic_stringIcSt11char_traitsIcESaIcEEENS_6Detail10unique_ptrINS_16IReporterFactoryEEE
FN:11293,11299,_ZN5Catch17SonarQubeReporter15writeAssertionsERKNS_22CumulativeReporterBase11SectionNodeEb
FN:11301,11363,_ZN5Catch17SonarQubeReporter14writeAssertionERKNS_14AssertionStatsEb
FN:1131,1133,_ZN5Catch12_GLOBAL__N_111RegistryHub16registerListenerENS_6Detail10unique_ptrINS_20EventListenerFactoryEEE
FN:1134,1136,_ZN5Catch12_GLOBAL__N_111RegistryHub12registerTestEONS_6Detail10unique_ptrINS_12TestCaseInfoEEEONS3_INS_12ITestInvokerEEE
FN:1137,1139,_ZN5Catch12_GLOBAL__N_111RegistryHub18registerTranslatorEONS_6Detail10unique_ptrINS_20IExceptionTranslatorEEE
FN:11371,11371,_ZN5Catch21StreamingReporterBaseD0Ev
FN:11371,11371,_ZN5Catch21StreamingReporterBaseD2Ev
FN:11374,11376,_ZN5Catch21StreamingReporterBase15testRunStartingERKNS_11TestRunInfoE
FN:11378,11380,_ZN5Catch21StreamingReporterBase12testRunEndedERKNS_12TestRunStatsE
FN:1140,1142,_ZN5Catch12_GLOBAL__N_111RegistryHub16registerTagAliasERKNSt7__cxx1112basic_stringIcSt11char_traitsIcESaIcEEES9_RKNS_14SourceLineInfoE
FN:11402,11409,_ZN5Catch12_GLOBAL__N_119TapAssertionPrinterC2ERSoRKNS_14AssertionStatsEmPNS_10ColourImplE
FN:11411,11485,_ZN5Catch12_GLOBAL__N_119TapAssertionPrinter5printEv
FN:1143,1149,_ZN5Catch12_GLOBAL__N_111RegistryHub24registerStartupExceptionEv
FN:11488,11492,_ZNK5Catch12_GLOBAL__N_119TapAssertionPrinter15printResultTypeENS_9StringRefE
FN:11494,11496,_ZNK5Catch12_GLOBAL__N_119TapAssertionPrinter10printIssueENS_9StringRefE
FN:11498,11505,_ZN5Catch12_GLOBAL__N_119TapAssertionPrinter18printExpressionWasEv
FN:1150,1152,_ZN5Catch12_GLOBAL__N_111RegistryHub28getMutableEnumValuesRegistryEv
FN:11507,11511,_ZNK5Catch12_GLOBAL__N_119TapAssertionPrinter23printOriginalExpressionEv
FN:11513,11521,_ZNK5Catch12_GLOBAL__N_119TapAssertionPrinter28printReconstructedExpressionEv
FN:11523,11528,_ZN5Catch12_GLOBAL__N_119TapAssertionPrinter12printMessageEv
FN:11530,11551,_ZN5Catch12_GLOBAL__N_119TapAssertionPrinter22printRemainingMessagesENS_6Colour4CodeE
FN:11565,11571,_ZN5Catch11TAPReporter15testRunStartingERKNS_11TestRunInfoE
FN:11573,11575,_ZN5Catch11TAPReporter19noMatchingTestCasesENS_9StringRefE
FN:11577,11585,_ZN5Catch11TAPReporter14assertionEndedERKNS_14AssertionStatsE
FN:11587,11594,_ZN5Catch11TAPReporter12testRunEndedERKNS_12TestRunStatsE
FN:11612,11621,_ZN5Catch12_GLOBAL__N_117printHeaderStringERSoRKNSt7__cxx1112basic_stringIcSt11char_traitsIcESaIcEEEm
FN:11623,11632,_ZN5Catch12_GLOBAL__N_16escapeENS_9StringRefE
FN:11636,11636,_ZN5Catch16TeamCityReporterD0Ev
FN:11636,11636,_ZN5Catch16TeamCityReporterD2Ev
FN:11638,11641,_ZN5Catch16TeamCityReporter15testRunStartingERKNS_11TestRunInfoE
FN:11643,11646,_ZN5Catch16TeamCityReporter12testRunEndedERKNS_12TestRunStatsE
FN:11648,11718,_ZN5Catch16TeamCityReporter14assertionEndedERKNS_14AssertionStatsE
FN:1166,1168,_ZN5Catch14getRegistryHubEv
FN:1169,1171,_ZN5Catch21getMutableRegistryHubEv
FN:1172,1174,_ZN5Catch7cleanUpEv
FN:11720,11726,_ZN5Catch16TeamCityReporter16testCaseStartingERKNS_12TestCaseInfoE
FN:11728,11743,_ZN5Catch16TeamCityReporter13testCaseEndedERKNS_13TestCaseStatsE
FN:11745,11763,_ZN5Catch16TeamCityReporter18printSectionHeaderERSo
FN:1175,1177,_ZN5Catch24translateActiveExceptionB5cxx11Ev
FN:11778,11785,_ZN5Catch11XmlReporterC2EONS_14ReporterConfigE
FN:11787,11787,_ZN5Catch11XmlReporterD0Ev
FN:11787,11787,_ZN5Catch11XmlReporterD2Ev
FN:11789,11791,_ZN5Catch11XmlReporter14getDescriptionB5cxx11Ev
FN:11793,11795,_ZNK5Catch11XmlReporter16getStylesheetRefB5cxx11Ev
FN:11797,11801,_ZN5Catch11XmlReporter15writeSourceInfoERKNS_14SourceLineInfoE
FN:11803,11816,_ZN5Catch11XmlReporter15testRunStartingERKNS_11TestRunInfoE
FN:11818,11829,_ZN5Catch11XmlReporter16testCaseStartingERKNS_12TestCaseInfoE
FN:11831,11839,_ZN5Catch11XmlReporter15sectionStartingERKNS_11SectionInfoE
FN:11841,11921,_ZN5Catch11XmlReporter14assertionEndedERKNS_14AssertionStatsE
FN:11923,11939,_ZN5Catch11XmlReporter12sectionEndedERKNS_12SectionStatsE
FN:1194,1199,_ZN5Catch12_GLOBAL__N_114createReporterERKNSt7__cxx1112basic_stringIcSt11char_traitsIcESaIcEEEONS_14ReporterConfigE
FN:11941,11955,_ZN5Catch11XmlReporter13testCaseEndedERKNS_13TestCaseStatsE
FN:11957,11970,_ZN5Catch11XmlReporter12testRunEndedERKNS_12TestRunStatsE
FN:11972,11975,_ZN5Catch11XmlReporter18benchmarkPreparingENS_9StringRefE
FN:11977,11984,_ZN5Catch11XmlReporter17benchmarkStartingERKNS_13BenchmarkInfoE
FN:11986,12004,_ZN5Catch11XmlReporter14benchmarkEndedERKNS_14BenchmarkStatsINSt6chrono8durationIdSt5ratioILl1ELl1000000000EEEEEE
FN:12006,12010,_ZN5Catch11XmlReporter15benchmarkFailedENS_9StringRefE
FN:1201,1230,_ZN5Catch12_GLOBAL__N_116prepareReportersEPKNS_6ConfigE
FN:12012,12023,_ZN5Catch11XmlReporter13listReportersERKSt6vectorINS_19ReporterDescriptionESaIS2_EE
FN:12025,12036,_ZN5Catch11XmlReporter13listListenersERKSt6vectorINS_19ListenerDescriptionESaIS2_EE
FN:12038,12061,_ZN5Catch11XmlReporter9listTestsERKSt6vectorINS_14TestCaseHandleESaIS2_EE
FN:12063,12077,_ZN5Catch11XmlReporter8listTagsERKSt6vectorINS_7TagInfoESaIS2_EE
FN:1234,1260,_ZN5Catch12_GLOBAL__N_19TestGroupC2EONS_6Detail10unique_ptrINS_14IEventListenerEEEPKNS_6ConfigE
FN:1262,1279,_ZN5Catch12_GLOBAL__N_19TestGroup7executeEv
FN:1281,1283,_ZNK5Catch12_GLOBAL__N_19TestGroup21hadUnmatchedTestSpecsEv
FN:1295,1299,_ZN5Catch12_GLOBAL__N_120applyFilenamesAsTagsEv
FN:1303,1333,_ZN5Catch12_GLOBAL__N_114setUpGuardFileERKNSt7__cxx1112basic_stringIcSt11char_traitsIcESaIcEEE
FN:132,132,_ZNK5Catch9Benchmark6Detail10do_nothingclEv
FN:1336,1343,_ZN5Catch12_GLOBAL__N_117tearDownGuardFileERKNSt7__cxx1112basic_stringIcSt11char_traitsIcESaIcEEE
FN:1347,1380,_ZN5Catch7SessionC2Ev
FN:135,135,_ZN5Catch9Benchmark6Detail17BenchmarkFunction8callableD0Ev
FN:135,135,_ZN5Catch9Benchmark6Detail17BenchmarkFunction8callableD2Ev
FN:136,137,_ZN5Catch9Benchmark6Detail17BenchmarkFunctionC2Ev
FN:1381,1383,_ZN5Catch7SessionD2Ev
FN:1385,1390,_ZNK5Catch7Session8showHelpEv
FN:1391,1397,_ZN5Catch7Session11libIdentifyEv
FN:1399,1426,_ZN5Catch7Session16applyCommandLineEiPKPKc
FN:1452,1455,_ZN5Catch7Session13useConfigDataERKNS_10ConfigDataE
FN:1457,1469,_ZN5Catch7Session3runEv
FN:1471,1473,_ZNK5Catch7Session3cliEv
FN:1474,1476,_ZN5Catch7Session3cliERKNS_5Clara6ParserE
FN:1477,1479,_ZN5Catch7Session10configDataEv
FN:1480,1484,_ZN5Catch7Session6configEv
FN:1486,1567,_ZN5Catch7Session11runInternalEv
FN:154,156,_ZNK5Catch9Benchmark6Detail20optimized_away_error4whatEv
FN:1576,1583,_ZN5Catch22RegistrarForTagAliasesC2EPKcS2_RKNS_14SourceLineInfoE
FN:158,160,_ZN5Catch9Benchmark6Detail26throw_optimized_away_errorEv
FN:1600,1604,_ZN5Catch12_GLOBAL__N_1orENS_18TestCasePropertiesES1_
FN:1606,1611,_ZN5Catch12_GLOBAL__N_1oRERNS_18TestCasePropertiesES1_
FN:1613,1617,_ZN5Catch12_GLOBAL__N_1anENS_18TestCasePropertiesES1_
FN:1619,1623,_ZN5Catch12_GLOBAL__N_17appliesENS_18TestCasePropertiesE
FN:1625,1640,_ZN5Catch12_GLOBAL__N_115parseSpecialTagENS_9StringRefE
FN:1641,1645,_ZN5Catch12_GLOBAL__N_113isReservedTagENS_9StringRefE
FN:1646,1651,_ZN5Catch12_GLOBAL__N_121enforceNotReservedTagENS_9StringRefERKNS_14SourceLineInfoE
FN:1653,1656,_ZN5Catch12_GLOBAL__N_115makeDefaultNameEv
FN:1658,1673,_ZN5Catch12_GLOBAL__N_119extractFilenamePartENS_9StringRefE
FN:1676,1680,_ZN5Catch12_GLOBAL__N_115sizeOfExtraTagsENS_9StringRefE
FN:1683,1686,_ZN5CatchltERKNS_3TagES2_
FN:1687,1690,_ZN5CatcheqERKNS_3TagES2_
FN:1693,1697,_ZN5Catch16makeTestCaseInfoENS_9StringRefERKNS_11NameAndTagsERKNS_14SourceLineInfoE
FN:1699,1775,_ZN5Catch12TestCaseInfoC2ENS_9StringRefERKNS_11NameAndTagsERKNS_14SourceLineInfoE
FN:1777,1779,_ZNK5Catch12TestCaseInfo8isHiddenEv
FN:1780,1782,_ZNK5Catch12TestCaseInfo6throwsEv
FN:1783,1785,_ZNK5Catch12TestCaseInfo8okToFailEv
FN:1786,1788,_ZNK5Catch12TestCaseInfo14expectedToFailEv
FN:1790,1794,_ZN5Catch12TestCaseInfo14addFilenameTagEv
FN:1796,1811,_ZNK5Catch12TestCaseInfo12tagsAsStringB5cxx11Ev
FN:1813,1820,_ZN5Catch12TestCaseInfo17internalAppendTagENS_9StringRefE
FN:1822,1835,_ZN5CatchltERKNS_12TestCaseInfoES2_
FN:1848,1850,_ZN5Catch8TestSpec7PatternC2ERKNSt7__cxx1112basic_stringIcSt11char_traitsIcESaIcEEE
FN:1852,1852,_ZN5Catch8TestSpec7PatternD0Ev
FN:1852,1852,_ZN5Catch8TestSpec7PatternD2Ev
FN:1854,1856,_ZNK5Catch8TestSpec7Pattern4nameB5cxx11Ev
FN:1859,1862,_ZN5Catch8TestSpec11NamePatternC2ERKNSt7__cxx1112basic_stringIcSt11char_traitsIcESaIcEEES9_
FN:1864,1866,_ZNK5Catch8TestSpec11NamePattern7matchesERKNS_12TestCaseInfoE
FN:1868,1870,_ZNK5Catch8TestSpec11NamePattern11serializeToERSo
FN:1873,1876,_ZN5Catch8TestSpec10TagPatternC2ERKNSt7__cxx1112basic_stringIcSt11char_traitsIcESaIcEEES9_
FN:1878,1882,_ZNK5Catch8TestSpec10TagPattern7matchesERKNS_12TestCaseInfoE
FN:1884,1886,_ZNK5Catch8TestSpec10TagPattern11serializeToERSo
FN:1888,1902,_ZNK5Catch8TestSpec6Filter7matchesERKNS_12TestCaseInfoE
FN:190,213,_ZN5Catch9Benchmark6Detail12_GLOBAL__N_1L8resampleINS_11SimplePcg32EPFdPKdS6_EEESt6vectorIdSaIdEERT_jS6_S6_RT0_
FN:1904,1920,_ZNK5Catch8TestSpec6Filter11serializeToERSo
FN:1923,1927,_ZN5Catch8TestSpec17extractFilterNameB5cxx11ERKNS0_6FilterE
FN:1929,1931,_ZNK5Catch8TestSpec10hasFiltersEv
FN:1933,1935,_ZNK5Catch8TestSpec7matchesERKNS_12TestCaseInfoE
FN:1934,1934,_ZZNK5Catch8TestSpec7matchesERKNS_12TestCaseInfoEENKUlRKNS0_6FilterEE_clES6_
FN:1937,1950,_ZNK5Catch8TestSpec15matchesByFilterERKSt6vectorINS_14TestCaseHandleESaIS2_EERKNS_7IConfigE
FN:1952,1954,_ZNK5Catch8TestSpec15getInvalidSpecsB5cxx11Ev
FN:1956,1965,_ZNK5Catch8TestSpec11serializeToERSo
FN:1976,1978,_ZN5Catch12_GLOBAL__N_1L31getCurrentNanosecondsSinceEpochEv
FN:1981,1983,_ZN5Catch5Timer5startEv
FN:1984,1986,_ZNK5Catch5Timer21getElapsedNanosecondsEv
FN:1987,1989,_ZNK5Catch5Timer22getElapsedMicrosecondsEv
FN:1990,1992,_ZNK5Catch5Timer22getElapsedMillisecondsEv
FN:1993,1995,_ZNK5Catch5Timer17getElapsedSecondsEv
FN:2018,2024,_ZN5Catch6Detail12_GLOBAL__N_110Endianness5whichEv
FN:2028,2045,_ZN5Catch6Detail12_GLOBAL__N_110fpToStringIdEENSt7__cxx1112basic_stringIcSt11char_traitsIcESaIcEEET_i
FN:2028,2045,_ZN5Catch6Detail12_GLOBAL__N_110fpToStringIfEENSt7__cxx1112basic_stringIcSt11char_traitsIcESaIcEEET_i
FN:2048,2084,_ZN5Catch6Detail17convertIntoStringB5cxx11ENS_9StringRefEb
FN:2062,2067,_ZZN5Catch6Detail17convertIntoStringB5cxx11ENS_9StringRefEbENKUlmE_clEm
FN:2086,2088,_ZN5Catch6Detail17convertIntoStringB5cxx11ENS_9StringRefE
FN:2090,2104,_ZN5Catch6Detail17rawMemoryToStringB5cxx11EPKvm
FN:2106,2110,_ZN5Catch6Detail27makeExceptionHappenedStringB5cxx11Ev
FN:2122,2124,_ZN5Catch11StringMakerINSt7__cxx1112basic_stringIcSt11char_traitsIcESaIcEEEvE7convertERKS6_
FN:2127,2129,_ZN5Catch11StringMakerISt17basic_string_viewIcSt11char_traitsIcEEvE7convertB5cxx11ES4_
FN:2132,2138,_ZN5Catch11StringMakerIPKcvE7convertB5cxx11ES2_
FN:2139,2145,_ZN5Catch11StringMakerIPcvE7convertB5cxx11ES1_
FN:2148,2155,_ZN5Catch11StringMakerINSt7__cxx1112basic_stringIwSt11char_traitsIwESaIwEEEvE7convertERKS6_
FN:215,246,_ZN5Catch9Benchmark6Detail12_GLOBAL__N_1L16outlier_varianceENS0_8EstimateIdEES4_i
FN:2158,2160,_ZN5Catch11StringMakerISt17basic_string_viewIwSt11char_traitsIwEEvE7convertB5cxx11ES4_
FN:2163,2169,_ZN5Catch11StringMakerIPKwvE7convertB5cxx11ES2_
FN:2170,2176,_ZN5Catch11StringMakerIPwvE7convertB5cxx11ES1_
FN:2181,2183,_ZN5Catch11StringMakerISt4bytevE7convertB5cxx11ES1_
FN:2186,2188,_ZN5Catch11StringMakerIivE7convertB5cxx11Ei
FN:2189,2191,_ZN5Catch11StringMakerIlvE7convertB5cxx11El
FN:2192,2199,_ZN5Catch11StringMakerIxvE7convertB5cxx11Ex
FN:2201,2203,_ZN5Catch11StringMakerIjvE7convertB5cxx11Ej
FN:2204,2206,_ZN5Catch11StringMakerImvE7convertB5cxx11Em
FN:2207,2214,_ZN5Catch11StringMakerIyvE7convertB5cxx11Ey
FN:2216,2232,_ZN5Catch11StringMakerIavE7convertB5cxx11Ea
FN:2233,2235,_ZN5Catch11StringMakerIcvE7convertB5cxx11Ec
FN:2236,2238,_ZN5Catch11StringMakerIhvE7convertB5cxx11Eh
FN:2242,2244,_ZN5Catch11StringMakerIfvE7convertB5cxx11Ef
FN:2248,2250,_ZN5Catch11StringMakerIdvE7convertB5cxx11Ed
FN:225,234,_ZZN5Catch9Benchmark6Detail12_GLOBAL__N_1L16outlier_varianceENS0_8EstimateIdEES4_iENKUldE_clEd
FN:2258,2265,_ZNK5Catch6CountsmiERKS0_
FN:2267,2273,_ZN5Catch6CountspLERKS0_
FN:2275,2277,_ZNK5Catch6Counts5totalEv
FN:2278,2280,_ZNK5Catch6Counts9allPassedEv
FN:2281,2283,_ZNK5Catch6Counts5allOkEv
FN:2285,2290,_ZNK5Catch6TotalsmiERKS0_
FN:2292,2296,_ZN5Catch6TotalspLERKS0_
FN:2298,2309,_ZNK5Catch6Totals5deltaERKS0_
FN:2318,2322,_ZN5Catch6Detail22registerTranslatorImplEONS0_10unique_ptrINS_20IExceptionTranslatorEEE
FN:2331,2342,_ZN5Catch7VersionC2EjjjPKcj
FN:2344,2354,_ZN5CatchlsERSoRKNS_7VersionE
FN:2356,2359,_ZN5Catch14libraryVersionEv
FN:236,239,_ZZN5Catch9Benchmark6Detail12_GLOBAL__N_1L16outlier_varianceENS0_8EstimateIdEES4_iENKUldE0_clEd
FN:2368,2370,_ZNK5Catch18GeneratorException4whatEv
FN:2379,2379,_ZN5Catch17IGeneratorTrackerD0Ev
FN:2379,2379,_ZN5Catch17IGeneratorTrackerD2Ev
FN:2386,2388,_ZN5Catch10Generators6Detail25throw_generator_exceptionEPKc
FN:2391,2391,_ZN5Catch10Generators20GeneratorUntypedBaseD0Ev
FN:2391,2391,_ZN5Catch10Generators20GeneratorUntypedBaseD2Ev
FN:2393,2395,_ZN5Catch10Generators23acquireGeneratorTrackerENS_9StringRefERKNS_14SourceLineInfoE
FN:2397,2402,_ZN5Catch10Generators22createGeneratorTrackerENS_9StringRefENS_14SourceLineInfoEONS_6Detail10unique_ptrINS0_20GeneratorUntypedBaseEEE
FN:2415,2415,_ZN5Catch10Generators6Detail7getSeedEv
FN:2419,2420,_ZN5Catch10Generators23RandomFloatingGeneratorIeE5PImplC2Eeej
FN:2426,2430,_ZN5Catch10Generators23RandomFloatingGeneratorIeEC2Eeej
FN:2432,2432,_ZN5Catch10Generators23RandomFloatingGeneratorIeED0Ev
FN:2432,2432,_ZN5Catch10Generators23RandomFloatingGeneratorIeED2Ev
FN:2434,2437,_ZN5Catch10Generators23RandomFloatingGeneratorIeE4nextEv
FN:2446,2448,_ZN5Catch6Detail22missingCaptureInstanceEv
FN:2451,2451,_ZN5Catch14IResultCaptureD0Ev
FN:2451,2451,_ZN5Catch14IResultCaptureD2Ev
FN:2458,2458,_ZN5Catch7IConfigD0Ev
FN:2458,2458,_ZN5Catch7IConfigD2Ev
FN:2465,2465,_ZN5Catch20IExceptionTranslatorD0Ev
FN:2465,2465,_ZN5Catch20IExceptionTranslatorD2Ev
FN:2466,2466,_ZN5Catch28IExceptionTranslatorRegistryD0Ev
FN:2466,2466,_ZN5Catch28IExceptionTranslatorRegistryD2Ev
FN:2476,2483,_ZN5Catch10Generators20GeneratorUntypedBase11countedNextEv
FN:248,322,_ZN5Catch9Benchmark6Detail12_GLOBAL__N_1L7erf_invEd
FN:2485,2490,_ZNK5Catch10Generators20GeneratorUntypedBase22currentElementAsStringEv
FN:2499,2499,_ZN5Catch12IRegistryHubD0Ev
FN:2499,2499,_ZN5Catch12IRegistryHubD2Ev
FN:2500,2500,_ZN5Catch19IMutableRegistryHubD0Ev
FN:2500,2500,_ZN5Catch19IMutableRegistryHubD2Ev
FN:2509,2517,_ZN5Catch14ReporterConfigC2EPKNS_7IConfigENS_6Detail10unique_ptrINS_7IStreamEEENS_10ColourModeESt3mapINSt7__cxx1112basic_stringIcSt11char_traitsIcESaIcEEESF_St4lessISF_ESaISt4pairIKSF_SF_EEE
FN:2519,2522,_ZNO5Catch14ReporterConfig10takeStreamEv
FN:2523,2523,_ZNK5Catch14ReporterConfig10fullConfigEv
FN:2524,2524,_ZNK5Catch14ReporterConfig10colourModeEv
FN:2527,2529,_ZNK5Catch14ReporterConfig13customOptionsB5cxx11Ev
FN:2531,2531,_ZN5Catch14ReporterConfigD2Ev
FN:2533,2548,_ZN5Catch14AssertionStatsC2ERKNS_15AssertionResultERKSt6vectorINS_11MessageInfoESaIS5_EERKNS_6TotalsE
FN:2550,2558,_ZN5Catch12SectionStatsC2EONS_11SectionInfoERKNS_6CountsEdb
FN:2561,2571,_ZN5Catch13TestCaseStatsC2ERKNS_12TestCaseInfoERKNS_6TotalsEONSt7__cxx1112basic_stringIcSt11char_traitsIcESaIcEEESD_b
FN:2574,2580,_ZN5Catch12TestRunStatsC2ERKNS_11TestRunInfoERKNS_6TotalsEb
FN:2582,2582,_ZN5Catch14IEventListenerD0Ev
FN:2582,2582,_ZN5Catch14IEventListenerD2Ev
FN:2590,2590,_ZN5Catch16IReporterFactoryD0Ev
FN:2590,2590,_ZN5Catch16IReporterFactoryD2Ev
FN:2591,2591,_ZN5Catch20EventListenerFactoryD0Ev
FN:2591,2591,_ZN5Catch20EventListenerFactoryD2Ev
FN:2598,2598,_ZN5Catch17ITestCaseRegistryD0Ev
FN:2598,2598,_ZN5Catch17ITestCaseRegistryD2Ev
FN:2605,2614,_ZN5Catch16AssertionHandlerC2ENS_9StringRefERKNS_14SourceLineInfoES1_NS_17ResultDisposition5FlagsE
FN:2616,2618,_ZN5Catch16AssertionHandler10handleExprERKNS_20ITransientExpressionE
FN:2619,2621,_ZN5Catch16AssertionHandler13handleMessageENS_9ResultWas6OfTypeEONSt7__cxx1112basic_stringIcSt11char_traitsIcESaIcEEE
FN:2623,2625,_ZNK5Catch16AssertionHandler11allowThrowsEv
FN:2627,2643,_ZN5Catch16AssertionHandler8completeEv
FN:2635,2635,_ZZN5Catch16AssertionHandler8completeEvENKUlvE_clEv
FN:2645,2647,_ZN5Catch16AssertionHandler33handleUnexpectedInflightExceptionEv
FN:2649,2651,_ZN5Catch16AssertionHandler31handleExceptionThrownAsExpectedEv
FN:2652,2654,_ZN5Catch16AssertionHandler34handleExceptionNotThrownAsExpectedEv
FN:2656,2658,_ZN5Catch16AssertionHandler34handleUnexpectedExceptionNotThrownEv
FN:2660,2662,_ZN5Catch16AssertionHandler25handleThrowingCallSkippedEv
FN:2666,2668,_ZN5Catch24handleExceptionMatchExprERNS_16AssertionHandlerERKNSt7__cxx1112basic_stringIcSt11char_traitsIcESaIcEEE
FN:2680,2686,_ZNK5Catch6Detail19CaseInsensitiveLessclENS_9StringRefES2_
FN:2685,2685,_ZZNK5Catch6Detail19CaseInsensitiveLessclENS_9StringRefES2_ENKUlccE_clEcc
FN:2689,2695,_ZNK5Catch6Detail22CaseInsensitiveEqualToclENS_9StringRefES2_
FN:2694,2694,_ZZNK5Catch6Detail22CaseInsensitiveEqualToclENS_9StringRefES2_ENKUlccE_clEcc
FN:2707,2713,_ZN12_GLOBAL__N_111isOptPrefixEc
FN:2715,2725,_ZN12_GLOBAL__N_112normaliseOptEN5Catch9StringRefE
FN:2727,2738,_ZN12_GLOBAL__N_1L20find_first_separatorEN5Catch9StringRefE
FN:2728,2730,_ZZN12_GLOBAL__N_1L20find_first_separatorEN5Catch9StringRefEENKUlcE_clEc
FN:2746,2783,_ZN5Catch5Clara6Detail11TokenStream10loadBufferEv
FN:2785,2786,_ZN5Catch5Clara6Detail11TokenStreamC2ERKNS0_4ArgsE
FN:2788,2791,_ZN5Catch5Clara6Detail11TokenStreamC2EN9__gnu_cxx17__normal_iteratorIPKNS_9StringRefESt6vectorIS5_SaIS5_EEEESB_
FN:2793,2802,_ZN5Catch5Clara6Detail11TokenStreamppEv
FN:2804,2808,_ZN5Catch5Clara6Detail11convertIntoERKNSt7__cxx1112basic_stringIcSt11char_traitsIcESaIcEEERS7_
FN:2810,2826,_ZN5Catch5Clara6Detail11convertIntoERKNSt7__cxx1112basic_stringIcSt11char_traitsIcESaIcEEERb
FN:2828,2828,_ZNK5Catch5Clara6Detail10ParserBase11cardinalityEv
FN:2830,2832,_ZNK5Catch5Clara6Detail10ParserBase5parseERKNS0_4ArgsE
FN:2834,2836,_ZN5Catch5Clara6Detail10ParseStateC2ENS0_15ParseResultTypeENS1_11TokenStreamE
FN:2838,2841,_ZN5Catch5Clara6Detail12BoundFlagRef7setFlagEb
FN:2843,2843,_ZN5Catch5Clara6Detail10ResultBaseD0Ev
FN:2843,2843,_ZN5Catch5Clara6Detail10ResultBaseD2Ev
FN:2845,2845,_ZNK5Catch5Clara6Detail8BoundRef11isContainerEv
FN:2847,2847,_ZNK5Catch5Clara6Detail8BoundRef6isFlagEv
FN:2849,2849,_ZNK5Catch5Clara6Detail16BoundFlagRefBase6isFlagEv
FN:2853,2875,_ZNK5Catch5Clara3Arg5parseERKNSt7__cxx1112basic_stringIcSt11char_traitsIcESaIcEEENS0_6Detail11TokenStreamE
FN:2877,2878,_ZN5Catch5Clara3OptC2ERb
FN:2880,2893,_ZNK5Catch5Clara3Opt14getHelpColumnsEv
FN:2895,2902,_ZNK5Catch5Clara3Opt7isMatchENS_9StringRefE
FN:2904,2953,_ZNK5Catch5Clara3Opt5parseERKNSt7__cxx1112basic_stringIcSt11char_traitsIcESaIcEEENS0_6Detail11TokenStreamE
FN:2955,2973,_ZNK5Catch5Clara3Opt8validateEv
FN:2975,2976,_ZN5Catch5Clara7ExeNameC2Ev
FN:2978,2980,_ZN5Catch5Clara7ExeNameC2ERNSt7__cxx1112basic_stringIcSt11char_traitsIcESaIcEEE
FN:2983,2987,_ZNK5Catch5Clara7ExeName5parseERKNSt7__cxx1112basic_stringIcSt11char_traitsIcESaIcEEENS0_6Detail11TokenStreamE
FN:2989,3000,_ZN5Catch5Clara7ExeName3setERKNSt7__cxx1112basic_stringIcSt11char_traitsIcESaIcEEE
FN:3005,3012,_ZN5Catch5Clara6ParseroRERKS1_
FN:3014,3021,_ZNK5Catch5Clara6Parser14getHelpColumnsEv
FN:3023,3065,_ZNK5Catch5Clara6Parser13writeToStreamERSo
FN:3067,3079,_ZNK5Catch5Clara6Parser8validateEv
FN:3082,3130,_ZNK5Catch5Clara6Parser5parseERKNSt7__cxx1112basic_stringIcSt11char_traitsIcESaIcEEENS0_6Detail11TokenStreamE
FN:3132,3133,_ZN5Catch5Clara4ArgsC2EiPKPKc
FN:3135,3137,_ZN5Catch5Clara4ArgsC2ESt16initializer_listINS_9StringRefEE
FN:3140,3148,_ZN5Catch5Clara4HelpC2ERb
FN:3141,3144,_ZZN5Catch5Clara4HelpC4ERbENKUlbE_clEb
FN:3161,3452,_ZN5Catch21makeCommandLineParserERNS_10ConfigDataE
FN:3165,3176,_ZZN5Catch21makeCommandLineParserERNS_10ConfigDataEENKUlRKNSt7__cxx1112basic_stringIcSt11char_traitsIcESaIcEEEE_clES9_
FN:3177,3197,_ZZN5Catch21makeCommandLineParserERNS_10ConfigDataEENKUlRKNSt7__cxx1112basic_stringIcSt11char_traitsIcESaIcEEEE0_clES9_
FN:3198,3208,_ZZN5Catch21makeCommandLineParserERNS_10ConfigDataEENKUlRKNSt7__cxx1112basic_stringIcSt11char_traitsIcESaIcEEEE1_clES9_
FN:3209,3226,_ZZN5Catch21makeCommandLineParserERNS_10ConfigDataEENKUlRKNSt7__cxx1112basic_stringIcSt11char_traitsIcESaIcEEEE2_clES9_
FN:3227,3243,_ZZN5Catch21makeCommandLineParserERNS_10ConfigDataEENKUlRKNSt7__cxx1112basic_stringIcSt11char_traitsIcESaIcEEEE3_clES9_
FN:3244,3257,_ZZN5Catch21makeCommandLineParserERNS_10ConfigDataEENKUlRKNSt7__cxx1112basic_stringIcSt11char_traitsIcESaIcEEEE4_clES9_
FN:325,337,_ZN5Catch9Benchmark6Detail12_GLOBAL__N_1L18standard_deviationEPKdS4_
FN:3258,3269,_ZZN5Catch21makeCommandLineParserERNS_10ConfigDataEENKUlRKNSt7__cxx1112basic_stringIcSt11char_traitsIcESaIcEEEE5_clES9_
FN:3270,3315,_ZZN5Catch21makeCommandLineParserERNS_10ConfigDataEENKUlRKNSt7__cxx1112basic_stringIcSt11char_traitsIcESaIcEEEE6_clES9_
FN:331,334,_ZZN5Catch9Benchmark6Detail12_GLOBAL__N_1L18standard_deviationEPKdS4_ENKUlddE_clEdd
FN:3316,3328,_ZZN5Catch21makeCommandLineParserERNS_10ConfigDataEENKUlRKNSt7__cxx1112basic_stringIcSt11char_traitsIcESaIcEEEE7_clES9_
FN:3330,3338,_ZZN5Catch21makeCommandLineParserERNS_10ConfigDataEENKUlRKNSt7__cxx1112basic_stringIcSt11char_traitsIcESaIcEEEE8_clES9_
FN:3364,3364,_ZZN5Catch21makeCommandLineParserERNS_10ConfigDataEENKUlbE_clEb
FN:3367,3367,_ZZN5Catch21makeCommandLineParserERNS_10ConfigDataEENKUliE_clEi
FN:3373,3373,_ZZN5Catch21makeCommandLineParserERNS_10ConfigDataEENKUlbE0_clEb
FN:339,353,_ZN5Catch9Benchmark6Detail12_GLOBAL__N_1L9jackknifeEPFdPKdS4_EPdS7_
FN:3470,3470,_ZN5Catch10ColourImplD0Ev
FN:3470,3470,_ZN5Catch10ColourImplD2Ev
FN:3472,3474,_ZN5Catch10ColourImpl11guardColourENS_6Colour4CodeE
FN:3476,3484,_ZN5Catch10ColourImpl11ColourGuard10engageImplERSo
FN:3486,3489,_ZN5Catch10ColourImpl11ColourGuardC2ENS_6Colour4CodeEPKS0_
FN:3490,3495,_ZN5Catch10ColourImpl11ColourGuardC2EOS1_
FN:3497,3504,_ZN5Catch10ColourImpl11ColourGuardaSEOS1_
FN:3505,3509,_ZN5Catch10ColourImpl11ColourGuardD2Ev
FN:3512,3515,_ZNR5Catch10ColourImpl11ColourGuard6engageERSo
FN:3518,3521,_ZNO5Catch10ColourImpl11ColourGuard6engageERSo
FN:3528,3528,_ZN5Catch12_GLOBAL__N_112NoColourImplC2EPNS_7IStreamE
FN:3531,3531,_ZNK5Catch12_GLOBAL__N_112NoColourImpl3useENS_6Colour4CodeE
FN:3616,3616,_ZN5Catch12_GLOBAL__N_114ANSIColourImplC2EPNS_7IStreamE
FN:3618,3637,_ZN5Catch12_GLOBAL__N_114ANSIColourImpl26useImplementationForStreamERKNS_7IStreamE
FN:3640,3667,_ZNK5Catch12_GLOBAL__N_114ANSIColourImpl3useENS_6Colour4CodeE
FN:3641,3647,_ZZNK5Catch12_GLOBAL__N_114ANSIColourImpl3useENS_6Colour4CodeEENKUlPKcE_clES5_
FN:365,381,_ZN5Catch9Benchmark6Detail25weighted_average_quantileEiiPdS2_
FN:3675,3702,_ZN5Catch14makeColourImplENS_10ColourModeEPNS_7IStreamE
FN:3704,3716,_ZN5Catch21isColourImplAvailableENS_10ColourModeE
FN:3732,3734,_ZN5Catch24getCurrentMutableContextEv
FN:3736,3739,_ZN5Catch9sharedRngEv
FN:3769,3772,_ZN5Catch19writeToDebugConsoleERKNSt7__cxx1112basic_stringIcSt11char_traitsIcESaIcEEE
FN:384,410,_ZN5Catch9Benchmark6Detail17classify_outliersEPKdS3_
FN:3850,3866,_ZN5Catch16isDebuggerActiveEv
FN:3893,3898,_ZNK5Catch20ITransientExpression29streamReconstructedExpressionERSo
FN:3900,3907,_ZN5Catch29formatReconstructedExpressionERSoRKNSt7__cxx1112basic_stringIcSt11char_traitsIcESaIcEEENS_9StringRefES8_
FN:3926,3928,_ZN5Catch17throw_logic_errorERKNSt7__cxx1112basic_stringIcSt11char_traitsIcESaIcEEE
FN:3931,3933,_ZN5Catch18throw_domain_errorERKNSt7__cxx1112basic_stringIcSt11char_traitsIcESaIcEEE
FN:3936,3938,_ZN5Catch19throw_runtime_errorERKNSt7__cxx1112basic_stringIcSt11char_traitsIcESaIcEEE
FN:3950,3950,_ZN5Catch26IMutableEnumValuesRegistryD0Ev
FN:3950,3950,_ZN5Catch26IMutableEnumValuesRegistryD2Ev
FN:3957,3964,_ZN5Catch6Detail12_GLOBAL__N_119extractInstanceNameENS_9StringRefE
FN:3967,3975,_ZN5Catch6Detail10parseEnumsENS_9StringRefE
FN:3977,3977,_ZN5Catch6Detail8EnumInfoD2Ev
FN:3979,3985,_ZNK5Catch6Detail8EnumInfo6lookupEi
FN:3987,3999,_ZN5Catch6Detail12makeEnumInfoENS_9StringRefES1_RKSt6vectorIiSaIiEE
FN:4001,4004,_ZN5Catch6Detail18EnumValuesRegistry12registerEnumENS_9StringRefES2_RKSt6vectorIiSaIiEE
FN:4016,4016,_ZN5Catch10ErrnoGuardC2Ev
FN:4017,4017,_ZN5Catch10ErrnoGuardD2Ev
FN:4028,4037,_ZN5Catch12_GLOBAL__N_1L14tryTranslatorsERKSt6vectorINS_6Detail10unique_ptrIKNS_20IExceptionTranslatorEEESaIS6_EE
FN:4042,4042,_ZN5Catch27ExceptionTranslatorRegistryD0Ev
FN:4042,4042,_ZN5Catch27ExceptionTranslatorRegistryD2Ev
FN:4044,4046,_ZN5Catch27ExceptionTranslatorRegistry18registerTranslatorEONS_6Detail10unique_ptrINS_20IExceptionTranslatorEEE
FN:4049,4087,_ZNK5Catch27ExceptionTranslatorRegistry24translateActiveExceptionB5cxx11Ev
FN:412,420,_ZN5Catch9Benchmark6Detail4meanEPKdS3_
FN:4144,4146,_ZN12_GLOBAL__N_111reportFatalEPKc
FN:422,424,_ZN5Catch9Benchmark6Detail10normal_cdfEd
FN:426,428,_ZN5Catch9Benchmark6Detail8erfc_invEd
FN:4262,4272,_ZN5CatchL29restorePreviousSignalHandlersEv
FN:4274,4288,_ZN5CatchL12handleSignalEi
FN:4290,4296,_ZN5Catch21FatalConditionHandlerC2Ev
FN:4298,4303,_ZN5Catch21FatalConditionHandlerD2Ev
FN:430,444,_ZN5Catch9Benchmark6Detail15normal_quantileEd
FN:4305,4318,_ZN5Catch21FatalConditionHandler15engage_platformEv
FN:4325,4327,_ZN5Catch21FatalConditionHandler18disengage_platformEv
FN:4341,4346,_ZN5Catch6Detail13convertToBitsEf
FN:4348,4353,_ZN5Catch6Detail13convertToBitsEd
FN:4359,4359,_ZN5Catch6Detail13directCompareEff
FN:4360,4360,_ZN5Catch6Detail13directCompareEdd
FN:4383,4394,_ZN5Catch6Detail6getEnvEPKc
FN:4407,4407,_ZN5Catch7IStreamD0Ev
FN:4407,4407,_ZN5Catch7IStreamD2Ev
FN:4417,4419,_ZN5Catch6Detail12_GLOBAL__N_113StreamBufImplINS1_17OutputDebugWriterELm256EEC2Ev
FN:4421,4423,_ZN5Catch6Detail12_GLOBAL__N_113StreamBufImplINS1_17OutputDebugWriterELm256EED0Ev
FN:4421,4423,_ZN5Catch6Detail12_GLOBAL__N_113StreamBufImplINS1_17OutputDebugWriterELm256EED2Ev
FN:4426,4436,_ZN5Catch6Detail12_GLOBAL__N_113StreamBufImplINS1_17OutputDebugWriterELm256EE8overflowEi
FN:4438,4444,_ZN5Catch6Detail12_GLOBAL__N_113StreamBufImplINS1_17OutputDebugWriterELm256EE4syncEv
FN:4451,4455,_ZN5Catch6Detail12_GLOBAL__N_117OutputDebugWriterclERKNSt7__cxx1112basic_stringIcSt11char_traitsIcESaIcEEE
FN:4463,4467,_ZN5Catch6Detail12_GLOBAL__N_110FileStreamC2ERKNSt7__cxx1112basic_stringIcSt11char_traitsIcESaIcEEE
FN:4469,4471,_ZN5Catch6Detail12_GLOBAL__N_110FileStream6streamEv
FN:447,502,_ZN5Catch9Benchmark6Detail9bootstrapEdPdS2_RKSt6vectorIdSaIdEEPFdPKdS9_E
FN:4481,4481,_ZN5Catch6Detail12_GLOBAL__N_110CoutStreamC2Ev
FN:4484,4484,_ZN5Catch6Detail12_GLOBAL__N_110CoutStream6streamEv
FN:4485,4485,_ZNK5Catch6Detail12_GLOBAL__N_110CoutStream9isConsoleEv
FN:4494,4494,_ZN5Catch6Detail12_GLOBAL__N_110CerrStreamC2Ev
FN:4497,4497,_ZN5Catch6Detail12_GLOBAL__N_110CerrStream6streamEv
FN:4498,4498,_ZNK5Catch6Detail12_GLOBAL__N_110CerrStream9isConsoleEv
FN:4507,4510,_ZN5Catch6Detail12_GLOBAL__N_114DebugOutStreamC2Ev
FN:4513,4513,_ZN5Catch6Detail12_GLOBAL__N_114DebugOutStream6streamEv
FN:4521,4537,_ZN5Catch10makeStreamERKNSt7__cxx1112basic_stringIcSt11char_traitsIcESaIcEEE
FN:4546,4549,_ZN5Catch12_GLOBAL__N_1L11needsEscapeEc
FN:4551,4568,_ZN5Catch12_GLOBAL__N_1L19makeEscapeStringRefEc
FN:4571,4575,_ZN5Catch9JsonUtils6indentERSom
FN:4576,4583,_ZN5Catch9JsonUtils18appendCommaNewlineERSoRbm
FN:4585,4586,_ZN5Catch16JsonObjectWriterC2ERSo
FN:4588,4592,_ZN5Catch16JsonObjectWriterC2ERSom
FN:4593,4599,_ZN5Catch16JsonObjectWriterC2EOS0_
FN:46,46,_ZN5Catch9Benchmark6Detail18ChronometerConceptD0Ev
FN:46,46,_ZN5Catch9Benchmark6Detail18ChronometerConceptD2Ev
FN:4601,4607,_ZN5Catch16JsonObjectWriterD2Ev
FN:4609,4615,_ZN5Catch16JsonObjectWriter5writeENS_9StringRefE
FN:4617,4618,_ZN5Catch15JsonArrayWriterC2ERSo
FN:4619,4623,_ZN5Catch15JsonArrayWriterC2ERSom
FN:4624,4630,_ZN5Catch15JsonArrayWriterC2EOS0_
FN:4631,4637,_ZN5Catch15JsonArrayWriterD2Ev
FN:4639,4643,_ZN5Catch15JsonArrayWriter11writeObjectEv
FN:4645,4649,_ZN5Catch15JsonArrayWriter10writeArrayEv
FN:4651,4653,_ZN5Catch15JsonArrayWriter5writeEb
FN:4655,4656,_ZN5Catch15JsonValueWriterC2ERSo
FN:4658,4660,_ZN5Catch15JsonValueWriterC2ERSom
FN:4662,4664,_ZNO5Catch15JsonValueWriter11writeObjectEv
FN:4666,4668,_ZNO5Catch15JsonValueWriter10writeArrayEv
FN:4670,4672,_ZNO5Catch15JsonValueWriter5writeENS_9StringRefE
FN:4674,4676,_ZNO5Catch15JsonValueWriter5writeEb
FN:4678,4694,_ZN5Catch15JsonValueWriter9writeImplENS_9StringRefEb
FN:4703,4716,_ZN5CatchlsERSoRKNS_14LazyExpressionE
FN:4742,4742,_ZN5Catch12LeakDetectorC2Ev
FN:4746,4748,_ZN5Catch12LeakDetectorD2Ev
FN:4756,4760,_ZN5Catch12_GLOBAL__N_19listTestsERNS_14IEventListenerERKNS_7IConfigE
FN:476,476,_ZZN5Catch9Benchmark6Detail9bootstrapEdPdS2_RKSt6vectorIdSaIdEEPFdPKdS9_EENKUldE_clEd
FN:4762,4782,_ZN5Catch12_GLOBAL__N_18listTagsERNS_14IEventListenerERKNS_7IConfigE
FN:4784,4794,_ZN5Catch12_GLOBAL__N_113listReportersERNS_14IEventListenerE
FN:4796,4807,_ZN5Catch12_GLOBAL__N_113listListenersERNS_14IEventListenerE
FN:4811,4814,_ZN5Catch7TagInfo3addENS_9StringRefE
FN:4816,4830,_ZNK5Catch7TagInfo3allB5cxx11Ev
FN:4832,4851,_ZN5Catch4listERNS_14IEventListenerERKNS_6ConfigE
FN:486,489,_ZZN5Catch9Benchmark6Detail9bootstrapEdPdS2_RKSt6vectorIdSaIdEEPFdPKdS9_EENKUldE0_clEd
FN:4872,4880,main
FN:4889,4896,_ZN5Catch11MessageInfoC2ENS_9StringRefERKNS_14SourceLineInfoENS_9ResultWas6OfTypeE
FN:490,492,_ZZN5Catch9Benchmark6Detail9bootstrapEdPdS2_RKSt6vectorIdSaIdEEPFdPKdS9_EENKUldE1_clEd
FN:4928,4928,_ZN5Catch12_GLOBAL__N_112NoopRedirect12activateImplEv
FN:4929,4929,_ZN5Catch12_GLOBAL__N_112NoopRedirect14deactivateImplEv
FN:4930,4930,_ZN5Catch12_GLOBAL__N_112NoopRedirect9getStdoutEv
FN:4931,4931,_ZN5Catch12_GLOBAL__N_112NoopRedirect9getStderrEv
FN:4932,4932,_ZN5Catch12_GLOBAL__N_112NoopRedirect12clearBuffersEv
FN:4948,4952,_ZN5Catch12_GLOBAL__N_119RedirectedStreamNewC2ERSoS2_
FN:4954,4956,_ZN5Catch12_GLOBAL__N_119RedirectedStreamNew13startRedirectEv
FN:4957,4957,_ZN5Catch12_GLOBAL__N_119RedirectedStreamNew12stopRedirectEv
FN:4969,4972,_ZN5Catch12_GLOBAL__N_114StreamRedirectC2Ev
FN:4974,4978,_ZN5Catch12_GLOBAL__N_114StreamRedirect12activateImplEv
FN:4979,4983,_ZN5Catch12_GLOBAL__N_114StreamRedirect14deactivateImplEv
FN:4984,4984,_ZN5Catch12_GLOBAL__N_114StreamRedirect9getStdoutEv
FN:4985,4985,_ZN5Catch12_GLOBAL__N_114StreamRedirect9getStderrEv
FN:4986,4989,_ZN5Catch12_GLOBAL__N_114StreamRedirect12clearBuffersEv
FN:504,544,_ZN5Catch9Benchmark6Detail15analyse_samplesEdjPdS2_
FN:5140,5153,_ZN5Catch19isRedirectAvailableENS_14OutputRedirect4KindE
FN:5155,5166,_ZN5Catch18makeOutputRedirectEb
FN:5168,5170,_ZN5Catch14scopedActivateERNS_14OutputRedirectE
FN:5172,5174,_ZN5Catch16scopedDeactivateERNS_14OutputRedirectE
FN:5176,5176,_ZN5Catch14OutputRedirectD0Ev
FN:5176,5176,_ZN5Catch14OutputRedirectD2Ev
FN:5178,5191,_ZN5Catch13RedirectGuardC2EbRNS_14OutputRedirectE
FN:5193,5203,_ZN5Catch13RedirectGuardD2Ev
FN:5205,5211,_ZN5Catch13RedirectGuardC2EOS0_
FN:5213,5220,_ZN5Catch13RedirectGuardaSEOS0_
FN:5240,5272,_ZN5Catch9parseUIntERKNSt7__cxx1112basic_stringIcSt11char_traitsIcESaIcEEEi
FN:528,534,_ZZN5Catch9Benchmark6Detail15analyse_samplesEdjPdS2_ENKUlPFdPKdS4_EE_clES6_
FN:5284,5286,_ZN5Catch5isnanEf
FN:5287,5289,_ZN5Catch5isnanEd
FN:5304,5304,_ZN5Catch9nextafterEff
FN:5305,5305,_ZN5Catch9nextafterEdd
FN:5328,5332,_ZN5Catch12_GLOBAL__N_112rotate_rightEjj
FN:5341,5343,_ZN5Catch11SimplePcg32C2Ej
FN:5346,5351,_ZN5Catch11SimplePcg324seedEj
FN:5353,5359,_ZN5Catch11SimplePcg327discardEm
FN:5362,5371,_ZN5Catch11SimplePcg32clEv
FN:5373,5375,_ZN5CatcheqERKNS_11SimplePcg32ES2_
FN:5377,5379,_ZN5CatchneERKNS_11SimplePcg32ES2_
FN:5391,5405,_ZN5Catch18generateRandomSeedENS_12GenerateFromE
FN:5419,5441,_ZN5Catch16ReporterRegistryC2Ev
FN:5443,5443,_ZN5Catch16ReporterRegistryD2Ev
FN:5446,5451,_ZNK5Catch16ReporterRegistry6createERKNSt7__cxx1112basic_stringIcSt11char_traitsIcESaIcEEEONS_14ReporterConfigE
FN:5453,5462,_ZN5Catch16ReporterRegistry16registerReporterERKNSt7__cxx1112basic_stringIcSt11char_traitsIcESaIcEEENS_6Detail10unique_ptrINS_16IReporterFactoryEEE
FN:5463,5466,_ZN5Catch16ReporterRegistry16registerListenerENS_6Detail10unique_ptrINS_20EventListenerFactoryEEE
FN:5471,5473,_ZNK5Catch16ReporterRegistry12getFactoriesB5cxx11Ev
FN:5476,5478,_ZNK5Catch16ReporterRegistry12getListenersEv
FN:5494,5501,_ZN5Catch12_GLOBAL__N_111splitKVPairENS_9StringRefE
FN:5505,5552,_ZN5Catch6Detail17splitReporterSpecB5cxx11ENS_9StringRefE
FN:5510,5529,_ZZN5Catch6Detail17splitReporterSpecB5cxx11ENS_9StringRefEENKUlmE_clEm
FN:5554,5566,_ZN5Catch6Detail18stringToColourModeENS_9StringRefE
FN:5570,5575,_ZN5CatcheqERKNS_12ReporterSpecES2_
FN:5577,5632,_ZN5Catch17parseReporterSpecENS_9StringRefE
FN:558,560,_ZN12_GLOBAL__N_116marginComparisonEddd
FN:5634,5642,_ZN5Catch12ReporterSpecC2ENSt7__cxx1112basic_stringIcSt11char_traitsIcESaIcEEENS_8OptionalIS6_EENS7_INS_10ColourModeEEESt3mapIS6_S6_St4lessIS6_ESaISt4pairIKS6_S6_EEE
FN:566,571,_ZN5Catch6ApproxC2Ed
FN:5662,5673,_ZN5Catch13StringStreams3addB5cxx11Ev
FN:5675,5682,_ZN5Catch13StringStreams7releaseEmPSo
FN:5685,5688,_ZN5Catch20ReusableStringStreamC2Ev
FN:5690,5694,_ZN5Catch20ReusableStringStreamD2Ev
FN:5696,5698,_ZNK5Catch20ReusableStringStream3strB5cxx11Ev
FN:5700,5702,_ZN5Catch20ReusableStringStream3strERKNSt7__cxx1112basic_stringIcSt11char_traitsIcESaIcEEE
FN:5721,5725,_ZN5Catch10Generators12_GLOBAL__N_116GeneratorTrackerC2EONS_16TestCaseTracking15NameAndLocationERNS3_14TrackerContextEPNS3_8ITrackerE
FN:5728,5765,_ZN5Catch10Generators12_GLOBAL__N_116GeneratorTracker7acquireERNS_16TestCaseTracking14TrackerContextERKNS3_18NameAndLocationRefE
FN:573,575,_ZN5Catch6Approx6customEv
FN:5768,5768,_ZNK5Catch10Generators12_GLOBAL__N_116GeneratorTracker18isGeneratorTrackerEv
FN:5769,5771,_ZNK5Catch10Generators12_GLOBAL__N_116GeneratorTracker12hasGeneratorEv
FN:577,581,_ZNK5Catch6ApproxngEv
FN:5772,5840,_ZN5Catch10Generators12_GLOBAL__N_116GeneratorTracker5closeEv
FN:5782,5827,_ZZN5Catch10Generators12_GLOBAL__N_116GeneratorTracker5closeEvENKUlvE_clEv
FN:5789,5792,_ZZZN5Catch10Generators12_GLOBAL__N_116GeneratorTracker5closeEvENKUlvE_clEvENKUlRKNS_6Detail10unique_ptrINS_16TestCaseTracking8ITrackerEEEE_clESA_
FN:584,588,_ZNK5Catch6Approx8toStringB5cxx11Ev
FN:5843,5845,_ZNK5Catch10Generators12_GLOBAL__N_116GeneratorTracker12getGeneratorEv
FN:5846,5848,_ZN5Catch10Generators12_GLOBAL__N_116GeneratorTracker12setGeneratorEONS_6Detail10unique_ptrINS0_20GeneratorUntypedBaseEEE
FN:5890,5902,_ZN5Catch10RunContextC2EPKNS_7IConfigEONS_6Detail10unique_ptrINS_14IEventListenerEEE
FN:590,595,_ZNK5Catch6Approx22equalityComparisonImplEd
FN:5904,5907,_ZN5Catch10RunContextD0Ev
FN:5904,5907,_ZN5Catch10RunContextD2Ev
FN:5909,6000,_ZN5Catch10RunContext7runTestERKNS_14TestCaseHandleE
FN:597,602,_ZN5Catch6Approx9setMarginEd
FN:60,120,_ZN5Catch9Benchmark6Detail7analyseERKNS_7IConfigEPNSt6chrono8durationIdSt5ratioILl1ELl1000000000EEEESA_
FN:6003,6044,_ZN5Catch10RunContext14assertionEndedEONS_15AssertionResultE
FN:604,609,_ZN5Catch6Approx10setEpsilonEd
FN:6046,6052,_ZN5Catch10RunContext22notifyAssertionStartedERKNS_13AssertionInfoE
FN:6054,6078,_ZN5Catch10RunContext14sectionStartedENS_9StringRefERKNS_14SourceLineInfoERNS_6CountsE
FN:6080,6088,_ZN5Catch10RunContext23acquireGeneratorTrackerENS_9StringRefERKNS_14SourceLineInfoE
FN:6090,6109,_ZN5Catch10RunContext22createGeneratorTrackerENS_9StringRefENS_14SourceLineInfoEONS_6Detail10unique_ptrINS_10Generators20GeneratorUntypedBaseEEE
FN:6111,6121,_ZN5Catch10RunContext24testForMissingAssertionsERNS_6CountsE
FN:612,614,_ZN5Catch8literalsli2_aEe
FN:6123,6141,_ZN5Catch10RunContext12sectionEndedEONS_14SectionEndInfoE
FN:6143,6152,_ZN5Catch10RunContext17sectionEndedEarlyEONS_14SectionEndInfoE
FN:615,617,_ZN5Catch8literalsli2_aEy
FN:6154,6157,_ZN5Catch10RunContext18benchmarkPreparingENS_9StringRefE
FN:6158,6161,_ZN5Catch10RunContext17benchmarkStartingERKNS_13BenchmarkInfoE
FN:6162,6165,_ZN5Catch10RunContext14benchmarkEndedERKNS_14BenchmarkStatsINSt6chrono8durationIdSt5ratioILl1ELl1000000000EEEEEE
FN:6166,6169,_ZN5Catch10RunContext15benchmarkFailedENS_9StringRefE
FN:6171,6175,_ZNK5Catch10RunContext18getCurrentTestNameB5cxx11Ev
FN:6177,6191,_ZNK5Catch10RunContext13getLastResultEv
FN:6193,6195,_ZN5Catch10RunContext22exceptionEarlyReportedEv
FN:6197,6262,_ZN5Catch10RunContext25handleFatalErrorConditionENS_9StringRefE
FN:620,622,_ZN5Catch11StringMakerINS_6ApproxEvE7convertB5cxx11ERKS1_
FN:6264,6266,_ZN5Catch10RunContext19lastAssertionPassedEv
FN:6268,6274,_ZN5Catch10RunContext23assertionPassedFastPathENS_14SourceLineInfoE
FN:6276,6283,_ZN5Catch10RunContext23updateTotalsFromAtomicsEv
FN:6285,6287,_ZNK5Catch10RunContext8abortingEv
FN:6289,6334,_ZN5Catch10RunContext14runCurrentTestEv
FN:630,632,_ZN5Catch19AssertionResultDataC2ENS_9ResultWas6OfTypeERKNS_14LazyExpressionE
FN:6336,6347,_ZN5Catch10RunContext20invokeActiveTestCaseEv
FN:634,644,_ZNK5Catch19AssertionResultData21reconstructExpressionB5cxx11Ev
FN:6349,6359,_ZN5Catch10RunContext24handleUnfinishedSectionsEv
FN:6361,6382,_ZN5Catch10RunContext10handleExprERKNS_13AssertionInfoERKNS_20ITransientExpressionERNS_17AssertionReactionE
FN:6383,6396,_ZN5Catch10RunContext10reportExprERKNS_13AssertionInfoENS_9ResultWas6OfTypeEPKNS_20ITransientExpressionEb
FN:6398,6421,_ZN5Catch10RunContext13handleMessageERKNS_13AssertionInfoENS_9ResultWas6OfTypeEONSt7__cxx1112basic_stringIcSt11char_traitsIcESaIcEEERNS_17AssertionReactionE
FN:6423,6428,_ZN5Catch10RunContext34handleUnexpectedExceptionNotThrownERKNS_13AssertionInfoERNS_17AssertionReactionE
FN:6430,6443,_ZN5Catch10RunContext33handleUnexpectedInflightExceptionERKNS_13AssertionInfoEONSt7__cxx1112basic_stringIcSt11char_traitsIcESaIcEEERNS_17AssertionReactionE
FN:6445,6449,_ZN5Catch10RunContext16populateReactionERNS_17AssertionReactionEb
FN:6451,6462,_ZN5Catch10RunContext22makeDummyAssertionInfoEv
FN:646,649,_ZN5Catch15AssertionResultC2ERKNS_13AssertionInfoEONS_19AssertionResultDataE
FN:6464,6474,_ZN5Catch10RunContext16handleIncompleteERKNS_13AssertionInfoE
FN:6476,6495,_ZN5Catch10RunContext13handleNonExprERKNS_13AssertionInfoENS_9ResultWas6OfTypeERNS_17AssertionReactionE
FN:6497,6499,_ZN5Catch14IResultCapture17pushScopedMessageEONS_11MessageInfoE
FN:6501,6513,_ZN5Catch14IResultCapture16popScopedMessageEj
FN:6509,6512,_ZZN5Catch14IResultCapture16popScopedMessageEjENKUlRKNS_11MessageInfoEE_clES3_
FN:6515,6517,_ZN5Catch14IResultCapture22emplaceUnscopedMessageEONS_14MessageBuilderE
FN:6519,6521,_ZN5Catch7seedRngERKNS_7IConfigE
FN:652,654,_ZNK5Catch15AssertionResult9succeededEv
FN:6523,6525,_ZN5Catch7rngSeedEv
FN:6533,6542,_ZN5Catch7SectionC2EONS_11SectionInfoE
FN:6544,6559,_ZN5Catch7SectionC2ERKNS_14SourceLineInfoENS_9StringRefEPKc
FN:6561,6570,_ZN5Catch7SectionD2Ev
FN:657,659,_ZNK5Catch15AssertionResult4isOkEv
FN:6573,6575,_ZNK5Catch7SectioncvbEv
FN:6587,6592,_ZN5Catch12_GLOBAL__N_1L13getSingletonsEv
FN:6595,6595,_ZN5Catch10ISingletonD0Ev
FN:6595,6595,_ZN5Catch10ISingletonD2Ev
FN:6597,6599,_ZN5Catch12addSingletonEPNS_10ISingletonE
FN:6600,6606,_ZN5Catch17cleanupSingletonsEv
FN:661,663,_ZNK5Catch15AssertionResult13getResultTypeEv
FN:6617,6619,_ZNK5Catch14SourceLineInfoeqERKS0_
FN:6620,6624,_ZNK5Catch14SourceLineInfoltERKS0_
FN:6626,6633,_ZN5CatchlsERSoRKNS_14SourceLineInfoE
FN:6642,6649,_ZN5Catch24StartupExceptionRegistry3addERKNSt15__exception_ptr13exception_ptrE
FN:665,667,_ZNK5Catch15AssertionResult13hasExpressionEv
FN:6651,6653,_ZNK5Catch24StartupExceptionRegistry13getExceptionsEv
FN:6668,6668,_ZN5Catch4coutEv
FN:6669,6669,_ZN5Catch4cerrEv
FN:6670,6670,_ZN5Catch4clogEv
FN:6684,6686,_ZN5Catch10startsWithERKNSt7__cxx1112basic_stringIcSt11char_traitsIcESaIcEEES7_
FN:6687,6689,_ZN5Catch10startsWithENS_9StringRefEc
FN:669,671,_ZNK5Catch15AssertionResult10hasMessageEv
FN:6690,6692,_ZN5Catch8endsWithERKNSt7__cxx1112basic_stringIcSt11char_traitsIcESaIcEEES7_
FN:6693,6695,_ZN5Catch8endsWithERKNSt7__cxx1112basic_stringIcSt11char_traitsIcESaIcEEEc
FN:6696,6698,_ZN5Catch8containsERKNSt7__cxx1112basic_stringIcSt11char_traitsIcESaIcEEES7_
FN:6699,6703,_ZN5Catch14toLowerInPlaceERNSt7__cxx1112basic_stringIcSt11char_traitsIcESaIcEEE
FN:6704,6708,_ZN5Catch7toLowerERKNSt7__cxx1112basic_stringIcSt11char_traitsIcESaIcEEE
FN:6709,6711,_ZN5Catch7toLowerEc
FN:6713,6719,_ZN5Catch4trimERKNSt7__cxx1112basic_stringIcSt11char_traitsIcESaIcEEE
FN:6721,6731,_ZN5Catch4trimENS_9StringRefE
FN:6722,6724,_ZZN5Catch4trimENS_9StringRefEENKUlcE_clEc
FN:673,684,_ZNK5Catch15AssertionResult13getExpressionB5cxx11Ev
FN:6733,6757,_ZN5Catch14replaceInPlaceERNSt7__cxx1112basic_stringIcSt11char_traitsIcESaIcEEERKS5_S8_
FN:6759,6772,_ZN5Catch14splitStringRefENS_9StringRefEc
FN:6774,6779,_ZN5CatchlsERSoRKNS_9pluraliseE
FN:6790,6792,_ZN5Catch9StringRefC2EPKc
FN:6795,6800,_ZNK5Catch9StringRefltES0_
FN:6802,6821,_ZNK5Catch9StringRef7compareES0_
FN:6823,6825,_ZN5CatchlsERSoNS_9StringRefE
FN:6827,6833,_ZN5CatchplB5cxx11ENS_9StringRefES0_
FN:6835,6838,_ZN5CatchpLERNSt7__cxx1112basic_stringIcSt11char_traitsIcESaIcEEENS_9StringRefE
FN:6846,6846,_ZN5Catch16TagAliasRegistryD0Ev
FN:6846,6846,_ZN5Catch16TagAliasRegistryD2Ev
FN:6848,6854,_ZNK5Catch16TagAliasRegistry4findERKNSt7__cxx1112basic_stringIcSt11char_traitsIcESaIcEEE
FN:6856,6867,_ZNK5Catch16TagAliasRegistry13expandAliasesERKNSt7__cxx1112basic_stringIcSt11char_traitsIcESaIcEEE
FN:686,697,_ZNK5Catch15AssertionResult20getExpressionInMacroB5cxx11Ev
FN:6869,6877,_ZN5Catch16TagAliasRegistry3addERKNSt7__cxx1112basic_stringIcSt11char_traitsIcESaIcEEES8_RKNS_14SourceLineInfoE
FN:6879,6879,_ZN5Catch17ITagAliasRegistryD0Ev
FN:6879,6879,_ZN5Catch17ITagAliasRegistryD2Ev
FN:6881,6883,_ZN5Catch17ITagAliasRegistry3getEv
FN:6891,6891,_ZN5Catch18TestCaseInfoHasherC2Em
FN:6893,6916,_ZNK5Catch18TestCaseInfoHasherclERKNS_12TestCaseInfoE
FN:6928,6948,_ZN5Catch12_GLOBAL__N_1L27enforceNoDuplicateTestCasesERKSt6vectorINS_14TestCaseHandleESaIS2_EE
FN:6930,6933,_ZZN5Catch12_GLOBAL__N_1L27enforceNoDuplicateTestCasesERKSt6vectorINS_14TestCaseHandleESaIS2_EEENKUlPKNS_12TestCaseInfoES9_E_clES9_S9_
FN:6950,6955,_ZN5Catch12_GLOBAL__N_1L9matchTestERKNS_14TestCaseHandleERKNS_8TestSpecERKNS_7IConfigE
FN:6959,7008,_ZN5Catch9sortTestsERKNS_7IConfigERKSt6vectorINS_14TestCaseHandleESaIS4_EE
FN:6969,6971,_ZZN5Catch9sortTestsERKNS_7IConfigERKSt6vectorINS_14TestCaseHandleESaIS4_EEENKUlRKS4_SA_E_clESA_SA_
FN:6988,6994,_ZZN5Catch9sortTestsERKNS_7IConfigERKSt6vectorINS_14TestCaseHandleESaIS4_EEENKUlRKSt4pairImS4_ESC_E_clESC_SC_
FN:699,701,_ZNK5Catch15AssertionResult21hasExpandedExpressionEv
FN:7010,7012,_ZN5Catch11isThrowSafeERKNS_14TestCaseHandleERKNS_7IConfigE
FN:7014,7024,_ZN5Catch11filterTestsERKSt6vectorINS_14TestCaseHandleESaIS1_EERKNS_8TestSpecERKNS_7IConfigE
FN:7025,7027,_ZN5Catch21getAllTestCasesSortedERKNS_7IConfigE
FN:7029,7029,_ZN5Catch12TestRegistryD0Ev
FN:7029,7029,_ZN5Catch12TestRegistryD2Ev
FN:703,708,_ZNK5Catch15AssertionResult21getExpandedExpressionB5cxx11Ev
FN:7031,7036,_ZN5Catch12TestRegistry12registerTestENS_6Detail10unique_ptrINS_12TestCaseInfoEEENS2_INS_12ITestInvokerEEE
FN:7038,7040,_ZNK5Catch12TestRegistry11getAllInfosEv
FN:7042,7044,_ZNK5Catch12TestRegistry11getAllTestsEv
FN:7045,7054,_ZNK5Catch12TestRegistry17getAllTestsSortedERKNS_7IConfigE
FN:7072,7075,_ZN5Catch16TestCaseTracking15NameAndLocationC2EONSt7__cxx1112basic_stringIcSt11char_traitsIcESaIcEEERKNS_14SourceLineInfoE
FN:7078,7078,_ZN5Catch16TestCaseTracking8ITrackerD0Ev
FN:7078,7078,_ZN5Catch16TestCaseTracking8ITrackerD2Ev
FN:7080,7082,_ZN5Catch16TestCaseTracking8ITracker23markAsNeedingAnotherRunEv
FN:7084,7086,_ZN5Catch16TestCaseTracking8ITracker8addChildEONS_6Detail10unique_ptrIS1_EE
FN:7088,7101,_ZN5Catch16TestCaseTracking8ITracker9findChildERKNS0_18NameAndLocationRefE
FN:7092,7099,_ZZN5Catch16TestCaseTracking8ITracker9findChildERKNS0_18NameAndLocationRefEENKUlRKNS_6Detail10unique_ptrIS1_EEE_clES9_
FN:710,712,_ZNK5Catch15AssertionResult10getMessageEv
FN:7103,7103,_ZNK5Catch16TestCaseTracking8ITracker16isSectionTrackerEv
FN:7104,7104,_ZNK5Catch16TestCaseTracking8ITracker18isGeneratorTrackerEv
FN:7106,7108,_ZNK5Catch16TestCaseTracking8ITracker6isOpenEv
FN:7110,7110,_ZNK5Catch16TestCaseTracking8ITracker10hasStartedEv
FN:7112,7119,_ZN5Catch16TestCaseTracking8ITracker9openChildEv
FN:7121,7130,_ZN5Catch16TestCaseTracking14TrackerContext8startRunEv
FN:713,715,_ZNK5Catch15AssertionResult13getSourceInfoEv
FN:7132,7134,_ZN5Catch16TestCaseTracking14TrackerContext13completeCycleEv
FN:7136,7138,_ZNK5Catch16TestCaseTracking14TrackerContext14completedCycleEv
FN:7139,7141,_ZN5Catch16TestCaseTracking14TrackerContext17setCurrentTrackerEPNS0_8ITrackerE
FN:7144,7147,_ZN5Catch16TestCaseTracking11TrackerBaseC2EONS0_15NameAndLocationERNS0_14TrackerContextEPNS0_8ITrackerE
FN:7149,7151,_ZNK5Catch16TestCaseTracking11TrackerBase10isCompleteEv
FN:7153,7158,_ZN5Catch16TestCaseTracking11TrackerBase4openEv
FN:7160,7188,_ZN5Catch16TestCaseTracking11TrackerBase5closeEv
FN:717,719,_ZNK5Catch15AssertionResult16getTestMacroNameEv
FN:7174,7174,_ZZN5Catch16TestCaseTracking11TrackerBase5closeEvENKUlRKNS_6Detail10unique_ptrINS0_8ITrackerEEEE_clES7_
FN:7189,7195,_ZN5Catch16TestCaseTracking11TrackerBase4failEv
FN:7197,7200,_ZN5Catch16TestCaseTracking11TrackerBase12moveToParentEv
FN:7201,7203,_ZN5Catch16TestCaseTracking11TrackerBase10moveToThisEv
FN:7205,7217,_ZN5Catch16TestCaseTracking14SectionTrackerC2EONS0_15NameAndLocationERNS0_14TrackerContextEPNS0_8ITrackerE
FN:7219,7228,_ZNK5Catch16TestCaseTracking14SectionTracker10isCompleteEv
FN:7230,7230,_ZNK5Catch16TestCaseTracking14SectionTracker16isSectionTrackerEv
FN:7232,7256,_ZN5Catch16TestCaseTracking14SectionTracker7acquireERNS0_14TrackerContextERKNS0_18NameAndLocationRefE
FN:7258,7261,_ZN5Catch16TestCaseTracking14SectionTracker7tryOpenEv
FN:7263,7270,_ZN5Catch16TestCaseTracking14SectionTracker17addInitialFiltersERKSt6vectorINSt7__cxx1112basic_stringIcSt11char_traitsIcESaIcEEESaIS8_EE
FN:7271,7274,_ZN5Catch16TestCaseTracking14SectionTracker14addNextFiltersERKSt6vectorINS_9StringRefESaIS3_EE
FN:7276,7278,_ZNK5Catch16TestCaseTracking14SectionTracker11trimmedNameEv
FN:7293,7299,_ZN5Catch28throw_test_failure_exceptionEv
FN:730,736,_ZN5Catch12_GLOBAL__N_1L21enableBazelEnvSupportEv
FN:7301,7307,_ZN5Catch25throw_test_skip_exceptionEv
FN:7317,7317,_ZN5Catch12ITestInvoker15prepareTestCaseEv
FN:7318,7318,_ZN5Catch12ITestInvoker16tearDownTestCaseEv
FN:7319,7319,_ZN5Catch12ITestInvokerD0Ev
FN:7319,7319,_ZN5Catch12ITestInvokerD2Ev
FN:7322,7348,_ZN5Catch12_GLOBAL__N_1L16extractClassNameENS_9StringRefE
FN:7355,7356,_ZN5Catch12_GLOBAL__N_121TestInvokerAsFunctionC2EPFvvE
FN:7358,7358,_ZNK5Catch12_GLOBAL__N_121TestInvokerAsFunction6invokeEv
FN:7363,7365,_ZN5Catch15makeTestInvokerEPFvvE
FN:7367,7381,_ZN5Catch7AutoRegC2ENS_6Detail10unique_ptrINS_12ITestInvokerEEERKNS_14SourceLineInfoENS_9StringRefERKNS_11NameAndTagsE
FN:7390,7390,_ZN5Catch14TestSpecParserC2ERKNS_17ITagAliasRegistryE
FN:7392,7409,_ZN5Catch14TestSpecParser5parseERKNSt7__cxx1112basic_stringIcSt11char_traitsIcESaIcEEE
FN:7410,7413,_ZN5Catch14TestSpecParser8testSpecEv
FN:7414,7449,_ZN5Catch14TestSpecParser9visitCharEc
FN:743,789,_ZN5Catch12_GLOBAL__N_1L24readBazelShardingOptionsEv
FN:7452,7469,_ZN5Catch14TestSpecParser15processNoneCharEc
FN:7470,7478,_ZN5Catch14TestSpecParser15processNameCharEc
FN:7479,7485,_ZN5Catch14TestSpecParser16processOtherCharEc
FN:7486,7488,_ZN5Catch14TestSpecParser12startNewModeENS0_4ModeE
FN:7489,7503,_ZN5Catch14TestSpecParser7endModeEv
FN:7504,7508,_ZN5Catch14TestSpecParser6escapeEv
FN:7509,7524,_ZNK5Catch14TestSpecParser13isControlCharEc
FN:7526,7531,_ZN5Catch14TestSpecParser9addFilterEv
FN:7533,7535,_ZN5Catch14TestSpecParser12saveLastModeEv
FN:7537,7539,_ZN5Catch14TestSpecParser20revertBackToLastModeEv
FN:754,758,_ZZN5Catch12_GLOBAL__N_1L24readBazelShardingOptionsEvENKUlPKcE_clES2_
FN:7541,7554,_ZN5Catch14TestSpecParser8separateEv
FN:7556,7570,_ZN5Catch14TestSpecParser17preprocessPatternB5cxx11Ev
FN:7572,7585,_ZN5Catch14TestSpecParser14addNamePatternEv
FN:7587,7610,_ZN5Catch14TestSpecParser13addTagPatternEv
FN:76,83,_ZZN5Catch9Benchmark6Detail7analyseERKNS_7IConfigEPNSt6chrono8durationIdSt5ratioILl1ELl1000000000EEEESA_ENKUlNS0_8EstimateIdEEE_clESC_
FN:7621,7623,_ZN12_GLOBAL__N_112isWhitespaceEc
FN:7625,7628,_ZN12_GLOBAL__N_117isBreakableBeforeEc
FN:7630,7633,_ZN12_GLOBAL__N_116isBreakableAfterEc
FN:7639,7663,_ZN5Catch8TextFlow18AnsiSkippingString16preprocessStringEv
FN:7665,7668,_ZN5Catch8TextFlow18AnsiSkippingStringC2ERKNSt7__cxx1112basic_stringIcSt11char_traitsIcESaIcEEE
FN:7670,7673,_ZN5Catch8TextFlow18AnsiSkippingStringC2EONSt7__cxx1112basic_stringIcSt11char_traitsIcESaIcEEE
FN:7675,7677,_ZNK5Catch8TextFlow18AnsiSkippingString5beginEv
FN:7679,7681,_ZNK5Catch8TextFlow18AnsiSkippingString3endEv
FN:7683,7698,_ZNK5Catch8TextFlow18AnsiSkippingString9substringB5cxx11ENS1_14const_iteratorES2_
FN:7694,7696,_ZZNK5Catch8TextFlow18AnsiSkippingString9substringB5cxx11ENS1_14const_iteratorES2_ENKUlcE_clEc
FN:7700,7718,_ZN5Catch8TextFlow18AnsiSkippingString14const_iterator19tryParseAnsiEscapesEv
FN:7720,7724,_ZN5Catch8TextFlow18AnsiSkippingString14const_iterator7advanceEv
FN:7726,7742,_ZN5Catch8TextFlow18AnsiSkippingString14const_iterator9unadvanceEv
FN:7744,7751,_ZN5Catch8TextFlowL10isBoundaryERKNS0_18AnsiSkippingStringENS1_14const_iteratorE
FN:7753,7802,_ZN5Catch8TextFlow6Column14const_iterator10calcLengthEv
FN:7804,7809,_ZNK5Catch8TextFlow6Column14const_iterator10indentSizeEv
FN:7811,7823,_ZNK5Catch8TextFlow6Column14const_iterator18addIndentAndSuffixB5cxx11ENS0_18AnsiSkippingString14const_iteratorES4_
FN:7825,7837,_ZN5Catch8TextFlow6Column14const_iteratorC2ERKS1_
FN:7839,7842,_ZNK5Catch8TextFlow6Column14const_iteratordeB5cxx11Ev
FN:7844,7858,_ZN5Catch8TextFlow6Column14const_iteratorppEv
FN:7860,7864,_ZN5Catch8TextFlow6Column14const_iteratorppEi
FN:7866,7877,_ZN5Catch8TextFlowlsERSoRKNS0_6ColumnE
FN:7879,7883,_ZN5Catch8TextFlow6SpacerEm
FN:7885,7892,_ZN5Catch8TextFlow7Columns8iteratorC2ERKS1_NS2_6EndTagE
FN:7894,7902,_ZN5Catch8TextFlow7Columns8iteratorC2ERKS1_
FN:7904,7923,_ZNK5Catch8TextFlow7Columns8iteratordeB5cxx11Ev
FN:7925,7932,_ZN5Catch8TextFlow7Columns8iteratorppEv
FN:793,799,_ZN5CatcheqERKNS_21ProcessedReporterSpecES2_
FN:7934,7938,_ZN5Catch8TextFlow7Columns8iteratorppEi
FN:7940,7951,_ZN5Catch8TextFlowlsERSoRKNS0_7ColumnsE
FN:7953,7958,_ZN5Catch8TextFlowplERKNS0_6ColumnES3_
FN:7959,7964,_ZN5Catch8TextFlowplEONS0_6ColumnES2_
FN:7966,7969,_ZN5Catch8TextFlowpLERNS0_7ColumnsERKNS0_6ColumnE
FN:7970,7973,_ZN5Catch8TextFlowpLERNS0_7ColumnsEONS0_6ColumnE
FN:7974,7978,_ZN5Catch8TextFlowplERKNS0_7ColumnsERKNS0_6ColumnE
FN:7979,7982,_ZN5Catch8TextFlowplEONS0_7ColumnsEONS0_6ColumnE
FN:7993,8001,_ZN5Catch19uncaught_exceptionsEv
FN:8008,8021,_ZN5Catch15WildcardPatternC2ERKNSt7__cxx1112basic_stringIcSt11char_traitsIcESaIcEEENS_13CaseSensitiveE
FN:801,867,_ZN5Catch6ConfigC2ERKNS_10ConfigDataE
FN:8023,8036,_ZNK5Catch15WildcardPattern7matchesERKNSt7__cxx1112basic_stringIcSt11char_traitsIcESaIcEEE
FN:8038,8040,_ZNK5Catch15WildcardPattern15normaliseStringERKNSt7__cxx1112basic_stringIcSt11char_traitsIcESaIcEEE
FN:8056,8067,_ZN5Catch12_GLOBAL__N_113trailingBytesEh
FN:8069,8080,_ZN5Catch12_GLOBAL__N_111headerValueEh
FN:8082,8088,_ZN5Catch12_GLOBAL__N_113hexEscapeCharERSoh
FN:8090,8092,_ZN5Catch12_GLOBAL__N_113shouldNewlineENS_13XmlFormattingE
FN:8094,8096,_ZN5Catch12_GLOBAL__N_112shouldIndentENS_13XmlFormattingE
FN:8100,8208,_ZNK5Catch9XmlEncode8encodeToERSo
FN:8104,8109,_ZZNK5Catch9XmlEncode8encodeToERSoENKUlmE_clEm
FN:8210,8213,_ZN5CatchlsERSoRKNS_9XmlEncodeE
FN:8215,8218,_ZN5Catch9XmlWriter13ScopedElementC2EPS0_NS_13XmlFormattingE
FN:8220,8226,_ZN5Catch9XmlWriter13ScopedElementC2EOS1_
FN:8227,8236,_ZN5Catch9XmlWriter13ScopedElementaSEOS1_
FN:8239,8243,_ZN5Catch9XmlWriter13ScopedElementD2Ev
FN:8246,8249,_ZN5Catch9XmlWriter13ScopedElement9writeTextENS_9StringRefENS_13XmlFormattingE
FN:8252,8256,_ZN5Catch9XmlWriter13ScopedElement14writeAttributeENS_9StringRefES2_
FN:8259,8262,_ZN5Catch9XmlWriterC2ERSo
FN:8264,8269,_ZN5Catch9XmlWriterD2Ev
FN:8271,8283,_ZN5Catch9XmlWriter12startElementERKNSt7__cxx1112basic_stringIcSt11char_traitsIcESaIcEEENS_13XmlFormattingE
FN:8285,8289,_ZN5Catch9XmlWriter13scopedElementERKNSt7__cxx1112basic_stringIcSt11char_traitsIcESaIcEEENS_13XmlFormattingE
FN:8291,8308,_ZN5Catch9XmlWriter10endElementENS_13XmlFormattingE
FN:8310,8315,_ZN5Catch9XmlWriter14writeAttributeENS_9StringRefES1_
FN:8317,8320,_ZN5Catch9XmlWriter14writeAttributeENS_9StringRefEb
FN:8322,8326,_ZN5Catch9XmlWriter14writeAttributeENS_9StringRefEPKc
FN:8328,8340,_ZN5Catch9XmlWriter9writeTextENS_9StringRefENS_13XmlFormattingE
FN:8342,8350,_ZN5Catch9XmlWriter12writeCommentENS_9StringRefENS_13XmlFormattingE
FN:8352,8354,_ZN5Catch9XmlWriter18writeStylesheetRefENS_9StringRefE
FN:8356,8362,_ZN5Catch9XmlWriter15ensureTagClosedEv
FN:8364,8366,_ZN5Catch9XmlWriter15applyFormattingENS_13XmlFormattingE
FN:8368,8370,_ZN5Catch9XmlWriter16writeDeclarationEv
FN:8372,8377,_ZN5Catch9XmlWriter18newlineIfNecessaryEv
FN:8387,8392,_ZNK5Catch8Matchers18MatcherUntypedBase8toStringB5cxx11Ev
FN:8394,8394,_ZN5Catch8Matchers18MatcherUntypedBaseD0Ev
FN:8394,8394,_ZN5Catch8Matchers18MatcherUntypedBaseD2Ev
FN:8405,8407,_ZNK5Catch8Matchers14IsEmptyMatcher8describeB5cxx11Ev
FN:8409,8413,_ZNK5Catch8Matchers14HasSizeMatcher8describeB5cxx11Ev
FN:8415,8417,_ZN5Catch8Matchers7IsEmptyEv
FN:8419,8421,_ZN5Catch8Matchers6SizeIsEm
FN:8431,8433,_ZNK5Catch8Matchers23ExceptionMessageMatcher5matchERKSt9exception
FN:8435,8437,_ZNK5Catch8Matchers23ExceptionMessageMatcher8describeB5cxx11Ev
FN:8439,8441,_ZN5Catch8Matchers7MessageERKNSt7__cxx1112basic_stringIcSt11char_traitsIcESaIcEEE
FN:8461,8472,_ZN5Catch12_GLOBAL__N_115almostEqualUlpsIdEEbT_S2_m
FN:8461,8472,_ZN5Catch12_GLOBAL__N_115almostEqualUlpsIfEEbT_S2_m
FN:8476,8481,_ZN5Catch12_GLOBAL__N_14stepIdEET_S2_S2_m
FN:8476,8481,_ZN5Catch12_GLOBAL__N_14stepIfEET_S2_S2_m
FN:8485,8487,_ZN5Catch12_GLOBAL__N_116marginComparisonEddd
FN:8490,8494,_ZN5Catch12_GLOBAL__N_15writeIdEEvRSoT_
FN:8490,8494,_ZN5Catch12_GLOBAL__N_15writeIfEEvRSoT_
FN:8509,8513,_ZN5Catch8Matchers16WithinAbsMatcherC2Edd
FN:8517,8519,_ZNK5Catch8Matchers16WithinAbsMatcher5matchERKd
FN:8521,8523,_ZNK5Catch8Matchers16WithinAbsMatcher8describeB5cxx11Ev
FN:8526,8534,_ZN5Catch8Matchers17WithinUlpsMatcherC2EdmNS0_6Detail17FloatingPointKindE
FN:8542,8551,_ZNK5Catch8Matchers17WithinUlpsMatcher5matchERKd
FN:8557,8595,_ZNK5Catch8Matchers17WithinUlpsMatcher8describeB5cxx11Ev
FN:8597,8602,_ZN5Catch8Matchers16WithinRelMatcherC2Edd
FN:8604,8608,_ZNK5Catch8Matchers16WithinRelMatcher5matchERKd
FN:8610,8614,_ZNK5Catch8Matchers16WithinRelMatcher8describeB5cxx11Ev
FN:8617,8619,_ZN5Catch8Matchers9WithinULPEdm
FN:8621,8623,_ZN5Catch8Matchers9WithinULPEfm
FN:8625,8627,_ZN5Catch8Matchers9WithinAbsEdd
FN:8629,8631,_ZN5Catch8Matchers9WithinRelEdd
FN:8633,8635,_ZN5Catch8Matchers9WithinRelEd
FN:8637,8639,_ZN5Catch8Matchers9WithinRelEff
FN:8641,8643,_ZN5Catch8Matchers9WithinRelEf
FN:8647,8649,_ZNK5Catch8Matchers12IsNaNMatcher5matchERKd
FN:8651,8654,_ZNK5Catch8Matchers12IsNaNMatcher8describeB5cxx11Ev
FN:8656,8656,_ZN5Catch8Matchers5IsNaNEv
FN:8664,8670,_ZN5Catch8Matchers6Detail19finalizeDescriptionERKNSt7__cxx1112basic_stringIcSt11char_traitsIcESaIcEEE
FN:8676,8676,_ZNK5Catch8Matchers14AllTrueMatcher8describeB5cxx11Ev
FN:8678,8678,_ZN5Catch8Matchers7AllTrueEv
FN:8680,8680,_ZNK5Catch8Matchers15NoneTrueMatcher8describeB5cxx11Ev
FN:8682,8682,_ZN5Catch8Matchers8NoneTrueEv
FN:8684,8684,_ZNK5Catch8Matchers14AnyTrueMatcher8describeB5cxx11Ev
FN:8686,8686,_ZN5Catch8Matchers7AnyTrueEv
FN:869,869,_ZN5Catch6ConfigD0Ev
FN:869,869,_ZN5Catch6ConfigD2Ev
FN:8697,8700,_ZN5Catch8Matchers11CasedStringC2ERKNSt7__cxx1112basic_stringIcSt11char_traitsIcESaIcEEENS_13CaseSensitiveE
FN:8701,8705,_ZNK5Catch8Matchers11CasedString12adjustStringERKNSt7__cxx1112basic_stringIcSt11char_traitsIcESaIcEEE
FN:8706,8710,_ZNK5Catch8Matchers11CasedString21caseSensitivitySuffixEv
FN:8713,8716,_ZN5Catch8Matchers17StringMatcherBaseC2ENS_9StringRefERKNS0_11CasedStringE
FN:8718,8728,_ZNK5Catch8Matchers17StringMatcherBase8describeB5cxx11Ev
FN:872,872,_ZNK5Catch6Config9listTestsEv
FN:873,873,_ZNK5Catch6Config8listTagsEv
FN:8730,8730,_ZN5Catch8Matchers19StringEqualsMatcherC2ERKNS0_11CasedStringE
FN:8732,8734,_ZNK5Catch8Matchers19StringEqualsMatcher5matchERKNSt7__cxx1112basic_stringIcSt11char_traitsIcESaIcEEE
FN:8737,8737,_ZN5Catch8Matchers21StringContainsMatcherC2ERKNS0_11CasedStringE
FN:8739,8741,_ZNK5Catch8Matchers21StringContainsMatcher5matchERKNSt7__cxx1112basic_stringIcSt11char_traitsIcESaIcEEE
FN:874,874,_ZNK5Catch6Config13listReportersEv
FN:8744,8744,_ZN5Catch8Matchers17StartsWithMatcherC2ERKNS0_11CasedStringE
FN:8746,8748,_ZNK5Catch8Matchers17StartsWithMatcher5matchERKNSt7__cxx1112basic_stringIcSt11char_traitsIcESaIcEEE
FN:875,875,_ZNK5Catch6Config13listListenersEv
FN:8751,8751,_ZN5Catch8Matchers15EndsWithMatcherC2ERKNS0_11CasedStringE
FN:8753,8755,_ZNK5Catch8Matchers15EndsWithMatcher5matchERKNSt7__cxx1112basic_stringIcSt11char_traitsIcESaIcEEE
FN:8759,8759,_ZN5Catch8Matchers12RegexMatcherC2ENSt7__cxx1112basic_stringIcSt11char_traitsIcESaIcEEENS_13CaseSensitiveE
FN:8761,8768,_ZNK5Catch8Matchers12RegexMatcher5matchERKNSt7__cxx1112basic_stringIcSt11char_traitsIcESaIcEEE
FN:877,877,_ZNK5Catch6Config14getTestsOrTagsB5cxx11Ev
FN:8770,8772,_ZNK5Catch8Matchers12RegexMatcher8describeB5cxx11Ev
FN:8775,8777,_ZN5Catch8Matchers6EqualsERKNSt7__cxx1112basic_stringIcSt11char_traitsIcESaIcEEENS_13CaseSensitiveE
FN:8778,8780,_ZN5Catch8Matchers17ContainsSubstringERKNSt7__cxx1112basic_stringIcSt11char_traitsIcESaIcEEENS_13CaseSensitiveE
FN:878,878,_ZNK5Catch6Config16getSectionsToRunB5cxx11Ev
FN:8781,8783,_ZN5Catch8Matchers8EndsWithERKNSt7__cxx1112basic_stringIcSt11char_traitsIcESaIcEEENS_13CaseSensitiveE
FN:8784,8786,_ZN5Catch8Matchers10StartsWithERKNSt7__cxx1112basic_stringIcSt11char_traitsIcESaIcEEENS_13CaseSensitiveE
FN:8788,8790,_ZN5Catch8Matchers7MatchesERKNSt7__cxx1112basic_stringIcSt11char_traitsIcESaIcEEENS_13CaseSensitiveE
FN:8799,8799,_ZN5Catch8Matchers18MatcherGenericBaseD0Ev
FN:8799,8799,_ZN5Catch8Matchers18MatcherGenericBaseD2Ev
FN:880,882,_ZNK5Catch6Config16getReporterSpecsEv
FN:8803,8824,_ZN5Catch8Matchers6Detail22describe_multi_matcherENS_9StringRefEPKNSt7__cxx1112basic_stringIcSt11char_traitsIcESaIcEEESA_
FN:8838,8842,_ZN5Catch24handleExceptionMatchExprERNS_16AssertionHandlerERKNS_8Matchers11MatcherBaseINSt7__cxx1112basic_stringIcSt11char_traitsIcESaIcEEEEE
FN:885,887,_ZNK5Catch6Config25getProcessedReporterSpecsEv
FN:8852,8852,_ZN5Catch16AutomakeReporterD0Ev
FN:8852,8852,_ZN5Catch16AutomakeReporterD2Ev
FN:8854,8868,_ZN5Catch16AutomakeReporter13testCaseEndedERKNS_13TestCaseStatsE
FN:8870,8872,_ZN5Catch16AutomakeReporter8skipTestERKNS_12TestCaseInfoE
FN:8882,8888,_ZN5Catch12ReporterBaseC2EONS_14ReporterConfigE
FN:889,889,_ZNK5Catch6Config8testSpecEv
FN:8890,8890,_ZN5Catch12ReporterBaseD0Ev
FN:8890,8890,_ZN5Catch12ReporterBaseD2Ev
FN:8892,8895,_ZN5Catch12ReporterBase13listReportersERKSt6vectorINS_19ReporterDescriptionESaIS2_EE
FN:8897,8900,_ZN5Catch12ReporterBase13listListenersERKSt6vectorINS_19ListenerDescriptionESaIS2_EE
FN:890,890,_ZNK5Catch6Config14hasTestFiltersEv
FN:8902,8908,_ZN5Catch12ReporterBase9listTestsERKSt6vectorINS_14TestCaseHandleESaIS2_EE
FN:8910,8912,_ZN5Catch12ReporterBase8listTagsERKSt6vectorINS_7TagInfoESaIS2_EE
FN:892,892,_ZNK5Catch6Config8showHelpEv
FN:894,894,_ZNK5Catch6Config20getExitGuardFilePathB5cxx11Ev
FN:8940,8947,_ZN5Catch12_GLOBAL__N_116AssertionPrinterC2ERSoRKNS_14AssertionStatsEbPNS_10ColourImplE
FN:8949,9020,_ZN5Catch12_GLOBAL__N_116AssertionPrinter5printEv
FN:897,897,_ZNK5Catch6Config11allowThrowsEv
FN:898,898,_ZNK5Catch6Config4nameEv
FN:899,899,_ZNK5Catch6Config24includeSuccessfulResultsEv
FN:900,902,_ZNK5Catch6Config26warnAboutMissingAssertionsEv
FN:9023,9026,_ZNK5Catch12_GLOBAL__N_116AssertionPrinter15printSourceInfoEv
FN:9028,9033,_ZNK5Catch12_GLOBAL__N_116AssertionPrinter15printResultTypeENS_6Colour4CodeENS_9StringRefE
FN:903,905,_ZNK5Catch6Config27warnAboutUnmatchedTestSpecsEv
FN:9035,9037,_ZNK5Catch12_GLOBAL__N_116AssertionPrinter10printIssueEPKc
FN:9039,9047,_ZN5Catch12_GLOBAL__N_116AssertionPrinter18printExpressionWasEv
FN:9049,9053,_ZNK5Catch12_GLOBAL__N_116AssertionPrinter23printOriginalExpressionEv
FN:9055,9060,_ZNK5Catch12_GLOBAL__N_116AssertionPrinter28printReconstructedExpressionEv
FN:906,906,_ZNK5Catch6Config23zeroTestsCountAsSuccessEv
FN:9062,9067,_ZN5Catch12_GLOBAL__N_116AssertionPrinter12printMessageEv
FN:9069,9090,_ZN5Catch12_GLOBAL__N_116AssertionPrinter22printRemainingMessagesENS_6Colour4CodeE
FN:907,907,_ZNK5Catch6Config13showDurationsEv
FN:908,908,_ZNK5Catch6Config11minDurationEv
FN:909,909,_ZNK5Catch6Config8runOrderEv
FN:910,910,_ZNK5Catch6Config7rngSeedEv
FN:9103,9105,_ZN5Catch15CompactReporter14getDescriptionB5cxx11Ev
FN:9107,9109,_ZN5Catch15CompactReporter19noMatchingTestCasesENS_9StringRefE
FN:911,911,_ZNK5Catch6Config10shardCountEv
FN:9111,9120,_ZN5Catch15CompactReporter15testRunStartingERKNS_11TestRunInfoE
FN:912,912,_ZNK5Catch6Config10shardIndexEv
FN:9122,9138,_ZN5Catch15CompactReporter14assertionEndedERKNS_14AssertionStatsE
FN:913,913,_ZNK5Catch6Config17defaultColourModeEv
FN:914,914,_ZNK5Catch6Config16shouldDebugBreakEv
FN:9140,9145,_ZN5Catch15CompactReporter12sectionEndedERKNS_12SectionStatsE
FN:9147,9151,_ZN5Catch15CompactReporter12testRunEndedERKNS_12TestRunStatsE
FN:915,915,_ZNK5Catch6Config10abortAfterEv
FN:9153,9153,_ZN5Catch15CompactReporterD0Ev
FN:9153,9153,_ZN5Catch15CompactReporterD2Ev
FN:916,916,_ZNK5Catch6Config14showInvisiblesEv
FN:917,917,_ZNK5Catch6Config9verbosityEv
FN:9185,9271,_ZN5Catch12_GLOBAL__N_123ConsoleAssertionPrinterC2ERSoRKNS_14AssertionStatsEPNS_10ColourImplEb
FN:919,919,_ZNK5Catch6Config14skipBenchmarksEv
FN:920,920,_ZNK5Catch6Config19benchmarkNoAnalysisEv
FN:921,921,_ZNK5Catch6Config16benchmarkSamplesEv
FN:922,922,_ZNK5Catch6Config27benchmarkConfidenceIntervalEv
FN:923,923,_ZNK5Catch6Config18benchmarkResamplesEv
FN:924,924,_ZNK5Catch6Config19benchmarkWarmupTimeEv
FN:926,977,_ZN5Catch6Config16readBazelEnvVarsEv
FN:9273,9283,_ZNK5Catch12_GLOBAL__N_123ConsoleAssertionPrinter5printEv
FN:9286,9290,_ZNK5Catch12_GLOBAL__N_123ConsoleAssertionPrinter15printResultTypeEv
FN:9291,9296,_ZNK5Catch12_GLOBAL__N_123ConsoleAssertionPrinter23printOriginalExpressionEv
FN:9297,9305,_ZNK5Catch12_GLOBAL__N_123ConsoleAssertionPrinter28printReconstructedExpressionEv
FN:9306,9314,_ZNK5Catch12_GLOBAL__N_123ConsoleAssertionPrinter12printMessageEv
FN:9315,9318,_ZNK5Catch12_GLOBAL__N_123ConsoleAssertionPrinter15printSourceInfoEv
FN:9331,9334,_ZN5Catch12_GLOBAL__N_19makeRatioEmm
FN:9337,9346,_ZN5Catch12_GLOBAL__N_17findMaxERmS1_S1_S1_
FN:9370,9386,_ZN5Catch12_GLOBAL__N_18DurationC2EdNS1_4UnitE
FN:9388,9401,_ZNK5Catch12_GLOBAL__N_18Duration5valueEv
FN:9402,9418,_ZNK5Catch12_GLOBAL__N_18Duration13unitsAsStringEv
FN:9419,9421,_ZN5Catch12_GLOBAL__N_1lsERSoRKNS0_8DurationE
FN:9444,9446,_ZN5Catch12TablePrinterC2ERSoSt6vectorINS_10ColumnInfoESaIS3_EE
FN:9448,9450,_ZNK5Catch12TablePrinter11columnInfosEv
FN:9452,9467,_ZN5Catch12TablePrinter4openEv
FN:9468,9474,_ZN5Catch12TablePrinter5closeEv
FN:9477,9480,_ZN5CatchlsIA19_cEERNS_12TablePrinterES3_RKT_
FN:9477,9480,_ZN5CatchlsINS_12_GLOBAL__N_18DurationEEERNS_12TablePrinterES4_RKT_
FN:9477,9480,_ZN5CatchlsINS_9StringRefEEERNS_12TablePrinterES3_RKT_
FN:9477,9480,_ZN5CatchlsINSt7__cxx1112basic_stringIcSt11char_traitsIcESaIcEEEEERNS_12TablePrinterES8_RKT_
FN:9477,9480,_ZN5CatchlsIcEERNS_12TablePrinterES2_RKT_
FN:9477,9480,_ZN5CatchlsIiEERNS_12TablePrinterES2_RKT_
FN:9477,9480,_ZN5CatchlsIjEERNS_12TablePrinterES2_RKT_
FN:9482,9502,_ZN5CatchlsERNS_12TablePrinterENS_12_GLOBAL__N_111ColumnBreakE
FN:9504,9510,_ZN5CatchlsERNS_12TablePrinterENS_12_GLOBAL__N_18RowBreakE
FN:9512,9515,_ZN5CatchlsERNS_12TablePrinterENS_12_GLOBAL__N_111OutputFlushE
FN:9518,9542,_ZN5Catch15ConsoleReporterC2EONS_14ReporterConfigE
FN:9521,9540,_ZZN5Catch15ConsoleReporterC4EONS_14ReporterConfigEENKUlvE_clEv
FN:9544,9544,_ZN5Catch15ConsoleReporterD0Ev
FN:9544,9544,_ZN5Catch15ConsoleReporterD2Ev
FN:9546,9548,_ZN5Catch15ConsoleReporter14getDescriptionB5cxx11Ev
FN:9550,9552,_ZN5Catch15ConsoleReporter19noMatchingTestCasesENS_9StringRefE
FN:9554,9556,_ZN5Catch15ConsoleReporter21reportInvalidTestSpecENS_9StringRefE
FN:9558,9573,_ZN5Catch15ConsoleReporter14assertionEndedERKNS_14AssertionStatsE
FN:9575,9579,_ZN5Catch15ConsoleReporter15sectionStartingERKNS_11SectionInfoE
FN:9580,9600,_ZN5Catch15ConsoleReporter12sectionEndedERKNS_12SectionStatsE
FN:9602,9617,_ZN5Catch15ConsoleReporter18benchmarkPreparingENS_9StringRefE
FN:9619,9627,_ZN5Catch15ConsoleReporter17benchmarkStartingERKNS_13BenchmarkInfoE
FN:9628,9643,_ZN5Catch15ConsoleReporter14benchmarkEndedERKNS_14BenchmarkStatsINSt6chrono8durationIdSt5ratioILl1ELl1000000000EEEEEE
FN:9645,9650,_ZN5Catch15ConsoleReporter15benchmarkFailedENS_9StringRefE
FN:9652,9656,_ZN5Catch15ConsoleReporter13testCaseEndedERKNS_13TestCaseStatsE
FN:9657,9662,_ZN5Catch15ConsoleReporter12testRunEndedERKNS_12TestRunStatsE
FN:9663,9671,_ZN5Catch15ConsoleReporter15testRunStartingERKNS_11TestRunInfoE
FN:9673,9677,_ZN5Catch15ConsoleReporter9lazyPrintEv
FN:9679,9688,_ZN5Catch15ConsoleReporter37lazyPrintWithoutClosingBenchmarkTableEv
FN:9689,9698,_ZN5Catch15ConsoleReporter16lazyPrintRunInfoEv
FN:9699,9720,_ZN5Catch15ConsoleReporter29printTestCaseAndSectionHeaderEv
FN:9722,9725,_ZN5Catch15ConsoleReporter17printClosedHeaderERKNSt7__cxx1112basic_stringIcSt11char_traitsIcESaIcEEE
FN:9726,9732,_ZN5Catch15ConsoleReporter15printOpenHeaderERKNSt7__cxx1112basic_stringIcSt11char_traitsIcESaIcEEE
FN:9734,9765,_ZN5Catch15ConsoleReporter17printHeaderStringERKNSt7__cxx1112basic_stringIcSt11char_traitsIcESaIcEEEm
FN:9767,9796,_ZN5Catch15ConsoleReporter18printTotalsDividerERKNS_6TotalsE
FN:9817,9817,_ZN5Catch12_GLOBAL__N_113BySectionInfoC2ERKNS_11SectionInfoE
FN:9819,9825,_ZNK5Catch12_GLOBAL__N_113BySectionInfoclERKNS_6Detail10unique_ptrINS_22CumulativeReporterBase11SectionNodeEEE
FN:9835,9837,_ZN5Catch6Detail26AssertionOrBenchmarkResultC2ERKNS_14AssertionStatsE
FN:9839,9841,_ZN5Catch6Detail26AssertionOrBenchmarkResultC2ERKNS_14BenchmarkStatsINSt6chrono8durationIdSt5ratioILl1ELl1000000000EEEEEE
FN:9843,9845,_ZNK5Catch6Detail26AssertionOrBenchmarkResult11isAssertionEv
FN:9846,9848,_ZNK5Catch6Detail26AssertionOrBenchmarkResult11isBenchmarkEv
FN:9850,9854,_ZNK5Catch6Detail26AssertionOrBenchmarkResult11asAssertionEv
FN:9855,9859,_ZNK5Catch6Detail26AssertionOrBenchmarkResult11asBenchmarkEv
FN:986,988,_ZN5Catch7getSeedEv
FN:9863,9863,_ZN5Catch22CumulativeReporterBaseD0Ev
FN:9863,9863,_ZN5Catch22CumulativeReporterBaseD2Ev
FN:9865,9867,_ZN5Catch22CumulativeReporterBase14benchmarkEndedERKNS_14BenchmarkStatsINSt6chrono8durationIdSt5ratioILl1ELl1000000000EEEEEE
FN:9870,9897,_ZN5Catch22CumulativeReporterBase15sectionStartingERKNS_11SectionInfoE
FN:9899,9919,_ZN5Catch22CumulativeReporterBase14assertionEndedERKNS_14AssertionStatsE
FN:9921,9926,_ZN5Catch22CumulativeReporterBase12sectionEndedERKNS_12SectionStatsE
FN:9928,9938,_ZN5Catch22CumulativeReporterBase13testCaseEndedERKNS_13TestCaseStatsE
FN:9941,9946,_ZN5Catch22CumulativeReporterBase12testRunEndedERKNS_12TestRunStatsE
FN:9948,9955,_ZNK5Catch22CumulativeReporterBase11SectionNode16hasAnyAssertionsEv
FN:9952,9954,_ZZNK5Catch22CumulativeReporterBase11SectionNode16hasAnyAssertionsEvENKUlRKNS_6Detail26AssertionOrBenchmarkResultEE_clES5_
FN:9964,9964,_ZN5Catch17EventListenerBase21fatalErrorEncounteredENS_9StringRefE
FN:9966,9966,_ZN5Catch17EventListenerBase18benchmarkPreparingENS_9StringRefE
FN:9967,9967,_ZN5Catch17EventListenerBase17benchmarkStartingERKNS_13BenchmarkInfoE
FN:9968,9968,_ZN5Catch17EventListenerBase14benchmarkEndedERKNS_14BenchmarkStatsINSt6chrono8durationIdSt5ratioILl1ELl1000000000EEEEEE
FN:9969,9969,_ZN5Catch17EventListenerBase15benchmarkFailedENS_9StringRefE
FN:9971,9971,_ZN5Catch17EventListenerBase17assertionStartingERKNS_13AssertionInfoE
FN:9973,9973,_ZN5Catch17EventListenerBase14assertionEndedERKNS_14AssertionStatsE
FN:9974,9975,_ZN5Catch17EventListenerBase13listReportersERKSt6vectorINS_19ReporterDescriptionESaIS2_EE
FN:9976,9977,_ZN5Catch17EventListenerBase13listListenersERKSt6vectorINS_19ListenerDescriptionESaIS2_EE
FN:9978,9978,_ZN5Catch17EventListenerBase9listTestsERKSt6vectorINS_14TestCaseHandleESaIS2_EE
FN:9979,9979,_ZN5Catch17EventListenerBase8listTagsERKSt6vectorINS_7TagInfoESaIS2_EE
FN:9980,9980,_ZN5Catch17EventListenerBase19noMatchingTestCasesENS_9StringRefE
FN:9981,9981,_ZN5Catch17EventListenerBase21reportInvalidTestSpecENS_9StringRefE
FN:9982,9982,_ZN5Catch17EventListenerBase15testRunStartingERKNS_11TestRunInfoE
FN:9983,9983,_ZN5Catch17EventListenerBase16testCaseStartingERKNS_12TestCaseInfoE
FN:9984,9984,_ZN5Catch17EventListenerBase23testCasePartialStartingERKNS_12TestCaseInfoEm
FN:9985,9985,_ZN5Catch17EventListenerBase15sectionStartingERKNS_11SectionInfoE
FN:9986,9986,_ZN5Catch17EventListenerBase12sectionEndedERKNS_12SectionStatsE
FN:9987,9987,_ZN5Catch17EventListenerBase20testCasePartialEndedERKNS_13TestCaseStatsEm
FN:9988,9988,_ZN5Catch17EventListenerBase13testCaseEndedERKNS_13TestCaseStatsE
FN:9989,9989,_ZN5Catch17EventListenerBase12testRunEndedERKNS_12TestRunStatsE
FN:9990,9990,_ZN5Catch17EventListenerBase8skipTestERKNS_12TestCaseInfoE
FNDA:0,_ZN5Catch12_GLOBAL__N_117listTestNamesOnlyERSoRKSt6vectorINS_14TestCaseHandleESaIS3_EE
FNDA:0,_ZN5Catch13ScopedMessageC2EONS_14MessageBuilderE
FNDA:0,_ZN5Catch20getFormattedDurationB5cxx11Ed
FNDA:239,_ZN5Catch18shouldShowDurationERKNS_7IConfigEd
FNDA:0,_ZN5Catch16serializeFiltersERKSt6vectorINSt7__cxx1112basic_stringIcSt11char_traitsIcESaIcEEESaIS6_EE
FNDA:0,_ZN5Catch13ScopedMessageC2EOS0_
FNDA:0,_ZN5CatchlsERSoNS_11lineOfCharsE
FNDA:0,_ZN5Catch20defaultListReportersERSoRKSt6vectorINS_19ReporterDescriptionESaIS2_EENS_9VerbosityE
FNDA:0,_ZZN5Catch20defaultListReportersERSoRKSt6vectorINS_19ReporterDescriptionESaIS2_EENS_9VerbosityEENKUlRKS2_S9_E_clES9_S9_
FNDA:0,_ZN5Catch20defaultListListenersERSoRKSt6vectorINS_19ListenerDescriptionESaIS2_EE
FNDA:0,_ZN5Catch13ScopedMessageD2Ev
FNDA:0,_ZZN5Catch20defaultListListenersERSoRKSt6vectorINS_19ListenerDescriptionESaIS2_EEENKUlRKS2_S8_E_clES8_S8_
FNDA:0,_ZN5Catch15defaultListTagsERSoRKSt6vectorINS_7TagInfoESaIS2_EEb
FNDA:0,_ZZN5Catch15defaultListTagsERSoRKSt6vectorINS_7TagInfoESaIS2_EEbENKUlRKT_RKT0_E_clIS2_S2_EEDaS9_SC_
FNDA:0,_ZN5Catch8CapturerC2ENS_9StringRefERKNS_14SourceLineInfoENS_9ResultWas6OfTypeES1_
FNDA:0,_ZN5Catch16defaultListTestsERSoPNS_10ColourImplERKSt6vectorINS_14TestCaseHandleESaIS4_EEbNS_9VerbosityE
FNDA:0,_ZZN5Catch8CapturerC4ENS_9StringRefERKNS_14SourceLineInfoENS_9ResultWas6OfTypeES1_ENKUlmmE_clEmm
FNDA:0,_ZN5Catch12_GLOBAL__N_113SummaryColumnC2ENSt7__cxx1112basic_stringIcSt11char_traitsIcESaIcEEENS_6Colour4CodeE
FNDA:0,_ZNO5Catch12_GLOBAL__N_113SummaryColumn6addRowEm
FNDA:0,_ZNK5Catch12_GLOBAL__N_113SummaryColumn9getSuffixEv
FNDA:0,_ZNK5Catch12_GLOBAL__N_113SummaryColumn9getColourEv
FNDA:0,_ZNK5Catch12_GLOBAL__N_113SummaryColumn6getRowEm
FNDA:0,_ZN5Catch12_GLOBAL__N_115printSummaryRowERSoRNS_10ColourImplENS_9StringRefERKSt6vectorINS0_13SummaryColumnESaIS6_EEm
FNDA:1,_ZN5Catch18printTestRunTotalsERSoRNS_10ColourImplERKNS_6TotalsE
FNDA:0,_ZZN5Catch8CapturerC4ENS_9StringRefERKNS_14SourceLineInfoENS_9ResultWas6OfTypeES1_ENKUlmcE_clEmc
FNDA:0,_ZN5Catch12_GLOBAL__N_115writeSourceInfoERNS_16JsonObjectWriterERKNS_14SourceLineInfoE
FNDA:0,_ZN5Catch12_GLOBAL__N_19writeTagsENS_15JsonArrayWriterERKSt6vectorINS_3TagESaIS3_EE
FNDA:0,_ZN5Catch12_GLOBAL__N_115writePropertiesENS_15JsonArrayWriterERKNS_12TestCaseInfoE
FNDA:0,_ZN5Catch12JsonReporterC2EONS_14ReporterConfigE
FNDA:0,_ZN5Catch12JsonReporterD0Ev
FNDA:0,_ZN5Catch12JsonReporterD2Ev
FNDA:0,_ZN5Catch12JsonReporter10startArrayEv
FNDA:0,_ZN5Catch12JsonReporter10startArrayENS_9StringRefE
FNDA:0,_ZN5Catch12JsonReporter11startObjectEv
FNDA:0,_ZN5Catch12JsonReporter11startObjectENS_9StringRefE
FNDA:0,_ZN5Catch12JsonReporter9endObjectEv
FNDA:0,_ZN5Catch12JsonReporter8endArrayEv
FNDA:0,_ZN5Catch12JsonReporter8isInsideENS0_6WriterE
FNDA:0,_ZN5Catch12JsonReporter12startListingEv
FNDA:0,_ZN5Catch12JsonReporter10endListingEv
FNDA:0,_ZN5Catch12JsonReporter14getDescriptionB5cxx11Ev
FNDA:0,_ZN5Catch12JsonReporter15testRunStartingERKNS_11TestRunInfoE
FNDA:0,_ZN5CatchL11writeCountsEONS_16JsonObjectWriterERKNS_6CountsE
FNDA:0,_ZN5Catch12JsonReporter12testRunEndedERKNS_12TestRunStatsE
FNDA:0,_ZN5Catch12JsonReporter16testCaseStartingERKNS_12TestCaseInfoE
FNDA:0,_ZN5Catch12JsonReporter13testCaseEndedERKNS_13TestCaseStatsE
FNDA:0,_ZN5Catch12JsonReporter23testCasePartialStartingERKNS_12TestCaseInfoEm
FNDA:0,_ZN5Catch12JsonReporter20testCasePartialEndedERKNS_13TestCaseStatsEm
FNDA:0,_ZN5Catch12JsonReporter15sectionStartingERKNS_11SectionInfoE
FNDA:0,_ZN5Catch12JsonReporter12sectionEndedERKNS_12SectionStatsE
FNDA:0,_ZN5Catch12JsonReporter14assertionEndedERKNS_14AssertionStatsE
FNDA:0,_ZN5Catch12JsonReporter18benchmarkPreparingENS_9StringRefE
FNDA:0,_ZN5Catch12JsonReporter17benchmarkStartingERKNS_13BenchmarkInfoE
FNDA:0,_ZN5Catch12JsonReporter14benchmarkEndedERKNS_14BenchmarkStatsINSt6chrono8durationIdSt5ratioILl1ELl1000000000EEEEEE
FNDA:0,_ZN5Catch12JsonReporter15benchmarkFailedENS_9StringRefE
FNDA:0,_ZN5Catch12JsonReporter13listReportersERKSt6vectorINS_19ReporterDescriptionESaIS2_EE
FNDA:0,_ZN5Catch12JsonReporter13listListenersERKSt6vectorINS_19ListenerDescriptionESaIS2_EE
FNDA:0,_ZN5Catch12JsonReporter9listTestsERKSt6vectorINS_14TestCaseHandleESaIS2_EE
FNDA:0,_ZN5Catch12JsonReporter8listTagsERKSt6vectorINS_7TagInfoESaIS2_EE
FNDA:0,_ZN5Catch12_GLOBAL__N_119getCurrentTimestampEv
FNDA:0,_ZN5Catch12_GLOBAL__N_111fileNameTagERKSt6vectorINS_3TagESaIS2_EE
FNDA:0,_ZZN5Catch12_GLOBAL__N_111fileNameTagERKSt6vectorINS_3TagESaIS2_EEENKUlRKS2_E_clES8_
FNDA:0,_ZN5Catch12_GLOBAL__N_114formatDurationEd
FNDA:0,_ZN5Catch12_GLOBAL__N_1L25normalizeNamespaceMarkersERNSt7__cxx1112basic_stringIcSt11char_traitsIcESaIcEEE
FNDA:0,_ZN5Catch13JunitReporterC2EONS_14ReporterConfigE
FNDA:0,_ZN5Catch13JunitReporter14getDescriptionB5cxx11Ev
FNDA:0,_ZN5Catch13JunitReporter15testRunStartingERKNS_11TestRunInfoE
FNDA:0,_ZN5Catch13JunitReporter16testCaseStartingERKNS_12TestCaseInfoE
FNDA:0,_ZN5Catch8CapturerD2Ev
FNDA:0,_ZN5Catch13JunitReporter14assertionEndedERKNS_14AssertionStatsE
FNDA:0,_ZN5Catch13JunitReporter13testCaseEndedERKNS_13TestCaseStatsE
FNDA:0,_ZN5Catch13JunitReporter22testRunEndedCumulativeEv
FNDA:0,_ZN5Catch13JunitReporter8writeRunERKNS_22CumulativeReporterBase4NodeINS_12TestRunStatsENS2_INS_13TestCaseStatsENS1_11SectionNodeEEEEEd
FNDA:0,_ZN5Catch13JunitReporter13writeTestCaseERKNS_22CumulativeReporterBase4NodeINS_13TestCaseStatsENS1_11SectionNodeEEE
FNDA:0,_ZN5Catch8Capturer12captureValueEmRKNSt7__cxx1112basic_stringIcSt11char_traitsIcESaIcEEE
FNDA:0,_ZN5Catch13JunitReporter12writeSectionERKNSt7__cxx1112basic_stringIcSt11char_traitsIcESaIcEEES8_RKNS_22CumulativeReporterBase11SectionNodeEb
FNDA:0,_ZN5Catch13JunitReporter15writeAssertionsERKNS_22CumulativeReporterBase11SectionNodeE
FNDA:0,_ZN5Catch13JunitReporter14writeAssertionERKNS_14AssertionStatsE
FNDA:0,_ZN5Catch13MultiReporter17updatePreferencesERKNS_14IEventListenerE
FNDA:0,_ZN5Catch13MultiReporter11addListenerEONS_6Detail10unique_ptrINS_14IEventListenerEEE
FNDA:0,_ZN5Catch13MultiReporter11addReporterEONS_6Detail10unique_ptrINS_14IEventListenerEEE
FNDA:0,_ZN5Catch13MultiReporter19noMatchingTestCasesENS_9StringRefE
FNDA:0,_ZN5Catch13MultiReporter21fatalErrorEncounteredENS_9StringRefE
FNDA:0,_ZN5Catch13MultiReporter21reportInvalidTestSpecENS_9StringRefE
FNDA:0,_ZN5Catch13MultiReporter18benchmarkPreparingENS_9StringRefE
FNDA:0,_ZN5Catch13MultiReporter17benchmarkStartingERKNS_13BenchmarkInfoE
FNDA:0,_ZN5Catch13MultiReporter14benchmarkEndedERKNS_14BenchmarkStatsINSt6chrono8durationIdSt5ratioILl1ELl1000000000EEEEEE
FNDA:0,_ZN5Catch13MultiReporter15benchmarkFailedENS_9StringRefE
FNDA:0,_ZN5Catch13MultiReporter15testRunStartingERKNS_11TestRunInfoE
FNDA:0,_ZN5Catch13MultiReporter16testCaseStartingERKNS_12TestCaseInfoE
FNDA:0,_ZN5Catch13MultiReporter23testCasePartialStartingERKNS_12TestCaseInfoEm
FNDA:0,_ZN5Catch13MultiReporter15sectionStartingERKNS_11SectionInfoE
FNDA:1,_ZN5Catch12_GLOBAL__N_111RegistryHubC2Ev
FNDA:0,_ZN5Catch13MultiReporter17assertionStartingERKNS_13AssertionInfoE
FNDA:0,_ZN5Catch13MultiReporter14assertionEndedERKNS_14AssertionStatsE
FNDA:2,_ZNK5Catch12_GLOBAL__N_111RegistryHub19getReporterRegistryEv
FNDA:0,_ZN5Catch13MultiReporter12sectionEndedERKNS_12SectionStatsE
FNDA:0,_ZN5Catch13MultiReporter20testCasePartialEndedERKNS_13TestCaseStatsEm
FNDA:1,_ZNK5Catch12_GLOBAL__N_111RegistryHub19getTestCaseRegistryEv
FNDA:0,_ZN5Catch13MultiReporter13testCaseEndedERKNS_13TestCaseStatsE
FNDA:0,_ZN5Catch13MultiReporter12testRunEndedERKNS_12TestRunStatsE
FNDA:0,_ZN5Catch13MultiReporter8skipTestERKNS_12TestCaseInfoE
FNDA:0,_ZN5Catch13MultiReporter13listReportersERKSt6vectorINS_19ReporterDescriptionESaIS2_EE
FNDA:0,_ZN5Catch13MultiReporter13listListenersERKSt6vectorINS_19ListenerDescriptionESaIS2_EE
FNDA:0,_ZNK5Catch12_GLOBAL__N_111RegistryHub30getExceptionTranslatorRegistryEv
FNDA:0,_ZN5Catch13MultiReporter9listTestsERKSt6vectorINS_14TestCaseHandleESaIS2_EE
FNDA:0,_ZN5Catch13MultiReporter8listTagsERKSt6vectorINS_7TagInfoESaIS2_EE
FNDA:0,_ZN5Catch6Detail20registerReporterImplERKNSt7__cxx1112basic_stringIcSt11char_traitsIcESaIcEEENS0_10unique_ptrINS_16IReporterFactoryEEE
FNDA:1,_ZNK5Catch12_GLOBAL__N_111RegistryHub19getTagAliasRegistryEv
FNDA:0,_ZN5Catch6Detail20registerListenerImplENS0_10unique_ptrINS_20EventListenerFactoryEEE
FNDA:0,_ZN5Catch12_GLOBAL__N_120createMetadataStringERKNS_7IConfigE
FNDA:1,_ZNK5Catch12_GLOBAL__N_111RegistryHub27getStartupExceptionRegistryEv
FNDA:0,_ZN5Catch17SonarQubeReporter15testRunStartingERKNS_11TestRunInfoE
FNDA:0,_ZN5Catch17SonarQubeReporter8writeRunERKNS_22CumulativeReporterBase4NodeINS_12TestRunStatsENS2_INS_13TestCaseStatsENS1_11SectionNodeEEEEE
FNDA:0,_ZN5Catch17SonarQubeReporter13writeTestFileENS_9StringRefERKSt6vectorIPKNS_22CumulativeReporterBase4NodeINS_13TestCaseStatsENS3_11SectionNodeEEESaIS9_EE
FNDA:0,_ZN5Catch17SonarQubeReporter13writeTestCaseERKNS_22CumulativeReporterBase4NodeINS_13TestCaseStatsENS1_11SectionNodeEEE
FNDA:0,_ZN5Catch17SonarQubeReporter12writeSectionERKNSt7__cxx1112basic_stringIcSt11char_traitsIcESaIcEEERKNS_22CumulativeReporterBase11SectionNodeEb
FNDA:0,_ZN5Catch12_GLOBAL__N_111RegistryHub16registerReporterERKNSt7__cxx1112basic_stringIcSt11char_traitsIcESaIcEEENS_6Detail10unique_ptrINS_16IReporterFactoryEEE
FNDA:0,_ZN5Catch17SonarQubeReporter15writeAssertionsERKNS_22CumulativeReporterBase11SectionNodeEb
FNDA:0,_ZN5Catch17SonarQubeReporter14writeAssertionERKNS_14AssertionStatsEb
FNDA:0,_ZN5Catch12_GLOBAL__N_111RegistryHub16registerListenerENS_6Detail10unique_ptrINS_20EventListenerFactoryEEE
FNDA:118,_ZN5Catch12_GLOBAL__N_111RegistryHub12registerTestEONS_6Detail10unique_ptrINS_12TestCaseInfoEEEONS3_INS_12ITestInvokerEEE
FNDA:0,_ZN5Catch12_GLOBAL__N_111RegistryHub18registerTranslatorEONS_6Detail10unique_ptrINS_20IExceptionTranslatorEEE
FNDA:0,_ZN5Catch21StreamingReporterBaseD0Ev
FNDA:1,_ZN5Catch21StreamingReporterBaseD2Ev
FNDA:1,_ZN5Catch21StreamingReporterBase15testRunStartingERKNS_11TestRunInfoE
FNDA:1,_ZN5Catch21StreamingReporterBase12testRunEndedERKNS_12TestRunStatsE
FNDA:0,_ZN5Catch12_GLOBAL__N_111RegistryHub16registerTagAliasERKNSt7__cxx1112basic_stringIcSt11char_traitsIcESaIcEEES9_RKNS_14SourceLineInfoE
FNDA:0,_ZN5Catch12_GLOBAL__N_119TapAssertionPrinterC2ERSoRKNS_14AssertionStatsEmPNS_10ColourImplE
FNDA:0,_ZN5Catch12_GLOBAL__N_119TapAssertionPrinter5printEv
FNDA:0,_ZN5Catch12_GLOBAL__N_111RegistryHub24registerStartupExceptionEv
FNDA:0,_ZNK5Catch12_GLOBAL__N_119TapAssertionPrinter15printResultTypeENS_9StringRefE
FNDA:0,_ZNK5Catch12_GLOBAL__N_119TapAssertionPrinter10printIssueENS_9StringRefE
FNDA:0,_ZN5Catch12_GLOBAL__N_119TapAssertionPrinter18printExpressionWasEv
FNDA:0,_ZN5Catch12_GLOBAL__N_111RegistryHub28getMutableEnumValuesRegistryEv
FNDA:0,_ZNK5Catch12_GLOBAL__N_119TapAssertionPrinter23printOriginalExpressionEv
FNDA:0,_ZNK5Catch12_GLOBAL__N_119TapAssertionPrinter28printReconstructedExpressionEv
FNDA:0,_ZN5Catch12_GLOBAL__N_119TapAssertionPrinter12printMessageEv
FNDA:0,_ZN5Catch12_GLOBAL__N_119TapAssertionPrinter22printRemainingMessagesENS_6Colour4CodeE
FNDA:0,_ZN5Catch11TAPReporter15testRunStartingERKNS_11TestRunInfoE
FNDA:0,_ZN5Catch11TAPReporter19noMatchingTestCasesENS_9StringRefE
FNDA:0,_ZN5Catch11TAPReporter14assertionEndedERKNS_14AssertionStatsE
FNDA:0,_ZN5Catch11TAPReporter12testRunEndedERKNS_12TestRunStatsE
FNDA:0,_ZN5Catch12_GLOBAL__N_117printHeaderStringERSoRKNSt7__cxx1112basic_stringIcSt11char_traitsIcESaIcEEEm
FNDA:0,_ZN5Catch12_GLOBAL__N_16escapeENS_9StringRefE
FNDA:0,_ZN5Catch16TeamCityReporterD0Ev
FNDA:0,_ZN5Catch16TeamCityReporterD2Ev
FNDA:0,_ZN5Catch16TeamCityReporter15testRunStartingERKNS_11TestRunInfoE
FNDA:0,_ZN5Catch16TeamCityReporter12testRunEndedERKNS_12TestRunStatsE
FNDA:0,_ZN5Catch16TeamCityReporter14assertionEndedERKNS_14AssertionStatsE
FNDA:5,_ZN5Catch14getRegistryHubEv
FNDA:118,_ZN5Catch21getMutableRegistryHubEv
FNDA:2,_ZN5Catch7cleanUpEv
FNDA:0,_ZN5Catch16TeamCityReporter16testCaseStartingERKNS_12TestCaseInfoE
FNDA:0,_ZN5Catch16TeamCityReporter13testCaseEndedERKNS_13TestCaseStatsE
FNDA:0,_ZN5Catch16TeamCityReporter18printSectionHeaderERSo
FNDA:0,_ZN5Catch24translateActiveExceptionB5cxx11Ev
FNDA:0,_ZN5Catch11XmlReporterC2EONS_14ReporterConfigE
FNDA:0,_ZN5Catch11XmlReporterD0Ev
FNDA:0,_ZN5Catch11XmlReporterD2Ev
FNDA:0,_ZN5Catch11XmlReporter14getDescriptionB5cxx11Ev
FNDA:0,_ZNK5Catch11XmlReporter16getStylesheetRefB5cxx11Ev
FNDA:0,_ZN5Catch11XmlReporter15writeSourceInfoERKNS_14SourceLineInfoE
FNDA:0,_ZN5Catch11XmlReporter15testRunStartingERKNS_11TestRunInfoE
FNDA:0,_ZN5Catch11XmlReporter16testCaseStartingERKNS_12TestCaseInfoE
FNDA:0,_ZN5Catch11XmlReporter15sectionStartingERKNS_11SectionInfoE
FNDA:0,_ZN5Catch11XmlReporter14assertionEndedERKNS_14AssertionStatsE
FNDA:0,_ZN5Catch11XmlReporter12sectionEndedERKNS_12SectionStatsE
FNDA:1,_ZN5Catch12_GLOBAL__N_114createReporterERKNSt7__cxx1112basic_stringIcSt11char_traitsIcESaIcEEEONS_14ReporterConfigE
FNDA:0,_ZN5Catch11XmlReporter13testCaseEndedERKNS_13TestCaseStatsE
FNDA:0,_ZN5Catch11XmlReporter12testRunEndedERKNS_12TestRunStatsE
FNDA:0,_ZN5Catch11XmlReporter18benchmarkPreparingENS_9StringRefE
FNDA:0,_ZN5Catch11XmlReporter17benchmarkStartingERKNS_13BenchmarkInfoE
FNDA:0,_ZN5Catch11XmlReporter14benchmarkEndedERKNS_14BenchmarkStatsINSt6chrono8durationIdSt5ratioILl1ELl1000000000EEEEEE
FNDA:0,_ZN5Catch11XmlReporter15benchmarkFailedENS_9StringRefE
FNDA:1,_ZN5Catch12_GLOBAL__N_116prepareReportersEPKNS_6ConfigE
FNDA:0,_ZN5Catch11XmlReporter13listReportersERKSt6vectorINS_19ReporterDescriptionESaIS2_EE
FNDA:0,_ZN5Catch11XmlReporter13listListenersERKSt6vectorINS_19ListenerDescriptionESaIS2_EE
FNDA:0,_ZN5Catch11XmlReporter9listTestsERKSt6vectorINS_14TestCaseHandleESaIS2_EE
FNDA:0,_ZN5Catch11XmlReporter8listTagsERKSt6vectorINS_7TagInfoESaIS2_EE
FNDA:1,_ZN5Catch12_GLOBAL__N_19TestGroupC2EONS_6Detail10unique_ptrINS_14IEventListenerEEEPKNS_6ConfigE
FNDA:1,_ZN5Catch12_GLOBAL__N_19TestGroup7executeEv
FNDA:1,_ZNK5Catch12_GLOBAL__N_19TestGroup21hadUnmatchedTestSpecsEv
FNDA:0,_ZN5Catch12_GLOBAL__N_120applyFilenamesAsTagsEv
FNDA:1,_ZN5Catch12_GLOBAL__N_114setUpGuardFileERKNSt7__cxx1112basic_stringIcSt11char_traitsIcESaIcEEE
FNDA:0,_ZNK5Catch9Benchmark6Detail10do_nothingclEv
FNDA:1,_ZN5Catch12_GLOBAL__N_117tearDownGuardFileERKNSt7__cxx1112basic_stringIcSt11char_traitsIcESaIcEEE
FNDA:1,_ZN5Catch7SessionC2Ev
FNDA:0,_ZN5Catch9Benchmark6Detail17BenchmarkFunction8callableD0Ev
FNDA:0,_ZN5Catch9Benchmark6Detail17BenchmarkFunction8callableD2Ev
FNDA:0,_ZN5Catch9Benchmark6Detail17BenchmarkFunctionC2Ev
FNDA:1,_ZN5Catch7SessionD2Ev
FNDA:0,_ZNK5Catch7Session8showHelpEv
FNDA:0,_ZN5Catch7Session11libIdentifyEv
FNDA:1,_ZN5Catch7Session16applyCommandLineEiPKPKc
FNDA:0,_ZN5Catch7Session13useConfigDataERKNS_10ConfigDataE
FNDA:1,_ZN5Catch7Session3runEv
FNDA:0,_ZNK5Catch7Session3cliEv
FNDA:0,_ZN5Catch7Session3cliERKNS_5Clara6ParserE
FNDA:0,_ZN5Catch7Session10configDataEv
FNDA:1,_ZN5Catch7Session6configEv
FNDA:1,_ZN5Catch7Session11runInternalEv
FNDA:0,_ZNK5Catch9Benchmark6Detail20optimized_away_error4whatEv
FNDA:0,_ZN5Catch22RegistrarForTagAliasesC2EPKcS2_RKNS_14SourceLineInfoE
FNDA:0,_ZN5Catch9Benchmark6Detail26throw_optimized_away_errorEv
FNDA:0,_ZN5Catch12_GLOBAL__N_1orENS_18TestCasePropertiesES1_
FNDA:118,_ZN5Catch12_GLOBAL__N_1oRERNS_18TestCasePropertiesES1_
FNDA:354,_ZN5Catch12_GLOBAL__N_1anENS_18TestCasePropertiesES1_
FNDA:354,_ZN5Catch12_GLOBAL__N_17appliesENS_18TestCasePropertiesE
FNDA:236,_ZN5Catch12_GLOBAL__N_115parseSpecialTagENS_9StringRefE
FNDA:118,_ZN5Catch12_GLOBAL__N_113isReservedTagENS_9StringRefE
FNDA:118,_ZN5Catch12_GLOBAL__N_121enforceNotReservedTagENS_9StringRefERKNS_14SourceLineInfoE
FNDA:0,_ZN5Catch12_GLOBAL__N_115makeDefaultNameEv
FNDA:118,_ZN5Catch12_GLOBAL__N_119extractFilenamePartENS_9StringRefE
FNDA:118,_ZN5Catch12_GLOBAL__N_115sizeOfExtraTagsENS_9StringRefE
FNDA:0,_ZN5CatchltERKNS_3TagES2_
FNDA:0,_ZN5CatcheqERKNS_3TagES2_
FNDA:118,_ZN5Catch16makeTestCaseInfoENS_9StringRefERKNS_11NameAndTagsERKNS_14SourceLineInfoE
FNDA:118,_ZN5Catch12TestCaseInfoC2ENS_9StringRefERKNS_11NameAndTagsERKNS_14SourceLineInfoE
FNDA:236,_ZNK5Catch12TestCaseInfo8isHiddenEv
FNDA:0,_ZNK5Catch12TestCaseInfo6throwsEv
FNDA:0,_ZNK5Catch12TestCaseInfo8okToFailEv
FNDA:118,_ZNK5Catch12TestCaseInfo14expectedToFailEv
FNDA:0,_ZN5Catch12TestCaseInfo14addFilenameTagEv
FNDA:0,_ZNK5Catch12TestCaseInfo12tagsAsStringB5cxx11Ev
FNDA:118,_ZN5Catch12TestCaseInfo17internalAppendTagENS_9StringRefE
FNDA:1012,_ZN5CatchltERKNS_12TestCaseInfoES2_
FNDA:0,_ZN5Catch8TestSpec7PatternC2ERKNSt7__cxx1112basic_stringIcSt11char_traitsIcESaIcEEE
FNDA:0,_ZN5Catch8TestSpec7PatternD0Ev
FNDA:0,_ZN5Catch8TestSpec7PatternD2Ev
FNDA:0,_ZNK5Catch8TestSpec7Pattern4nameB5cxx11Ev
FNDA:0,_ZN5Catch8TestSpec11NamePatternC2ERKNSt7__cxx1112basic_stringIcSt11char_traitsIcESaIcEEES9_
FNDA:0,_ZNK5Catch8TestSpec11NamePattern7matchesERKNS_12TestCaseInfoE
FNDA:0,_ZNK5Catch8TestSpec11NamePattern11serializeToERSo
FNDA:0,_ZN5Catch8TestSpec10TagPatternC2ERKNSt7__cxx1112basic_stringIcSt11char_traitsIcESaIcEEES9_
FNDA:0,_ZNK5Catch8TestSpec10TagPattern7matchesERKNS_12TestCaseInfoE
FNDA:0,_ZNK5Catch8TestSpec10TagPattern11serializeToERSo
FNDA:0,_ZNK5Catch8TestSpec6Filter7matchesERKNS_12TestCaseInfoE
FNDA:0,_ZN5Catch9Benchmark6Detail12_GLOBAL__N_1L8resampleINS_11SimplePcg32EPFdPKdS6_EEESt6vectorIdSaIdEERT_jS6_S6_RT0_
FNDA:0,_ZNK5Catch8TestSpec6Filter11serializeToERSo
FNDA:0,_ZN5Catch8TestSpec17extractFilterNameB5cxx11ERKNS0_6FilterE
FNDA:2,_ZNK5Catch8TestSpec10hasFiltersEv
FNDA:0,_ZNK5Catch8TestSpec7matchesERKNS_12TestCaseInfoE
FNDA:0,_ZZNK5Catch8TestSpec7matchesERKNS_12TestCaseInfoEENKUlRKNS0_6FilterEE_clES6_
FNDA:0,_ZNK5Catch8TestSpec15matchesByFilterERKSt6vectorINS_14TestCaseHandleESaIS2_EERKNS_7IConfigE
FNDA:2,_ZNK5Catch8TestSpec15getInvalidSpecsB5cxx11Ev
FNDA:0,_ZNK5Catch8TestSpec11serializeToERSo
FNDA:478,_ZN5Catch12_GLOBAL__N_1L31getCurrentNanosecondsSinceEpochEv
FNDA:239,_ZN5Catch5Timer5startEv
FNDA:239,_ZNK5Catch5Timer21getElapsedNanosecondsEv
FNDA:239,_ZNK5Catch5Timer22getElapsedMicrosecondsEv
FNDA:0,_ZNK5Catch5Timer22getElapsedMillisecondsEv
FNDA:239,_ZNK5Catch5Timer17getElapsedSecondsEv
FNDA:0,_ZN5Catch6Detail12_GLOBAL__N_110Endianness5whichEv
FNDA:0,_ZN5Catch6Detail12_GLOBAL__N_110fpToStringIdEENSt7__cxx1112basic_stringIcSt11char_traitsIcESaIcEEET_i
FNDA:0,_ZN5Catch6Detail12_GLOBAL__N_110fpToStringIfEENSt7__cxx1112basic_stringIcSt11char_traitsIcESaIcEEET_i
FNDA:0,_ZN5Catch6Detail17convertIntoStringB5cxx11ENS_9StringRefEb
FNDA:0,_ZZN5Catch6Detail17convertIntoStringB5cxx11ENS_9StringRefEbENKUlmE_clEm
FNDA:0,_ZN5Catch6Detail17convertIntoStringB5cxx11ENS_9StringRefE
FNDA:0,_ZN5Catch6Detail17rawMemoryToStringB5cxx11EPKvm
FNDA:0,_ZN5Catch6Detail27makeExceptionHappenedStringB5cxx11Ev
FNDA:0,_ZN5Catch11StringMakerINSt7__cxx1112basic_stringIcSt11char_traitsIcESaIcEEEvE7convertERKS6_
FNDA:0,_ZN5Catch11StringMakerISt17basic_string_viewIcSt11char_traitsIcEEvE7convertB5cxx11ES4_
FNDA:0,_ZN5Catch11StringMakerIPKcvE7convertB5cxx11ES2_
FNDA:0,_ZN5Catch11StringMakerIPcvE7convertB5cxx11ES1_
FNDA:0,_ZN5Catch11StringMakerINSt7__cxx1112basic_stringIwSt11char_traitsIwESaIwEEEvE7convertERKS6_
FNDA:0,_ZN5Catch9Benchmark6Detail12_GLOBAL__N_1L16outlier_varianceENS0_8EstimateIdEES4_i
FNDA:0,_ZN5Catch11StringMakerISt17basic_string_viewIwSt11char_traitsIwEEvE7convertB5cxx11ES4_
FNDA:0,_ZN5Catch11StringMakerIPKwvE7convertB5cxx11ES2_
FNDA:0,_ZN5Catch11StringMakerIPwvE7convertB5cxx11ES1_
FNDA:0,_ZN5Catch11StringMakerISt4bytevE7convertB5cxx11ES1_
FNDA:0,_ZN5Catch11StringMakerIivE7convertB5cxx11Ei
FNDA:0,_ZN5Catch11StringMakerIlvE7convertB5cxx11El
FNDA:0,_ZN5Catch11StringMakerIxvE7convertB5cxx11Ex
FNDA:0,_ZN5Catch11StringMakerIjvE7convertB5cxx11Ej
FNDA:0,_ZN5Catch11StringMakerImvE7convertB5cxx11Em
FNDA:0,_ZN5Catch11StringMakerIyvE7convertB5cxx11Ey
FNDA:0,_ZN5Catch11StringMakerIavE7convertB5cxx11Ea
FNDA:0,_ZN5Catch11StringMakerIcvE7convertB5cxx11Ec
FNDA:0,_ZN5Catch11StringMakerIhvE7convertB5cxx11Eh
FNDA:0,_ZN5Catch11StringMakerIfvE7convertB5cxx11Ef
FNDA:0,_ZN5Catch11StringMakerIdvE7convertB5cxx11Ed
FNDA:0,_ZZN5Catch9Benchmark6Detail12_GLOBAL__N_1L16outlier_varianceENS0_8EstimateIdEES4_iENKUldE_clEd
FNDA:811,_ZNK5Catch6CountsmiERKS0_
FNDA:354,_ZN5Catch6CountspLERKS0_
FNDA:249,_ZNK5Catch6Counts5totalEv
FNDA:2,_ZNK5Catch6Counts9allPassedEv
FNDA:0,_ZNK5Catch6Counts5allOkEv
FNDA:286,_ZNK5Catch6TotalsmiERKS0_
FNDA:118,_ZN5Catch6TotalspLERKS0_
FNDA:286,_ZNK5Catch6Totals5deltaERKS0_
FNDA:0,_ZN5Catch6Detail22registerTranslatorImplEONS0_10unique_ptrINS_20IExceptionTranslatorEEE
FNDA:0,_ZN5Catch7VersionC2EjjjPKcj
FNDA:0,_ZN5CatchlsERSoRKNS_7VersionE
FNDA:0,_ZN5Catch14libraryVersionEv
FNDA:0,_ZZN5Catch9Benchmark6Detail12_GLOBAL__N_1L16outlier_varianceENS0_8EstimateIdEES4_iENKUldE0_clEd
FNDA:0,_ZNK5Catch18GeneratorException4whatEv
FNDA:0,_ZN5Catch17IGeneratorTrackerD0Ev
FNDA:0,_ZN5Catch17IGeneratorTrackerD2Ev
FNDA:0,_ZN5Catch10Generators6Detail25throw_generator_exceptionEPKc
FNDA:0,_ZN5Catch10Generators20GeneratorUntypedBaseD0Ev
FNDA:0,_ZN5Catch10Generators20GeneratorUntypedBaseD2Ev
FNDA:0,_ZN5Catch10Generators23acquireGeneratorTrackerENS_9StringRefERKNS_14SourceLineInfoE
FNDA:0,_ZN5Catch10Generators22createGeneratorTrackerENS_9StringRefENS_14SourceLineInfoEONS_6Detail10unique_ptrINS0_20GeneratorUntypedBaseEEE
FNDA:0,_ZN5Catch10Generators6Detail7getSeedEv
FNDA:0,_ZN5Catch10Generators23RandomFloatingGeneratorIeE5PImplC2Eeej
FNDA:0,_ZN5Catch10Generators23RandomFloatingGeneratorIeEC2Eeej
FNDA:0,_ZN5Catch10Generators23RandomFloatingGeneratorIeED0Ev
FNDA:0,_ZN5Catch10Generators23RandomFloatingGeneratorIeED2Ev
FNDA:0,_ZN5Catch10Generators23RandomFloatingGeneratorIeE4nextEv
FNDA:0,_ZN5Catch6Detail22missingCaptureInstanceEv
FNDA:0,_ZN5Catch14IResultCaptureD0Ev
FNDA:1,_ZN5Catch14IResultCaptureD2Ev
FNDA:0,_ZN5Catch7IConfigD0Ev
FNDA:1,_ZN5Catch7IConfigD2Ev
FNDA:0,_ZN5Catch20IExceptionTranslatorD0Ev
FNDA:0,_ZN5Catch20IExceptionTranslatorD2Ev
FNDA:0,_ZN5Catch28IExceptionTranslatorRegistryD0Ev
FNDA:1,_ZN5Catch28IExceptionTranslatorRegistryD2Ev
FNDA:0,_ZN5Catch10Generators20GeneratorUntypedBase11countedNextEv
FNDA:0,_ZN5Catch9Benchmark6Detail12_GLOBAL__N_1L7erf_invEd
FNDA:0,_ZNK5Catch10Generators20GeneratorUntypedBase22currentElementAsStringEv
FNDA:0,_ZN5Catch12IRegistryHubD0Ev
FNDA:1,_ZN5Catch12IRegistryHubD2Ev
FNDA:0,_ZN5Catch19IMutableRegistryHubD0Ev
FNDA:1,_ZN5Catch19IMutableRegistryHubD2Ev
FNDA:1,_ZN5Catch14ReporterConfigC2EPKNS_7IConfigENS_6Detail10unique_ptrINS_7IStreamEEENS_10ColourModeESt3mapINSt7__cxx1112basic_stringIcSt11char_traitsIcESaIcEEESF_St4lessISF_ESaISt4pairIKSF_SF_EEE
FNDA:1,_ZNO5Catch14ReporterConfig10takeStreamEv
FNDA:2,_ZNK5Catch14ReporterConfig10fullConfigEv
FNDA:1,_ZNK5Catch14ReporterConfig10colourModeEv
FNDA:1,_ZNK5Catch14ReporterConfig13customOptionsB5cxx11Ev
FNDA:1,_ZN5Catch14ReporterConfigD2Ev
FNDA:0,_ZN5Catch14AssertionStatsC2ERKNS_15AssertionResultERKSt6vectorINS_11MessageInfoESaIS5_EERKNS_6TotalsE
FNDA:239,_ZN5Catch12SectionStatsC2EONS_11SectionInfoERKNS_6CountsEdb
FNDA:286,_ZN5Catch13TestCaseStatsC2ERKNS_12TestCaseInfoERKNS_6TotalsEONSt7__cxx1112basic_stringIcSt11char_traitsIcESaIcEEESD_b
FNDA:1,_ZN5Catch12TestRunStatsC2ERKNS_11TestRunInfoERKNS_6TotalsEb
FNDA:0,_ZN5Catch14IEventListenerD0Ev
FNDA:1,_ZN5Catch14IEventListenerD2Ev
FNDA:0,_ZN5Catch16IReporterFactoryD0Ev
FNDA:9,_ZN5Catch16IReporterFactoryD2Ev
FNDA:0,_ZN5Catch20EventListenerFactoryD0Ev
FNDA:0,_ZN5Catch20EventListenerFactoryD2Ev
FNDA:0,_ZN5Catch17ITestCaseRegistryD0Ev
FNDA:1,_ZN5Catch17ITestCaseRegistryD2Ev
FNDA:645,_ZN5Catch16AssertionHandlerC2ENS_9StringRefERKNS_14SourceLineInfoES1_NS_17ResultDisposition5FlagsE
FNDA:615,_ZN5Catch16AssertionHandler10handleExprERKNS_20ITransientExpressionE
FNDA:0,_ZN5Catch16AssertionHandler13handleMessageENS_9ResultWas6OfTypeEONSt7__cxx1112basic_stringIcSt11char_traitsIcESaIcEEE
FNDA:30,_ZNK5Catch16AssertionHandler11allowThrowsEv
FNDA:645,_ZN5Catch16AssertionHandler8completeEv
FNDA:0,_ZZN5Catch16AssertionHandler8completeEvENKUlvE_clEv
FNDA:0,_ZN5Catch16AssertionHandler33handleUnexpectedInflightExceptionEv
FNDA:30,_ZN5Catch16AssertionHandler31handleExceptionThrownAsExpectedEv
FNDA:0,_ZN5Catch16AssertionHandler34handleExceptionNotThrownAsExpectedEv
FNDA:0,_ZN5Catch16AssertionHandler34handleUnexpectedExceptionNotThrownEv
FNDA:0,_ZN5Catch16AssertionHandler25handleThrowingCallSkippedEv
FNDA:0,_ZN5Catch24handleExceptionMatchExprERNS_16AssertionHandlerERKNSt7__cxx1112basic_stringIcSt11char_traitsIcESaIcEEE
FNDA:44,_ZNK5Catch6Detail19CaseInsensitiveLessclENS_9StringRefES2_
FNDA:108,_ZZNK5Catch6Detail19CaseInsensitiveLessclENS_9StringRefES2_ENKUlccE_clEcc
FNDA:0,_ZNK5Catch6Detail22CaseInsensitiveEqualToclENS_9StringRefES2_
FNDA:0,_ZZNK5Catch6Detail22CaseInsensitiveEqualToclENS_9StringRefES2_ENKUlccE_clEcc
FNDA:0,_ZN12_GLOBAL__N_111isOptPrefixEc
FNDA:0,_ZN12_GLOBAL__N_112normaliseOptEN5Catch9StringRefE
FNDA:0,_ZN12_GLOBAL__N_1L20find_first_separatorEN5Catch9StringRefE
FNDA:0,_ZZN12_GLOBAL__N_1L20find_first_separatorEN5Catch9StringRefEENKUlcE_clEc
FNDA:1,_ZN5Catch5Clara6Detail11TokenStream10loadBufferEv
FNDA:1,_ZN5Catch5Clara6Detail11TokenStreamC2ERKNS0_4ArgsE
FNDA:1,_ZN5Catch5Clara6Detail11TokenStreamC2EN9__gnu_cxx17__normal_iteratorIPKNS_9StringRefESt6vectorIS5_SaIS5_EEEESB_
FNDA:0,_ZN5Catch5Clara6Detail11TokenStreamppEv
FNDA:1,_ZN5Catch5Clara6Detail11convertIntoERKNSt7__cxx1112basic_stringIcSt11char_traitsIcESaIcEEERS7_
FNDA:0,_ZN5Catch5Clara6Detail11convertIntoERKNSt7__cxx1112basic_stringIcSt11char_traitsIcESaIcEEERb
FNDA:0,_ZNK5Catch5Clara6Detail10ParserBase11cardinalityEv
FNDA:1,_ZNK5Catch5Clara6Detail10ParserBase5parseERKNS0_4ArgsE
FNDA:1,_ZN5Catch5Clara6Detail10ParseStateC2ENS0_15ParseResultTypeENS1_11TokenStreamE
FNDA:0,_ZN5Catch5Clara6Detail12BoundFlagRef7setFlagEb
FNDA:0,_ZN5Catch5Clara6Detail10ResultBaseD0Ev
FNDA:3,_ZN5Catch5Clara6Detail10ResultBaseD2Ev
FNDA:0,_ZNK5Catch5Clara6Detail8BoundRef11isContainerEv
FNDA:0,_ZNK5Catch5Clara6Detail8BoundRef6isFlagEv
FNDA:0,_ZNK5Catch5Clara6Detail16BoundFlagRefBase6isFlagEv
FNDA:0,_ZNK5Catch5Clara3Arg5parseERKNSt7__cxx1112basic_stringIcSt11char_traitsIcESaIcEEENS0_6Detail11TokenStreamE
FNDA:13,_ZN5Catch5Clara3OptC2ERb
FNDA:0,_ZNK5Catch5Clara3Opt14getHelpColumnsEv
FNDA:0,_ZNK5Catch5Clara3Opt7isMatchENS_9StringRefE
FNDA:0,_ZNK5Catch5Clara3Opt5parseERKNSt7__cxx1112basic_stringIcSt11char_traitsIcESaIcEEENS0_6Detail11TokenStreamE
FNDA:0,_ZNK5Catch5Clara3Opt8validateEv
FNDA:3,_ZN5Catch5Clara7ExeNameC2Ev
FNDA:1,_ZN5Catch5Clara7ExeNameC2ERNSt7__cxx1112basic_stringIcSt11char_traitsIcESaIcEEE
FNDA:0,_ZNK5Catch5Clara7ExeName5parseERKNSt7__cxx1112basic_stringIcSt11char_traitsIcESaIcEEENS0_6Detail11TokenStreamE
FNDA:1,_ZN5Catch5Clara7ExeName3setERKNSt7__cxx1112basic_stringIcSt11char_traitsIcESaIcEEE
FNDA:0,_ZN5Catch5Clara6ParseroRERKS1_
FNDA:0,_ZNK5Catch5Clara6Parser14getHelpColumnsEv
FNDA:0,_ZNK5Catch5Clara6Parser13writeToStreamERSo
FNDA:0,_ZNK5Catch5Clara6Parser8validateEv
FNDA:1,_ZNK5Catch5Clara6Parser5parseERKNSt7__cxx1112basic_stringIcSt11char_traitsIcESaIcEEENS0_6Detail11TokenStreamE
FNDA:1,_ZN5Catch5Clara4ArgsC2EiPKPKc
FNDA:0,_ZN5Catch5Clara4ArgsC2ESt16initializer_listINS_9StringRefEE
FNDA:1,_ZN5Catch5Clara4HelpC2ERb
FNDA:0,_ZZN5Catch5Clara4HelpC4ERbENKUlbE_clEb
FNDA:1,_ZN5Catch21makeCommandLineParserERNS_10ConfigDataE
FNDA:0,_ZZN5Catch21makeCommandLineParserERNS_10ConfigDataEENKUlRKNSt7__cxx1112basic_stringIcSt11char_traitsIcESaIcEEEE_clES9_
FNDA:0,_ZZN5Catch21makeCommandLineParserERNS_10ConfigDataEENKUlRKNSt7__cxx1112basic_stringIcSt11char_traitsIcESaIcEEEE0_clES9_
FNDA:0,_ZZN5Catch21makeCommandLineParserERNS_10ConfigDataEENKUlRKNSt7__cxx1112basic_stringIcSt11char_traitsIcESaIcEEEE1_clES9_
FNDA:0,_ZZN5Catch21makeCommandLineParserERNS_10ConfigDataEENKUlRKNSt7__cxx1112basic_stringIcSt11char_traitsIcESaIcEEEE2_clES9_
FNDA:0,_ZZN5Catch21makeCommandLineParserERNS_10ConfigDataEENKUlRKNSt7__cxx1112basic_stringIcSt11char_traitsIcESaIcEEEE3_clES9_
FNDA:0,_ZZN5Catch21makeCommandLineParserERNS_10ConfigDataEENKUlRKNSt7__cxx1112basic_stringIcSt11char_traitsIcESaIcEEEE4_clES9_
FNDA:0,_ZN5Catch9Benchmark6Detail12_GLOBAL__N_1L18standard_deviationEPKdS4_
FNDA:0,_ZZN5Catch21makeCommandLineParserERNS_10ConfigDataEENKUlRKNSt7__cxx1112basic_stringIcSt11char_traitsIcESaIcEEEE5_clES9_
FNDA:0,_ZZN5Catch21makeCommandLineParserERNS_10ConfigDataEENKUlRKNSt7__cxx1112basic_stringIcSt11char_traitsIcESaIcEEEE6_clES9_
FNDA:0,_ZZN5Catch9Benchmark6Detail12_GLOBAL__N_1L18standard_deviationEPKdS4_ENKUlddE_clEdd
FNDA:0,_ZZN5Catch21makeCommandLineParserERNS_10ConfigDataEENKUlRKNSt7__cxx1112basic_stringIcSt11char_traitsIcESaIcEEEE7_clES9_
FNDA:0,_ZZN5Catch21makeCommandLineParserERNS_10ConfigDataEENKUlRKNSt7__cxx1112basic_stringIcSt11char_traitsIcESaIcEEEE8_clES9_
FNDA:0,_ZZN5Catch21makeCommandLineParserERNS_10ConfigDataEENKUlbE_clEb
FNDA:0,_ZZN5Catch21makeCommandLineParserERNS_10ConfigDataEENKUliE_clEi
FNDA:0,_ZZN5Catch21makeCommandLineParserERNS_10ConfigDataEENKUlbE0_clEb
FNDA:0,_ZN5Catch9Benchmark6Detail12_GLOBAL__N_1L9jackknifeEPFdPKdS4_EPdS7_
FNDA:0,_ZN5Catch10ColourImplD0Ev
FNDA:1,_ZN5Catch10ColourImplD2Ev
FNDA:5,_ZN5Catch10ColourImpl11guardColourENS_6Colour4CodeE
FNDA:5,_ZN5Catch10ColourImpl11ColourGuard10engageImplERSo
FNDA:5,_ZN5Catch10ColourImpl11ColourGuardC2ENS_6Colour4CodeEPKS0_
FNDA:0,_ZN5Catch10ColourImpl11ColourGuardC2EOS1_
FNDA:0,_ZN5Catch10ColourImpl11ColourGuardaSEOS1_
FNDA:5,_ZN5Catch10ColourImpl11ColourGuardD2Ev
FNDA:0,_ZNR5Catch10ColourImpl11ColourGuard6engageERSo
FNDA:0,_ZNO5Catch10ColourImpl11ColourGuard6engageERSo
FNDA:0,_ZN5Catch12_GLOBAL__N_112NoColourImplC2EPNS_7IStreamE
FNDA:0,_ZNK5Catch12_GLOBAL__N_112NoColourImpl3useENS_6Colour4CodeE
FNDA:1,_ZN5Catch12_GLOBAL__N_114ANSIColourImplC2EPNS_7IStreamE
FNDA:1,_ZN5Catch12_GLOBAL__N_114ANSIColourImpl26useImplementationForStreamERKNS_7IStreamE
FNDA:10,_ZNK5Catch12_GLOBAL__N_114ANSIColourImpl3useENS_6Colour4CodeE
FNDA:10,_ZZNK5Catch12_GLOBAL__N_114ANSIColourImpl3useENS_6Colour4CodeEENKUlPKcE_clES5_
FNDA:0,_ZN5Catch9Benchmark6Detail25weighted_average_quantileEiiPdS2_
FNDA:1,_ZN5Catch14makeColourImplENS_10ColourModeEPNS_7IStreamE
FNDA:0,_ZN5Catch21isColourImplAvailableENS_10ColourModeE
FNDA:2,_ZN5Catch24getCurrentMutableContextEv
FNDA:119,_ZN5Catch9sharedRngEv
FNDA:0,_ZN5Catch19writeToDebugConsoleERKNSt7__cxx1112basic_stringIcSt11char_traitsIcESaIcEEE
FNDA:0,_ZN5Catch9Benchmark6Detail17classify_outliersEPKdS3_
FNDA:0,_ZN5Catch16isDebuggerActiveEv
FNDA:0,_ZNK5Catch20ITransientExpression29streamReconstructedExpressionERSo
FNDA:0,_ZN5Catch29formatReconstructedExpressionERSoRKNSt7__cxx1112basic_stringIcSt11char_traitsIcESaIcEEENS_9StringRefES8_
FNDA:0,_ZN5Catch17throw_logic_errorERKNSt7__cxx1112basic_stringIcSt11char_traitsIcESaIcEEE
FNDA:0,_ZN5Catch18throw_domain_errorERKNSt7__cxx1112basic_stringIcSt11char_traitsIcESaIcEEE
FNDA:0,_ZN5Catch19throw_runtime_errorERKNSt7__cxx1112basic_stringIcSt11char_traitsIcESaIcEEE
FNDA:0,_ZN5Catch26IMutableEnumValuesRegistryD0Ev
FNDA:1,_ZN5Catch26IMutableEnumValuesRegistryD2Ev
FNDA:0,_ZN5Catch6Detail12_GLOBAL__N_119extractInstanceNameENS_9StringRefE
FNDA:0,_ZN5Catch6Detail10parseEnumsENS_9StringRefE
FNDA:0,_ZN5Catch6Detail8EnumInfoD2Ev
FNDA:0,_ZNK5Catch6Detail8EnumInfo6lookupEi
FNDA:0,_ZN5Catch6Detail12makeEnumInfoENS_9StringRefES1_RKSt6vectorIiSaIiEE
FNDA:0,_ZN5Catch6Detail18EnumValuesRegistry12registerEnumENS_9StringRefES2_RKSt6vectorIiSaIiEE
FNDA:1,_ZN5Catch10ErrnoGuardC2Ev
FNDA:1,_ZN5Catch10ErrnoGuardD2Ev
FNDA:0,_ZN5Catch12_GLOBAL__N_1L14tryTranslatorsERKSt6vectorINS_6Detail10unique_ptrIKNS_20IExceptionTranslatorEEESaIS6_EE
FNDA:0,_ZN5Catch27ExceptionTranslatorRegistryD0Ev
FNDA:1,_ZN5Catch27ExceptionTranslatorRegistryD2Ev
FNDA:0,_ZN5Catch27ExceptionTranslatorRegistry18registerTranslatorEONS_6Detail10unique_ptrINS_20IExceptionTranslatorEEE
FNDA:0,_ZNK5Catch27ExceptionTranslatorRegistry24translateActiveExceptionB5cxx11Ev
FNDA:0,_ZN5Catch9Benchmark6Detail4meanEPKdS3_
FNDA:0,_ZN12_GLOBAL__N_111reportFatalEPKc
FNDA:0,_ZN5Catch9Benchmark6Detail10normal_cdfEd
FNDA:0,_ZN5Catch9Benchmark6Detail8erfc_invEd
FNDA:168,_ZN5CatchL29restorePreviousSignalHandlersEv
FNDA:0,_ZN5CatchL12handleSignalEi
FNDA:1,_ZN5Catch21FatalConditionHandlerC2Ev
FNDA:1,_ZN5Catch21FatalConditionHandlerD2Ev
FNDA:0,_ZN5Catch9Benchmark6Detail15normal_quantileEd
FNDA:168,_ZN5Catch21FatalConditionHandler15engage_platformEv
FNDA:168,_ZN5Catch21FatalConditionHandler18disengage_platformEv
FNDA:0,_ZN5Catch6Detail13convertToBitsEf
FNDA:0,_ZN5Catch6Detail13convertToBitsEd
FNDA:0,_ZN5Catch6Detail13directCompareEff
FNDA:0,_ZN5Catch6Detail13directCompareEdd
FNDA:1,_ZN5Catch6Detail6getEnvEPKc
FNDA:0,_ZN5Catch7IStreamD0Ev
FNDA:1,_ZN5Catch7IStreamD2Ev
FNDA:0,_ZN5Catch6Detail12_GLOBAL__N_113StreamBufImplINS1_17OutputDebugWriterELm256EEC2Ev
FNDA:0,_ZN5Catch6Detail12_GLOBAL__N_113StreamBufImplINS1_17OutputDebugWriterELm256EED0Ev
FNDA:0,_ZN5Catch6Detail12_GLOBAL__N_113StreamBufImplINS1_17OutputDebugWriterELm256EED2Ev
FNDA:0,_ZN5Catch6Detail12_GLOBAL__N_113StreamBufImplINS1_17OutputDebugWriterELm256EE8overflowEi
FNDA:0,_ZN5Catch6Detail12_GLOBAL__N_113StreamBufImplINS1_17OutputDebugWriterELm256EE4syncEv
FNDA:0,_ZN5Catch6Detail12_GLOBAL__N_117OutputDebugWriterclERKNSt7__cxx1112basic_stringIcSt11char_traitsIcESaIcEEE
FNDA:0,_ZN5Catch6Detail12_GLOBAL__N_110FileStreamC2ERKNSt7__cxx1112basic_stringIcSt11char_traitsIcESaIcEEE
FNDA:0,_ZN5Catch6Detail12_GLOBAL__N_110FileStream6streamEv
FNDA:0,_ZN5Catch9Benchmark6Detail9bootstrapEdPdS2_RKSt6vectorIdSaIdEEPFdPKdS9_E
FNDA:1,_ZN5Catch6Detail12_GLOBAL__N_110CoutStreamC2Ev
FNDA:16,_ZN5Catch6Detail12_GLOBAL__N_110CoutStream6streamEv
FNDA:1,_ZNK5Catch6Detail12_GLOBAL__N_110CoutStream9isConsoleEv
FNDA:0,_ZN5Catch6Detail12_GLOBAL__N_110CerrStreamC2Ev
FNDA:0,_ZN5Catch6Detail12_GLOBAL__N_110CerrStream6streamEv
FNDA:0,_ZNK5Catch6Detail12_GLOBAL__N_110CerrStream9isConsoleEv
FNDA:0,_ZN5Catch6Detail12_GLOBAL__N_114DebugOutStreamC2Ev
FNDA:0,_ZN5Catch6Detail12_GLOBAL__N_114DebugOutStream6streamEv
FNDA:1,_ZN5Catch10makeStreamERKNSt7__cxx1112basic_stringIcSt11char_traitsIcESaIcEEE
FNDA:0,_ZN5Catch12_GLOBAL__N_1L11needsEscapeEc
FNDA:0,_ZN5Catch12_GLOBAL__N_1L19makeEscapeStringRefEc
FNDA:0,_ZN5Catch9JsonUtils6indentERSom
FNDA:0,_ZN5Catch9JsonUtils18appendCommaNewlineERSoRbm
FNDA:0,_ZN5Catch16JsonObjectWriterC2ERSo
FNDA:0,_ZN5Catch16JsonObjectWriterC2ERSom
FNDA:0,_ZN5Catch16JsonObjectWriterC2EOS0_
FNDA:0,_ZN5Catch9Benchmark6Detail18ChronometerConceptD0Ev
FNDA:0,_ZN5Catch9Benchmark6Detail18ChronometerConceptD2Ev
FNDA:0,_ZN5Catch16JsonObjectWriterD2Ev
FNDA:0,_ZN5Catch16JsonObjectWriter5writeENS_9StringRefE
FNDA:0,_ZN5Catch15JsonArrayWriterC2ERSo
FNDA:0,_ZN5Catch15JsonArrayWriterC2ERSom
FNDA:0,_ZN5Catch15JsonArrayWriterC2EOS0_
FNDA:0,_ZN5Catch15JsonArrayWriterD2Ev
FNDA:0,_ZN5Catch15JsonArrayWriter11writeObjectEv
FNDA:0,_ZN5Catch15JsonArrayWriter10writeArrayEv
FNDA:0,_ZN5Catch15JsonArrayWriter5writeEb
FNDA:0,_ZN5Catch15JsonValueWriterC2ERSo
FNDA:0,_ZN5Catch15JsonValueWriterC2ERSom
FNDA:0,_ZNO5Catch15JsonValueWriter11writeObjectEv
FNDA:0,_ZNO5Catch15JsonValueWriter10writeArrayEv
FNDA:0,_ZNO5Catch15JsonValueWriter5writeENS_9StringRefE
FNDA:0,_ZNO5Catch15JsonValueWriter5writeEb
FNDA:0,_ZN5Catch15JsonValueWriter9writeImplENS_9StringRefEb
FNDA:0,_ZN5CatchlsERSoRKNS_14LazyExpressionE
FNDA:1,_ZN5Catch12LeakDetectorC2Ev
FNDA:1,_ZN5Catch12LeakDetectorD2Ev
FNDA:0,_ZN5Catch12_GLOBAL__N_19listTestsERNS_14IEventListenerERKNS_7IConfigE
FNDA:0,_ZZN5Catch9Benchmark6Detail9bootstrapEdPdS2_RKSt6vectorIdSaIdEEPFdPKdS9_EENKUldE_clEd
FNDA:0,_ZN5Catch12_GLOBAL__N_18listTagsERNS_14IEventListenerERKNS_7IConfigE
FNDA:0,_ZN5Catch12_GLOBAL__N_113listReportersERNS_14IEventListenerE
FNDA:0,_ZN5Catch12_GLOBAL__N_113listListenersERNS_14IEventListenerE
FNDA:0,_ZN5Catch7TagInfo3addENS_9StringRefE
FNDA:0,_ZNK5Catch7TagInfo3allB5cxx11Ev
FNDA:1,_ZN5Catch4listERNS_14IEventListenerERKNS_6ConfigE
FNDA:0,_ZZN5Catch9Benchmark6Detail9bootstrapEdPdS2_RKSt6vectorIdSaIdEEPFdPKdS9_EENKUldE0_clEd
FNDA:1,main
FNDA:0,_ZN5Catch11MessageInfoC2ENS_9StringRefERKNS_14SourceLineInfoENS_9ResultWas6OfTypeE
FNDA:0,_ZZN5Catch9Benchmark6Detail9bootstrapEdPdS2_RKSt6vectorIdSaIdEEPFdPKdS9_EENKUldE1_clEd
FNDA:310,_ZN5Catch12_GLOBAL__N_112NoopRedirect12activateImplEv
FNDA:310,_ZN5Catch12_GLOBAL__N_112NoopRedirect14deactivateImplEv
FNDA:168,_ZN5Catch12_GLOBAL__N_112NoopRedirect9getStdoutEv
FNDA:168,_ZN5Catch12_GLOBAL__N_112NoopRedirect9getStderrEv
FNDA:168,_ZN5Catch12_GLOBAL__N_112NoopRedirect12clearBuffersEv
FNDA:0,_ZN5Catch12_GLOBAL__N_119RedirectedStreamNewC2ERSoS2_
FNDA:0,_ZN5Catch12_GLOBAL__N_119RedirectedStreamNew13startRedirectEv
FNDA:0,_ZN5Catch12_GLOBAL__N_119RedirectedStreamNew12stopRedirectEv
FNDA:0,_ZN5Catch12_GLOBAL__N_114StreamRedirectC2Ev
FNDA:0,_ZN5Catch12_GLOBAL__N_114StreamRedirect12activateImplEv
FNDA:0,_ZN5Catch12_GLOBAL__N_114StreamRedirect14deactivateImplEv
FNDA:0,_ZN5Catch12_GLOBAL__N_114StreamRedirect9getStdoutEv
FNDA:0,_ZN5Catch12_GLOBAL__N_114StreamRedirect9getStderrEv
FNDA:0,_ZN5Catch12_GLOBAL__N_114StreamRedirect12clearBuffersEv
FNDA:0,_ZN5Catch9Benchmark6Detail15analyse_samplesEdjPdS2_
FNDA:0,_ZN5Catch19isRedirectAvailableENS_14OutputRedirect4KindE
FNDA:1,_ZN5Catch18makeOutputRedirectEb
FNDA:168,_ZN5Catch14scopedActivateERNS_14OutputRedirectE
FNDA:142,_ZN5Catch16scopedDeactivateERNS_14OutputRedirectE
FNDA:0,_ZN5Catch14OutputRedirectD0Ev
FNDA:1,_ZN5Catch14OutputRedirectD2Ev
FNDA:310,_ZN5Catch13RedirectGuardC2EbRNS_14OutputRedirectE
FNDA:310,_ZN5Catch13RedirectGuardD2Ev
FNDA:0,_ZN5Catch13RedirectGuardC2EOS0_
FNDA:0,_ZN5Catch13RedirectGuardaSEOS0_
FNDA:0,_ZN5Catch9parseUIntERKNSt7__cxx1112basic_stringIcSt11char_traitsIcESaIcEEEi
FNDA:0,_ZZN5Catch9Benchmark6Detail15analyse_samplesEdjPdS2_ENKUlPFdPKdS4_EE_clES6_
FNDA:0,_ZN5Catch5isnanEf
FNDA:0,_ZN5Catch5isnanEd
FNDA:0,_ZN5Catch9nextafterEff
FNDA:0,_ZN5Catch9nextafterEdd
FNDA:240,_ZN5Catch12_GLOBAL__N_112rotate_rightEjj
FNDA:1,_ZN5Catch11SimplePcg32C2Ej
FNDA:120,_ZN5Catch11SimplePcg324seedEj
FNDA:0,_ZN5Catch11SimplePcg327discardEm
FNDA:240,_ZN5Catch11SimplePcg32clEv
FNDA:0,_ZN5CatcheqERKNS_11SimplePcg32ES2_
FNDA:0,_ZN5CatchneERKNS_11SimplePcg32ES2_
FNDA:1,_ZN5Catch18generateRandomSeedENS_12GenerateFromE
FNDA:1,_ZN5Catch16ReporterRegistryC2Ev
FNDA:1,_ZN5Catch16ReporterRegistryD2Ev
FNDA:1,_ZNK5Catch16ReporterRegistry6createERKNSt7__cxx1112basic_stringIcSt11char_traitsIcESaIcEEEONS_14ReporterConfigE
FNDA:0,_ZN5Catch16ReporterRegistry16registerReporterERKNSt7__cxx1112basic_stringIcSt11char_traitsIcESaIcEEENS_6Detail10unique_ptrINS_16IReporterFactoryEEE
FNDA:0,_ZN5Catch16ReporterRegistry16registerListenerENS_6Detail10unique_ptrINS_20EventListenerFactoryEEE
FNDA:0,_ZNK5Catch16ReporterRegistry12getFactoriesB5cxx11Ev
FNDA:1,_ZNK5Catch16ReporterRegistry12getListenersEv
FNDA:0,_ZN5Catch12_GLOBAL__N_111splitKVPairENS_9StringRefE
FNDA:1,_ZN5Catch6Detail17splitReporterSpecB5cxx11ENS_9StringRefE
FNDA:1,_ZZN5Catch6Detail17splitReporterSpecB5cxx11ENS_9StringRefEENKUlmE_clEm
FNDA:0,_ZN5Catch6Detail18stringToColourModeENS_9StringRefE
FNDA:0,_ZN5CatcheqERKNS_12ReporterSpecES2_
FNDA:1,_ZN5Catch17parseReporterSpecENS_9StringRefE
FNDA:0,_ZN12_GLOBAL__N_116marginComparisonEddd
FNDA:1,_ZN5Catch12ReporterSpecC2ENSt7__cxx1112basic_stringIcSt11char_traitsIcESaIcEEENS_8OptionalIS6_EENS7_INS_10ColourModeEEESt3mapIS6_S6_St4lessIS6_ESaISt4pairIKS6_S6_EEE
FNDA:0,_ZN5Catch6ApproxC2Ed
FNDA:1,_ZN5Catch13StringStreams3addB5cxx11Ev
FNDA:1,_ZN5Catch13StringStreams7releaseEmPSo
FNDA:1,_ZN5Catch20ReusableStringStreamC2Ev
FNDA:1,_ZN5Catch20ReusableStringStreamD2Ev
FNDA:0,_ZNK5Catch20ReusableStringStream3strB5cxx11Ev
FNDA:0,_ZN5Catch20ReusableStringStream3strERKNSt7__cxx1112basic_stringIcSt11char_traitsIcESaIcEEE
FNDA:0,_ZN5Catch10Generators12_GLOBAL__N_116GeneratorTrackerC2EONS_16TestCaseTracking15NameAndLocationERNS3_14TrackerContextEPNS3_8ITrackerE
FNDA:0,_ZN5Catch10Generators12_GLOBAL__N_116GeneratorTracker7acquireERNS_16TestCaseTracking14TrackerContextERKNS3_18NameAndLocationRefE
FNDA:0,_ZN5Catch6Approx6customEv
FNDA:0,_ZNK5Catch10Generators12_GLOBAL__N_116GeneratorTracker18isGeneratorTrackerEv
FNDA:0,_ZNK5Catch10Generators12_GLOBAL__N_116GeneratorTracker12hasGeneratorEv
FNDA:0,_ZNK5Catch6ApproxngEv
FNDA:0,_ZN5Catch10Generators12_GLOBAL__N_116GeneratorTracker5closeEv
FNDA:0,_ZZN5Catch10Generators12_GLOBAL__N_116GeneratorTracker5closeEvENKUlvE_clEv
FNDA:0,_ZZZN5Catch10Generators12_GLOBAL__N_116GeneratorTracker5closeEvENKUlvE_clEvENKUlRKNS_6Detail10unique_ptrINS_16TestCaseTracking8ITrackerEEEE_clESA_
FNDA:0,_ZNK5Catch6Approx8toStringB5cxx11Ev
FNDA:0,_ZNK5Catch10Generators12_GLOBAL__N_116GeneratorTracker12getGeneratorEv
FNDA:0,_ZN5Catch10Generators12_GLOBAL__N_116GeneratorTracker12setGeneratorEONS_6Detail10unique_ptrINS0_20GeneratorUntypedBaseEEE
FNDA:1,_ZN5Catch10RunContextC2EPKNS_7IConfigEONS_6Detail10unique_ptrINS_14IEventListenerEEE
FNDA:0,_ZNK5Catch6Approx22equalityComparisonImplEd
FNDA:0,_ZN5Catch10RunContextD0Ev
FNDA:1,_ZN5Catch10RunContextD2Ev
FNDA:118,_ZN5Catch10RunContext7runTestERKNS_14TestCaseHandleE
FNDA:0,_ZN5Catch6Approx9setMarginEd
FNDA:0,_ZN5Catch9Benchmark6Detail7analyseERKNS_7IConfigEPNSt6chrono8durationIdSt5ratioILl1ELl1000000000EEEESA_
FNDA:0,_ZN5Catch10RunContext14assertionEndedEONS_15AssertionResultE
FNDA:0,_ZN5Catch6Approx10setEpsilonEd
FNDA:645,_ZN5Catch10RunContext22notifyAssertionStartedERKNS_13AssertionInfoE
FNDA:279,_ZN5Catch10RunContext14sectionStartedENS_9StringRefERKNS_14SourceLineInfoERNS_6CountsE
FNDA:0,_ZN5Catch10RunContext23acquireGeneratorTrackerENS_9StringRefERKNS_14SourceLineInfoE
FNDA:0,_ZN5Catch10RunContext22createGeneratorTrackerENS_9StringRefENS_14SourceLineInfoEONS_6Detail10unique_ptrINS_10Generators20GeneratorUntypedBaseEEE
FNDA:239,_ZN5Catch10RunContext24testForMissingAssertionsERNS_6CountsE
FNDA:0,_ZN5Catch8literalsli2_aEe
FNDA:71,_ZN5Catch10RunContext12sectionEndedEONS_14SectionEndInfoE
FNDA:0,_ZN5Catch10RunContext17sectionEndedEarlyEONS_14SectionEndInfoE
FNDA:0,_ZN5Catch8literalsli2_aEy
FNDA:0,_ZN5Catch10RunContext18benchmarkPreparingENS_9StringRefE
FNDA:0,_ZN5Catch10RunContext17benchmarkStartingERKNS_13BenchmarkInfoE
FNDA:0,_ZN5Catch10RunContext14benchmarkEndedERKNS_14BenchmarkStatsINSt6chrono8durationIdSt5ratioILl1ELl1000000000EEEEEE
FNDA:0,_ZN5Catch10RunContext15benchmarkFailedENS_9StringRefE
FNDA:0,_ZNK5Catch10RunContext18getCurrentTestNameB5cxx11Ev
FNDA:0,_ZNK5Catch10RunContext13getLastResultEv
FNDA:0,_ZN5Catch10RunContext22exceptionEarlyReportedEv
FNDA:0,_ZN5Catch10RunContext25handleFatalErrorConditionENS_9StringRefE
FNDA:0,_ZN5Catch11StringMakerINS_6ApproxEvE7convertB5cxx11ERKS1_
FNDA:0,_ZN5Catch10RunContext19lastAssertionPassedEv
FNDA:645,_ZN5Catch10RunContext23assertionPassedFastPathENS_14SourceLineInfoE
FNDA:933,_ZN5Catch10RunContext23updateTotalsFromAtomicsEv
FNDA:455,_ZNK5Catch10RunContext8abortingEv
FNDA:168,_ZN5Catch10RunContext14runCurrentTestEv
FNDA:30,_ZN5Catch19AssertionResultDataC2ENS_9ResultWas6OfTypeERKNS_14LazyExpressionE
FNDA:168,_ZN5Catch10RunContext20invokeActiveTestCaseEv
FNDA:0,_ZNK5Catch19AssertionResultData21reconstructExpressionB5cxx11Ev
FNDA:168,_ZN5Catch10RunContext24handleUnfinishedSectionsEv
FNDA:615,_ZN5Catch10RunContext10handleExprERKNS_13AssertionInfoERKNS_20ITransientExpressionERNS_17AssertionReactionE
FNDA:0,_ZN5Catch10RunContext10reportExprERKNS_13AssertionInfoENS_9ResultWas6OfTypeEPKNS_20ITransientExpressionEb
FNDA:0,_ZN5Catch10RunContext13handleMessageERKNS_13AssertionInfoENS_9ResultWas6OfTypeEONSt7__cxx1112basic_stringIcSt11char_traitsIcESaIcEEERNS_17AssertionReactionE
FNDA:0,_ZN5Catch10RunContext34handleUnexpectedExceptionNotThrownERKNS_13AssertionInfoERNS_17AssertionReactionE
FNDA:0,_ZN5Catch10RunContext33handleUnexpectedInflightExceptionERKNS_13AssertionInfoEONSt7__cxx1112basic_stringIcSt11char_traitsIcESaIcEEERNS_17AssertionReactionE
FNDA:0,_ZN5Catch10RunContext16populateReactionERNS_17AssertionReactionEb
FNDA:0,_ZN5Catch10RunContext22makeDummyAssertionInfoEv
FNDA:30,_ZN5Catch15AssertionResultC2ERKNS_13AssertionInfoEONS_19AssertionResultDataE
FNDA:0,_ZN5Catch10RunContext16handleIncompleteERKNS_13AssertionInfoE
FNDA:30,_ZN5Catch10RunContext13handleNonExprERKNS_13AssertionInfoENS_9ResultWas6OfTypeERNS_17AssertionReactionE
FNDA:0,_ZN5Catch14IResultCapture17pushScopedMessageEONS_11MessageInfoE
FNDA:0,_ZN5Catch14IResultCapture16popScopedMessageEj
FNDA:0,_ZZN5Catch14IResultCapture16popScopedMessageEjENKUlRKNS_11MessageInfoEE_clES3_
FNDA:0,_ZN5Catch14IResultCapture22emplaceUnscopedMessageEONS_14MessageBuilderE
FNDA:119,_ZN5Catch7seedRngERKNS_7IConfigE
FNDA:0,_ZNK5Catch15AssertionResult9succeededEv
FNDA:0,_ZN5Catch7rngSeedEv
FNDA:0,_ZN5Catch7SectionC2EONS_11SectionInfoE
FNDA:279,_ZN5Catch7SectionC2ERKNS_14SourceLineInfoENS_9StringRefEPKc
FNDA:279,_ZN5Catch7SectionD2Ev
FNDA:30,_ZNK5Catch15AssertionResult4isOkEv
FNDA:279,_ZNK5Catch7SectioncvbEv
FNDA:4,_ZN5Catch12_GLOBAL__N_1L13getSingletonsEv
FNDA:0,_ZN5Catch10ISingletonD0Ev
FNDA:2,_ZN5Catch10ISingletonD2Ev
FNDA:2,_ZN5Catch12addSingletonEPNS_10ISingletonE
FNDA:2,_ZN5Catch17cleanupSingletonsEv
FNDA:0,_ZNK5Catch15AssertionResult13getResultTypeEv
FNDA:258,_ZNK5Catch14SourceLineInfoeqERKS0_
FNDA:0,_ZNK5Catch14SourceLineInfoltERKS0_
FNDA:0,_ZN5CatchlsERSoRKNS_14SourceLineInfoE
FNDA:0,_ZN5Catch24StartupExceptionRegistry3addERKNSt15__exception_ptr13exception_ptrE
FNDA:0,_ZNK5Catch15AssertionResult13hasExpressionEv
FNDA:1,_ZNK5Catch24StartupExceptionRegistry13getExceptionsEv
FNDA:1,_ZN5Catch4coutEv
FNDA:0,_ZN5Catch4cerrEv
FNDA:0,_ZN5Catch4clogEv
FNDA:0,_ZN5Catch10startsWithERKNSt7__cxx1112basic_stringIcSt11char_traitsIcESaIcEEES7_
FNDA:118,_ZN5Catch10startsWithENS_9StringRefEc
FNDA:0,_ZNK5Catch15AssertionResult10hasMessageEv
FNDA:0,_ZN5Catch8endsWithERKNSt7__cxx1112basic_stringIcSt11char_traitsIcESaIcEEES7_
FNDA:0,_ZN5Catch8endsWithERKNSt7__cxx1112basic_stringIcSt11char_traitsIcESaIcEEEc
FNDA:0,_ZN5Catch8containsERKNSt7__cxx1112basic_stringIcSt11char_traitsIcESaIcEEES7_
FNDA:0,_ZN5Catch14toLowerInPlaceERNSt7__cxx1112basic_stringIcSt11char_traitsIcESaIcEEE
FNDA:0,_ZN5Catch7toLowerERKNSt7__cxx1112basic_stringIcSt11char_traitsIcESaIcEEE
FNDA:216,_ZN5Catch7toLowerEc
FNDA:0,_ZN5Catch4trimERKNSt7__cxx1112basic_stringIcSt11char_traitsIcESaIcEEE
FNDA:307,_ZN5Catch4trimENS_9StringRefE
FNDA:614,_ZZN5Catch4trimENS_9StringRefEENKUlcE_clEc
FNDA:0,_ZNK5Catch15AssertionResult13getExpressionB5cxx11Ev
FNDA:0,_ZN5Catch14replaceInPlaceERNSt7__cxx1112basic_stringIcSt11char_traitsIcESaIcEEERKS5_S8_
FNDA:0,_ZN5Catch14splitStringRefENS_9StringRefEc
FNDA:2,_ZN5CatchlsERSoRKNS_9pluraliseE
FNDA:748,_ZN5Catch9StringRefC2EPKc
FNDA:0,_ZNK5Catch9StringRefltES0_
FNDA:0,_ZNK5Catch9StringRef7compareES0_
FNDA:2,_ZN5CatchlsERSoNS_9StringRefE
FNDA:0,_ZN5CatchplB5cxx11ENS_9StringRefES0_
FNDA:118,_ZN5CatchpLERNSt7__cxx1112basic_stringIcSt11char_traitsIcESaIcEEENS_9StringRefE
FNDA:0,_ZN5Catch16TagAliasRegistryD0Ev
FNDA:1,_ZN5Catch16TagAliasRegistryD2Ev
FNDA:0,_ZNK5Catch16TagAliasRegistry4findERKNSt7__cxx1112basic_stringIcSt11char_traitsIcESaIcEEE
FNDA:0,_ZNK5Catch16TagAliasRegistry13expandAliasesERKNSt7__cxx1112basic_stringIcSt11char_traitsIcESaIcEEE
FNDA:0,_ZNK5Catch15AssertionResult20getExpressionInMacroB5cxx11Ev
FNDA:0,_ZN5Catch16TagAliasRegistry3addERKNSt7__cxx1112basic_stringIcSt11char_traitsIcESaIcEEES8_RKNS_14SourceLineInfoE
FNDA:0,_ZN5Catch17ITagAliasRegistryD0Ev
FNDA:1,_ZN5Catch17ITagAliasRegistryD2Ev
FNDA:1,_ZN5Catch17ITagAliasRegistry3getEv
FNDA:1,_ZN5Catch18TestCaseInfoHasherC2Em
FNDA:118,_ZNK5Catch18TestCaseInfoHasherclERKNS_12TestCaseInfoE
FNDA:1,_ZN5Catch12_GLOBAL__N_1L27enforceNoDuplicateTestCasesERKSt6vectorINS_14TestCaseHandleESaIS2_EE
FNDA:1012,_ZZN5Catch12_GLOBAL__N_1L27enforceNoDuplicateTestCasesERKSt6vectorINS_14TestCaseHandleESaIS2_EEENKUlPKNS_12TestCaseInfoES9_E_clES9_S9_
FNDA:0,_ZN5Catch12_GLOBAL__N_1L9matchTestERKNS_14TestCaseHandleERKNS_8TestSpecERKNS_7IConfigE
FNDA:1,_ZN5Catch9sortTestsERKNS_7IConfigERKSt6vectorINS_14TestCaseHandleESaIS4_EE
FNDA:0,_ZZN5Catch9sortTestsERKNS_7IConfigERKSt6vectorINS_14TestCaseHandleESaIS4_EEENKUlRKS4_SA_E_clESA_SA_
FNDA:968,_ZZN5Catch9sortTestsERKNS_7IConfigERKSt6vectorINS_14TestCaseHandleESaIS4_EEENKUlRKSt4pairImS4_ESC_E_clESC_SC_
FNDA:0,_ZNK5Catch15AssertionResult21hasExpandedExpressionEv
FNDA:0,_ZN5Catch11isThrowSafeERKNS_14TestCaseHandleERKNS_7IConfigE
FNDA:0,_ZN5Catch11filterTestsERKSt6vectorINS_14TestCaseHandleESaIS1_EERKNS_8TestSpecERKNS_7IConfigE
FNDA:1,_ZN5Catch21getAllTestCasesSortedERKNS_7IConfigE
FNDA:0,_ZN5Catch12TestRegistryD0Ev
FNDA:1,_ZN5Catch12TestRegistryD2Ev
FNDA:0,_ZNK5Catch15AssertionResult21getExpandedExpressionB5cxx11Ev
FNDA:118,_ZN5Catch12TestRegistry12registerTestENS_6Detail10unique_ptrINS_12TestCaseInfoEEENS2_INS_12ITestInvokerEEE
FNDA:0,_ZNK5Catch12TestRegistry11getAllInfosEv
FNDA:0,_ZNK5Catch12TestRegistry11getAllTestsEv
FNDA:1,_ZNK5Catch12TestRegistry17getAllTestsSortedERKNS_7IConfigE
FNDA:307,_ZN5Catch16TestCaseTracking15NameAndLocationC2EONSt7__cxx1112basic_stringIcSt11char_traitsIcESaIcEEERKNS_14SourceLineInfoE
FNDA:0,_ZN5Catch16TestCaseTracking8ITrackerD0Ev
FNDA:307,_ZN5Catch16TestCaseTracking8ITrackerD2Ev
FNDA:0,_ZN5Catch16TestCaseTracking8ITracker23markAsNeedingAnotherRunEv
FNDA:189,_ZN5Catch16TestCaseTracking8ITracker8addChildEONS_6Detail10unique_ptrIS1_EE
FNDA:447,_ZN5Catch16TestCaseTracking8ITracker9findChildERKNS0_18NameAndLocationRefE
FNDA:769,_ZZN5Catch16TestCaseTracking8ITracker9findChildERKNS0_18NameAndLocationRefEENKUlRKNS_6Detail10unique_ptrIS1_EEE_clES9_
FNDA:0,_ZNK5Catch15AssertionResult10getMessageEv
FNDA:0,_ZNK5Catch16TestCaseTracking8ITracker16isSectionTrackerEv
FNDA:0,_ZNK5Catch16TestCaseTracking8ITracker18isGeneratorTrackerEv
FNDA:279,_ZNK5Catch16TestCaseTracking8ITracker6isOpenEv
FNDA:0,_ZNK5Catch16TestCaseTracking8ITracker10hasStartedEv
FNDA:310,_ZN5Catch16TestCaseTracking8ITracker9openChildEv
FNDA:118,_ZN5Catch16TestCaseTracking14TrackerContext8startRunEv
FNDA:0,_ZNK5Catch15AssertionResult13getSourceInfoEv
FNDA:239,_ZN5Catch16TestCaseTracking14TrackerContext13completeCycleEv
FNDA:447,_ZNK5Catch16TestCaseTracking14TrackerContext14completedCycleEv
FNDA:478,_ZN5Catch16TestCaseTracking14TrackerContext17setCurrentTrackerEPNS0_8ITrackerE
FNDA:307,_ZN5Catch16TestCaseTracking11TrackerBaseC2EONS0_15NameAndLocationERNS0_14TrackerContextEPNS0_8ITrackerE
FNDA:743,_ZNK5Catch16TestCaseTracking11TrackerBase10isCompleteEv
FNDA:239,_ZN5Catch16TestCaseTracking11TrackerBase4openEv
FNDA:239,_ZN5Catch16TestCaseTracking11TrackerBase5closeEv
FNDA:0,_ZNK5Catch15AssertionResult16getTestMacroNameEv
FNDA:225,_ZZN5Catch16TestCaseTracking11TrackerBase5closeEvENKUlRKNS_6Detail10unique_ptrINS0_8ITrackerEEEE_clES7_
FNDA:0,_ZN5Catch16TestCaseTracking11TrackerBase4failEv
FNDA:239,_ZN5Catch16TestCaseTracking11TrackerBase12moveToParentEv
FNDA:239,_ZN5Catch16TestCaseTracking11TrackerBase10moveToThisEv
FNDA:307,_ZN5Catch16TestCaseTracking14SectionTrackerC2EONS0_15NameAndLocationERNS0_14TrackerContextEPNS0_8ITrackerE
FNDA:743,_ZNK5Catch16TestCaseTracking14SectionTracker10isCompleteEv
FNDA:565,_ZNK5Catch16TestCaseTracking14SectionTracker16isSectionTrackerEv
FNDA:447,_ZN5Catch16TestCaseTracking14SectionTracker7acquireERNS0_14TrackerContextERKNS0_18NameAndLocationRefE
FNDA:343,_ZN5Catch16TestCaseTracking14SectionTracker7tryOpenEv
FNDA:118,_ZN5Catch16TestCaseTracking14SectionTracker17addInitialFiltersERKSt6vectorINSt7__cxx1112basic_stringIcSt11char_traitsIcESaIcEEESaIS8_EE
FNDA:189,_ZN5Catch16TestCaseTracking14SectionTracker14addNextFiltersERKSt6vectorINS_9StringRefESaIS3_EE
FNDA:0,_ZNK5Catch16TestCaseTracking14SectionTracker11trimmedNameEv
FNDA:0,_ZN5Catch28throw_test_failure_exceptionEv
FNDA:1,_ZN5Catch12_GLOBAL__N_1L21enableBazelEnvSupportEv
FNDA:0,_ZN5Catch25throw_test_skip_exceptionEv
FNDA:118,_ZN5Catch12ITestInvoker15prepareTestCaseEv
FNDA:118,_ZN5Catch12ITestInvoker16tearDownTestCaseEv
FNDA:0,_ZN5Catch12ITestInvokerD0Ev
FNDA:118,_ZN5Catch12ITestInvokerD2Ev
FNDA:118,_ZN5Catch12_GLOBAL__N_1L16extractClassNameENS_9StringRefE
FNDA:118,_ZN5Catch12_GLOBAL__N_121TestInvokerAsFunctionC2EPFvvE
FNDA:168,_ZNK5Catch12_GLOBAL__N_121TestInvokerAsFunction6invokeEv
FNDA:118,_ZN5Catch15makeTestInvokerEPFvvE
FNDA:118,_ZN5Catch7AutoRegC2ENS_6Detail10unique_ptrINS_12ITestInvokerEEERKNS_14SourceLineInfoENS_9StringRefERKNS_11NameAndTagsE
FNDA:1,_ZN5Catch14TestSpecParserC2ERKNS_17ITagAliasRegistryE
FNDA:0,_ZN5Catch14TestSpecParser5parseERKNSt7__cxx1112basic_stringIcSt11char_traitsIcESaIcEEE
FNDA:1,_ZN5Catch14TestSpecParser8testSpecEv
FNDA:0,_ZN5Catch14TestSpecParser9visitCharEc
FNDA:0,_ZN5Catch12_GLOBAL__N_1L24readBazelShardingOptionsEv
FNDA:0,_ZN5Catch14TestSpecParser15processNoneCharEc
FNDA:0,_ZN5Catch14TestSpecParser15processNameCharEc
FNDA:0,_ZN5Catch14TestSpecParser16processOtherCharEc
FNDA:0,_ZN5Catch14TestSpecParser12startNewModeENS0_4ModeE
FNDA:0,_ZN5Catch14TestSpecParser7endModeEv
FNDA:0,_ZN5Catch14TestSpecParser6escapeEv
FNDA:0,_ZNK5Catch14TestSpecParser13isControlCharEc
FNDA:1,_ZN5Catch14TestSpecParser9addFilterEv
FNDA:0,_ZN5Catch14TestSpecParser12saveLastModeEv
FNDA:0,_ZN5Catch14TestSpecParser20revertBackToLastModeEv
FNDA:0,_ZZN5Catch12_GLOBAL__N_1L24readBazelShardingOptionsEvENKUlPKcE_clES2_
FNDA:0,_ZN5Catch14TestSpecParser8separateEv
FNDA:0,_ZN5Catch14TestSpecParser17preprocessPatternB5cxx11Ev
FNDA:0,_ZN5Catch14TestSpecParser14addNamePatternEv
FNDA:0,_ZN5Catch14TestSpecParser13addTagPatternEv
FNDA:0,_ZZN5Catch9Benchmark6Detail7analyseERKNS_7IConfigEPNSt6chrono8durationIdSt5ratioILl1ELl1000000000EEEESA_ENKUlNS0_8EstimateIdEEE_clESC_
FNDA:0,_ZN12_GLOBAL__N_112isWhitespaceEc
FNDA:0,_ZN12_GLOBAL__N_117isBreakableBeforeEc
FNDA:0,_ZN12_GLOBAL__N_116isBreakableAfterEc
FNDA:0,_ZN5Catch8TextFlow18AnsiSkippingString16preprocessStringEv
FNDA:0,_ZN5Catch8TextFlow18AnsiSkippingStringC2ERKNSt7__cxx1112basic_stringIcSt11char_traitsIcESaIcEEE
FNDA:0,_ZN5Catch8TextFlow18AnsiSkippingStringC2EONSt7__cxx1112basic_stringIcSt11char_traitsIcESaIcEEE
FNDA:0,_ZNK5Catch8TextFlow18AnsiSkippingString5beginEv
FNDA:0,_ZNK5Catch8TextFlow18AnsiSkippingString3endEv
FNDA:0,_ZNK5Catch8TextFlow18AnsiSkippingString9substringB5cxx11ENS1_14const_iteratorES2_
FNDA:0,_ZZNK5Catch8TextFlow18AnsiSkippingString9substringB5cxx11ENS1_14const_iteratorES2_ENKUlcE_clEc
FNDA:0,_ZN5Catch8TextFlow18AnsiSkippingString14const_iterator19tryParseAnsiEscapesEv
FNDA:0,_ZN5Catch8TextFlow18AnsiSkippingString14const_iterator7advanceEv
FNDA:0,_ZN5Catch8TextFlow18AnsiSkippingString14const_iterator9unadvanceEv
FNDA:0,_ZN5Catch8TextFlowL10isBoundaryERKNS0_18AnsiSkippingStringENS1_14const_iteratorE
FNDA:0,_ZN5Catch8TextFlow6Column14const_iterator10calcLengthEv
FNDA:0,_ZNK5Catch8TextFlow6Column14const_iterator10indentSizeEv
FNDA:0,_ZNK5Catch8TextFlow6Column14const_iterator18addIndentAndSuffixB5cxx11ENS0_18AnsiSkippingString14const_iteratorES4_
FNDA:0,_ZN5Catch8TextFlow6Column14const_iteratorC2ERKS1_
FNDA:0,_ZNK5Catch8TextFlow6Column14const_iteratordeB5cxx11Ev
FNDA:0,_ZN5Catch8TextFlow6Column14const_iteratorppEv
FNDA:0,_ZN5Catch8TextFlow6Column14const_iteratorppEi
FNDA:0,_ZN5Catch8TextFlowlsERSoRKNS0_6ColumnE
FNDA:0,_ZN5Catch8TextFlow6SpacerEm
FNDA:0,_ZN5Catch8TextFlow7Columns8iteratorC2ERKS1_NS2_6EndTagE
FNDA:0,_ZN5Catch8TextFlow7Columns8iteratorC2ERKS1_
FNDA:0,_ZNK5Catch8TextFlow7Columns8iteratordeB5cxx11Ev
FNDA:0,_ZN5Catch8TextFlow7Columns8iteratorppEv
FNDA:0,_ZN5CatcheqERKNS_21ProcessedReporterSpecES2_
FNDA:0,_ZN5Catch8TextFlow7Columns8iteratorppEi
FNDA:0,_ZN5Catch8TextFlowlsERSoRKNS0_7ColumnsE
FNDA:0,_ZN5Catch8TextFlowplERKNS0_6ColumnES3_
FNDA:0,_ZN5Catch8TextFlowplEONS0_6ColumnES2_
FNDA:0,_ZN5Catch8TextFlowpLERNS0_7ColumnsERKNS0_6ColumnE
FNDA:0,_ZN5Catch8TextFlowpLERNS0_7ColumnsEONS0_6ColumnE
FNDA:0,_ZN5Catch8TextFlowplERKNS0_7ColumnsERKNS0_6ColumnE
FNDA:0,_ZN5Catch8TextFlowplEONS0_7ColumnsEONS0_6ColumnE
FNDA:71,_ZN5Catch19uncaught_exceptionsEv
FNDA:0,_ZN5Catch15WildcardPatternC2ERKNSt7__cxx1112basic_stringIcSt11char_traitsIcESaIcEEENS_13CaseSensitiveE
FNDA:1,_ZN5Catch6ConfigC2ERKNS_10ConfigDataE
FNDA:0,_ZNK5Catch15WildcardPattern7matchesERKNSt7__cxx1112basic_stringIcSt11char_traitsIcESaIcEEE
FNDA:0,_ZNK5Catch15WildcardPattern15normaliseStringERKNSt7__cxx1112basic_stringIcSt11char_traitsIcESaIcEEE
FNDA:0,_ZN5Catch12_GLOBAL__N_113trailingBytesEh
FNDA:0,_ZN5Catch12_GLOBAL__N_111headerValueEh
FNDA:0,_ZN5Catch12_GLOBAL__N_113hexEscapeCharERSoh
FNDA:0,_ZN5Catch12_GLOBAL__N_113shouldNewlineENS_13XmlFormattingE
FNDA:0,_ZN5Catch12_GLOBAL__N_112shouldIndentENS_13XmlFormattingE
FNDA:0,_ZNK5Catch9XmlEncode8encodeToERSo
FNDA:0,_ZZNK5Catch9XmlEncode8encodeToERSoENKUlmE_clEm
FNDA:0,_ZN5CatchlsERSoRKNS_9XmlEncodeE
FNDA:0,_ZN5Catch9XmlWriter13ScopedElementC2EPS0_NS_13XmlFormattingE
FNDA:0,_ZN5Catch9XmlWriter13ScopedElementC2EOS1_
FNDA:0,_ZN5Catch9XmlWriter13ScopedElementaSEOS1_
FNDA:0,_ZN5Catch9XmlWriter13ScopedElementD2Ev
FNDA:0,_ZN5Catch9XmlWriter13ScopedElement9writeTextENS_9StringRefENS_13XmlFormattingE
FNDA:0,_ZN5Catch9XmlWriter13ScopedElement14writeAttributeENS_9StringRefES2_
FNDA:0,_ZN5Catch9XmlWriterC2ERSo
FNDA:0,_ZN5Catch9XmlWriterD2Ev
FNDA:0,_ZN5Catch9XmlWriter12startElementERKNSt7__cxx1112basic_stringIcSt11char_traitsIcESaIcEEENS_13XmlFormattingE
FNDA:0,_ZN5Catch9XmlWriter13scopedElementERKNSt7__cxx1112basic_stringIcSt11char_traitsIcESaIcEEENS_13XmlFormattingE
FNDA:0,_ZN5Catch9XmlWriter10endElementENS_13XmlFormattingE
FNDA:0,_ZN5Catch9XmlWriter14writeAttributeENS_9StringRefES1_
FNDA:0,_ZN5Catch9XmlWriter14writeAttributeENS_9StringRefEb
FNDA:0,_ZN5Catch9XmlWriter14writeAttributeENS_9StringRefEPKc
FNDA:0,_ZN5Catch9XmlWriter9writeTextENS_9StringRefENS_13XmlFormattingE
FNDA:0,_ZN5Catch9XmlWriter12writeCommentENS_9StringRefENS_13XmlFormattingE
FNDA:0,_ZN5Catch9XmlWriter18writeStylesheetRefENS_9StringRefE
FNDA:0,_ZN5Catch9XmlWriter15ensureTagClosedEv
FNDA:0,_ZN5Catch9XmlWriter15applyFormattingENS_13XmlFormattingE
FNDA:0,_ZN5Catch9XmlWriter16writeDeclarationEv
FNDA:0,_ZN5Catch9XmlWriter18newlineIfNecessaryEv
FNDA:0,_ZNK5Catch8Matchers18MatcherUntypedBase8toStringB5cxx11Ev
FNDA:0,_ZN5Catch8Matchers18MatcherUntypedBaseD0Ev
FNDA:0,_ZN5Catch8Matchers18MatcherUntypedBaseD2Ev
FNDA:0,_ZNK5Catch8Matchers14IsEmptyMatcher8describeB5cxx11Ev
FNDA:0,_ZNK5Catch8Matchers14HasSizeMatcher8describeB5cxx11Ev
FNDA:0,_ZN5Catch8Matchers7IsEmptyEv
FNDA:0,_ZN5Catch8Matchers6SizeIsEm
FNDA:0,_ZNK5Catch8Matchers23ExceptionMessageMatcher5matchERKSt9exception
FNDA:0,_ZNK5Catch8Matchers23ExceptionMessageMatcher8describeB5cxx11Ev
FNDA:0,_ZN5Catch8Matchers7MessageERKNSt7__cxx1112basic_stringIcSt11char_traitsIcESaIcEEE
FNDA:0,_ZN5Catch12_GLOBAL__N_115almostEqualUlpsIdEEbT_S2_m
FNDA:0,_ZN5Catch12_GLOBAL__N_115almostEqualUlpsIfEEbT_S2_m
FNDA:0,_ZN5Catch12_GLOBAL__N_14stepIdEET_S2_S2_m
FNDA:0,_ZN5Catch12_GLOBAL__N_14stepIfEET_S2_S2_m
FNDA:0,_ZN5Catch12_GLOBAL__N_116marginComparisonEddd
FNDA:0,_ZN5Catch12_GLOBAL__N_15writeIdEEvRSoT_
FNDA:0,_ZN5Catch12_GLOBAL__N_15writeIfEEvRSoT_
FNDA:0,_ZN5Catch8Matchers16WithinAbsMatcherC2Edd
FNDA:0,_ZNK5Catch8Matchers16WithinAbsMatcher5matchERKd
FNDA:0,_ZNK5Catch8Matchers16WithinAbsMatcher8describeB5cxx11Ev
FNDA:0,_ZN5Catch8Matchers17WithinUlpsMatcherC2EdmNS0_6Detail17FloatingPointKindE
FNDA:0,_ZNK5Catch8Matchers17WithinUlpsMatcher5matchERKd
FNDA:0,_ZNK5Catch8Matchers17WithinUlpsMatcher8describeB5cxx11Ev
FNDA:0,_ZN5Catch8Matchers16WithinRelMatcherC2Edd
FNDA:0,_ZNK5Catch8Matchers16WithinRelMatcher5matchERKd
FNDA:0,_ZNK5Catch8Matchers16WithinRelMatcher8describeB5cxx11Ev
FNDA:0,_ZN5Catch8Matchers9WithinULPEdm
FNDA:0,_ZN5Catch8Matchers9WithinULPEfm
FNDA:0,_ZN5Catch8Matchers9WithinAbsEdd
FNDA:0,_ZN5Catch8Matchers9WithinRelEdd
FNDA:0,_ZN5Catch8Matchers9WithinRelEd
FNDA:0,_ZN5Catch8Matchers9WithinRelEff
FNDA:0,_ZN5Catch8Matchers9WithinRelEf
FNDA:0,_ZNK5Catch8Matchers12IsNaNMatcher5matchERKd
FNDA:0,_ZNK5Catch8Matchers12IsNaNMatcher8describeB5cxx11Ev
FNDA:0,_ZN5Catch8Matchers5IsNaNEv
FNDA:0,_ZN5Catch8Matchers6Detail19finalizeDescriptionERKNSt7__cxx1112basic_stringIcSt11char_traitsIcESaIcEEE
FNDA:0,_ZNK5Catch8Matchers14AllTrueMatcher8describeB5cxx11Ev
FNDA:0,_ZN5Catch8Matchers7AllTrueEv
FNDA:0,_ZNK5Catch8Matchers15NoneTrueMatcher8describeB5cxx11Ev
FNDA:0,_ZN5Catch8Matchers8NoneTrueEv
FNDA:0,_ZNK5Catch8Matchers14AnyTrueMatcher8describeB5cxx11Ev
FNDA:0,_ZN5Catch8Matchers7AnyTrueEv
FNDA:1,_ZN5Catch6ConfigD0Ev
FNDA:1,_ZN5Catch6ConfigD2Ev
FNDA:0,_ZN5Catch8Matchers11CasedStringC2ERKNSt7__cxx1112basic_stringIcSt11char_traitsIcESaIcEEENS_13CaseSensitiveE
FNDA:0,_ZNK5Catch8Matchers11CasedString12adjustStringERKNSt7__cxx1112basic_stringIcSt11char_traitsIcESaIcEEE
FNDA:0,_ZNK5Catch8Matchers11CasedString21caseSensitivitySuffixEv
FNDA:0,_ZN5Catch8Matchers17StringMatcherBaseC2ENS_9StringRefERKNS0_11CasedStringE
FNDA:0,_ZNK5Catch8Matchers17StringMatcherBase8describeB5cxx11Ev
FNDA:1,_ZNK5Catch6Config9listTestsEv
FNDA:1,_ZNK5Catch6Config8listTagsEv
FNDA:0,_ZN5Catch8Matchers19StringEqualsMatcherC2ERKNS0_11CasedStringE
FNDA:0,_ZNK5Catch8Matchers19StringEqualsMatcher5matchERKNSt7__cxx1112basic_stringIcSt11char_traitsIcESaIcEEE
FNDA:0,_ZN5Catch8Matchers21StringContainsMatcherC2ERKNS0_11CasedStringE
FNDA:0,_ZNK5Catch8Matchers21StringContainsMatcher5matchERKNSt7__cxx1112basic_stringIcSt11char_traitsIcESaIcEEE
FNDA:1,_ZNK5Catch6Config13listReportersEv
FNDA:0,_ZN5Catch8Matchers17StartsWithMatcherC2ERKNS0_11CasedStringE
FNDA:0,_ZNK5Catch8Matchers17StartsWithMatcher5matchERKNSt7__cxx1112basic_stringIcSt11char_traitsIcESaIcEEE
FNDA:1,_ZNK5Catch6Config13listListenersEv
FNDA:0,_ZN5Catch8Matchers15EndsWithMatcherC2ERKNS0_11CasedStringE
FNDA:0,_ZNK5Catch8Matchers15EndsWithMatcher5matchERKNSt7__cxx1112basic_stringIcSt11char_traitsIcESaIcEEE
FNDA:0,_ZN5Catch8Matchers12RegexMatcherC2ENSt7__cxx1112basic_stringIcSt11char_traitsIcESaIcEEENS_13CaseSensitiveE
FNDA:0,_ZNK5Catch8Matchers12RegexMatcher5matchERKNSt7__cxx1112basic_stringIcSt11char_traitsIcESaIcEEE
FNDA:0,_ZNK5Catch6Config14getTestsOrTagsB5cxx11Ev
FNDA:0,_ZNK5Catch8Matchers12RegexMatcher8describeB5cxx11Ev
FNDA:0,_ZN5Catch8Matchers6EqualsERKNSt7__cxx1112basic_stringIcSt11char_traitsIcESaIcEEENS_13CaseSensitiveE
FNDA:0,_ZN5Catch8Matchers17ContainsSubstringERKNSt7__cxx1112basic_stringIcSt11char_traitsIcESaIcEEENS_13CaseSensitiveE
FNDA:118,_ZNK5Catch6Config16getSectionsToRunB5cxx11Ev
FNDA:0,_ZN5Catch8Matchers8EndsWithERKNSt7__cxx1112basic_stringIcSt11char_traitsIcESaIcEEENS_13CaseSensitiveE
FNDA:0,_ZN5Catch8Matchers10StartsWithERKNSt7__cxx1112basic_stringIcSt11char_traitsIcESaIcEEENS_13CaseSensitiveE
FNDA:0,_ZN5Catch8Matchers7MatchesERKNSt7__cxx1112basic_stringIcSt11char_traitsIcESaIcEEENS_13CaseSensitiveE
FNDA:0,_ZN5Catch8Matchers18MatcherGenericBaseD0Ev
FNDA:0,_ZN5Catch8Matchers18MatcherGenericBaseD2Ev
FNDA:0,_ZNK5Catch6Config16getReporterSpecsEv
FNDA:0,_ZN5Catch8Matchers6Detail22describe_multi_matcherENS_9StringRefEPKNSt7__cxx1112basic_stringIcSt11char_traitsIcESaIcEEESA_
FNDA:0,_ZN5Catch24handleExceptionMatchExprERNS_16AssertionHandlerERKNS_8Matchers11MatcherBaseINSt7__cxx1112basic_stringIcSt11char_traitsIcESaIcEEEEE
FNDA:2,_ZNK5Catch6Config25getProcessedReporterSpecsEv
FNDA:0,_ZN5Catch16AutomakeReporterD0Ev
FNDA:0,_ZN5Catch16AutomakeReporterD2Ev
FNDA:0,_ZN5Catch16AutomakeReporter13testCaseEndedERKNS_13TestCaseStatsE
FNDA:0,_ZN5Catch16AutomakeReporter8skipTestERKNS_12TestCaseInfoE
FNDA:1,_ZN5Catch12ReporterBaseC2EONS_14ReporterConfigE
FNDA:4,_ZNK5Catch6Config8testSpecEv
FNDA:0,_ZN5Catch12ReporterBaseD0Ev
FNDA:1,_ZN5Catch12ReporterBaseD2Ev
FNDA:0,_ZN5Catch12ReporterBase13listReportersERKSt6vectorINS_19ReporterDescriptionESaIS2_EE
FNDA:0,_ZN5Catch12ReporterBase13listListenersERKSt6vectorINS_19ListenerDescriptionESaIS2_EE
FNDA:0,_ZNK5Catch6Config14hasTestFiltersEv
FNDA:0,_ZN5Catch12ReporterBase9listTestsERKSt6vectorINS_14TestCaseHandleESaIS2_EE
FNDA:0,_ZN5Catch12ReporterBase8listTagsERKSt6vectorINS_7TagInfoESaIS2_EE
FNDA:0,_ZNK5Catch6Config8showHelpEv
FNDA:2,_ZNK5Catch6Config20getExitGuardFilePathB5cxx11Ev
FNDA:0,_ZN5Catch12_GLOBAL__N_116AssertionPrinterC2ERSoRKNS_14AssertionStatsEbPNS_10ColourImplE
FNDA:0,_ZN5Catch12_GLOBAL__N_116AssertionPrinter5printEv
FNDA:30,_ZNK5Catch6Config11allowThrowsEv
FNDA:1,_ZNK5Catch6Config4nameEv
FNDA:1,_ZNK5Catch6Config24includeSuccessfulResultsEv
FNDA:6,_ZNK5Catch6Config26warnAboutMissingAssertionsEv
FNDA:0,_ZNK5Catch12_GLOBAL__N_116AssertionPrinter15printSourceInfoEv
FNDA:0,_ZNK5Catch12_GLOBAL__N_116AssertionPrinter15printResultTypeENS_6Colour4CodeENS_9StringRefE
FNDA:0,_ZNK5Catch6Config27warnAboutUnmatchedTestSpecsEv
FNDA:0,_ZNK5Catch12_GLOBAL__N_116AssertionPrinter10printIssueEPKc
FNDA:0,_ZN5Catch12_GLOBAL__N_116AssertionPrinter18printExpressionWasEv
FNDA:0,_ZNK5Catch12_GLOBAL__N_116AssertionPrinter23printOriginalExpressionEv
FNDA:0,_ZNK5Catch12_GLOBAL__N_116AssertionPrinter28printReconstructedExpressionEv
FNDA:0,_ZNK5Catch6Config23zeroTestsCountAsSuccessEv
FNDA:0,_ZN5Catch12_GLOBAL__N_116AssertionPrinter12printMessageEv
FNDA:0,_ZN5Catch12_GLOBAL__N_116AssertionPrinter22printRemainingMessagesENS_6Colour4CodeE
FNDA:478,_ZNK5Catch6Config13showDurationsEv
FNDA:239,_ZNK5Catch6Config11minDurationEv
FNDA:3,_ZNK5Catch6Config8runOrderEv
FNDA:121,_ZNK5Catch6Config7rngSeedEv
FNDA:0,_ZN5Catch15CompactReporter14getDescriptionB5cxx11Ev
FNDA:0,_ZN5Catch15CompactReporter19noMatchingTestCasesENS_9StringRefE
FNDA:1,_ZNK5Catch6Config10shardCountEv
FNDA:0,_ZN5Catch15CompactReporter15testRunStartingERKNS_11TestRunInfoE
FNDA:1,_ZNK5Catch6Config10shardIndexEv
FNDA:0,_ZN5Catch15CompactReporter14assertionEndedERKNS_14AssertionStatsE
FNDA:0,_ZNK5Catch6Config17defaultColourModeEv
FNDA:1,_ZNK5Catch6Config16shouldDebugBreakEv
FNDA:0,_ZN5Catch15CompactReporter12sectionEndedERKNS_12SectionStatsE
FNDA:0,_ZN5Catch15CompactReporter12testRunEndedERKNS_12TestRunStatsE
FNDA:1,_ZNK5Catch6Config10abortAfterEv
FNDA:0,_ZN5Catch15CompactReporterD0Ev
FNDA:0,_ZN5Catch15CompactReporterD2Ev
FNDA:0,_ZNK5Catch6Config14showInvisiblesEv
FNDA:0,_ZNK5Catch6Config9verbosityEv
FNDA:0,_ZN5Catch12_GLOBAL__N_123ConsoleAssertionPrinterC2ERSoRKNS_14AssertionStatsEPNS_10ColourImplEb
FNDA:0,_ZNK5Catch6Config14skipBenchmarksEv
FNDA:1,_ZNK5Catch6Config19benchmarkNoAnalysisEv
FNDA:0,_ZNK5Catch6Config16benchmarkSamplesEv
FNDA:0,_ZNK5Catch6Config27benchmarkConfidenceIntervalEv
FNDA:0,_ZNK5Catch6Config18benchmarkResamplesEv
FNDA:0,_ZNK5Catch6Config19benchmarkWarmupTimeEv
FNDA:0,_ZN5Catch6Config16readBazelEnvVarsEv
FNDA:0,_ZNK5Catch12_GLOBAL__N_123ConsoleAssertionPrinter5printEv
FNDA:0,_ZNK5Catch12_GLOBAL__N_123ConsoleAssertionPrinter15printResultTypeEv
FNDA:0,_ZNK5Catch12_GLOBAL__N_123ConsoleAssertionPrinter23printOriginalExpressionEv
FNDA:0,_ZNK5Catch12_GLOBAL__N_123ConsoleAssertionPrinter28printReconstructedExpressionEv
FNDA:0,_ZNK5Catch12_GLOBAL__N_123ConsoleAssertionPrinter12printMessageEv
FNDA:0,_ZNK5Catch12_GLOBAL__N_123ConsoleAssertionPrinter15printSourceInfoEv
FNDA:4,_ZN5Catch12_GLOBAL__N_19makeRatioEmm
FNDA:1,_ZN5Catch12_GLOBAL__N_17findMaxERmS1_S1_S1_
FNDA:0,_ZN5Catch12_GLOBAL__N_18DurationC2EdNS1_4UnitE
FNDA:0,_ZNK5Catch12_GLOBAL__N_18Duration5valueEv
FNDA:0,_ZNK5Catch12_GLOBAL__N_18Duration13unitsAsStringEv
FNDA:0,_ZN5Catch12_GLOBAL__N_1lsERSoRKNS0_8DurationE
FNDA:1,_ZN5Catch12TablePrinterC2ERSoSt6vectorINS_10ColumnInfoESaIS3_EE
FNDA:0,_ZNK5Catch12TablePrinter11columnInfosEv
FNDA:0,_ZN5Catch12TablePrinter4openEv
FNDA:596,_ZN5Catch12TablePrinter5closeEv
FNDA:0,_ZN5CatchlsIA19_cEERNS_12TablePrinterES3_RKT_
FNDA:0,_ZN5CatchlsINS_12_GLOBAL__N_18DurationEEERNS_12TablePrinterES4_RKT_
FNDA:0,_ZN5CatchlsINS_9StringRefEEERNS_12TablePrinterES3_RKT_
FNDA:0,_ZN5CatchlsINSt7__cxx1112basic_stringIcSt11char_traitsIcESaIcEEEEERNS_12TablePrinterES8_RKT_
FNDA:0,_ZN5CatchlsIcEERNS_12TablePrinterES2_RKT_
FNDA:0,_ZN5CatchlsIiEERNS_12TablePrinterES2_RKT_
FNDA:0,_ZN5CatchlsIjEERNS_12TablePrinterES2_RKT_
FNDA:0,_ZN5CatchlsERNS_12TablePrinterENS_12_GLOBAL__N_111ColumnBreakE
FNDA:0,_ZN5CatchlsERNS_12TablePrinterENS_12_GLOBAL__N_18RowBreakE
FNDA:0,_ZN5CatchlsERNS_12TablePrinterENS_12_GLOBAL__N_111OutputFlushE
FNDA:1,_ZN5Catch15ConsoleReporterC2EONS_14ReporterConfigE
FNDA:1,_ZZN5Catch15ConsoleReporterC4EONS_14ReporterConfigEENKUlvE_clEv
FNDA:1,_ZN5Catch15ConsoleReporterD0Ev
FNDA:1,_ZN5Catch15ConsoleReporterD2Ev
FNDA:0,_ZN5Catch15ConsoleReporter14getDescriptionB5cxx11Ev
FNDA:0,_ZN5Catch15ConsoleReporter19noMatchingTestCasesENS_9StringRefE
FNDA:0,_ZN5Catch15ConsoleReporter21reportInvalidTestSpecENS_9StringRefE
FNDA:0,_ZN5Catch15ConsoleReporter14assertionEndedERKNS_14AssertionStatsE
FNDA:239,_ZN5Catch15ConsoleReporter15sectionStartingERKNS_11SectionInfoE
FNDA:239,_ZN5Catch15ConsoleReporter12sectionEndedERKNS_12SectionStatsE
FNDA:0,_ZN5Catch15ConsoleReporter18benchmarkPreparingENS_9StringRefE
FNDA:0,_ZN5Catch15ConsoleReporter17benchmarkStartingERKNS_13BenchmarkInfoE
FNDA:0,_ZN5Catch15ConsoleReporter14benchmarkEndedERKNS_14BenchmarkStatsINSt6chrono8durationIdSt5ratioILl1ELl1000000000EEEEEE
FNDA:0,_ZN5Catch15ConsoleReporter15benchmarkFailedENS_9StringRefE
FNDA:118,_ZN5Catch15ConsoleReporter13testCaseEndedERKNS_13TestCaseStatsE
FNDA:1,_ZN5Catch15ConsoleReporter12testRunEndedERKNS_12TestRunStatsE
FNDA:1,_ZN5Catch15ConsoleReporter15testRunStartingERKNS_11TestRunInfoE
FNDA:0,_ZN5Catch15ConsoleReporter9lazyPrintEv
FNDA:0,_ZN5Catch15ConsoleReporter37lazyPrintWithoutClosingBenchmarkTableEv
FNDA:0,_ZN5Catch15ConsoleReporter16lazyPrintRunInfoEv
FNDA:0,_ZN5Catch15ConsoleReporter29printTestCaseAndSectionHeaderEv
FNDA:0,_ZN5Catch15ConsoleReporter17printClosedHeaderERKNSt7__cxx1112basic_stringIcSt11char_traitsIcESaIcEEE
FNDA:0,_ZN5Catch15ConsoleReporter15printOpenHeaderERKNSt7__cxx1112basic_stringIcSt11char_traitsIcESaIcEEE
FNDA:0,_ZN5Catch15ConsoleReporter17printHeaderStringERKNSt7__cxx1112basic_stringIcSt11char_traitsIcESaIcEEEm
FNDA:1,_ZN5Catch15ConsoleReporter18printTotalsDividerERKNS_6TotalsE
FNDA:0,_ZN5Catch12_GLOBAL__N_113BySectionInfoC2ERKNS_11SectionInfoE
FNDA:0,_ZNK5Catch12_GLOBAL__N_113BySectionInfoclERKNS_6Detail10unique_ptrINS_22CumulativeReporterBase11SectionNodeEEE
FNDA:0,_ZN5Catch6Detail26AssertionOrBenchmarkResultC2ERKNS_14AssertionStatsE
FNDA:0,_ZN5Catch6Detail26AssertionOrBenchmarkResultC2ERKNS_14BenchmarkStatsINSt6chrono8durationIdSt5ratioILl1ELl1000000000EEEEEE
FNDA:0,_ZNK5Catch6Detail26AssertionOrBenchmarkResult11isAssertionEv
FNDA:0,_ZNK5Catch6Detail26AssertionOrBenchmarkResult11isBenchmarkEv
FNDA:0,_ZNK5Catch6Detail26AssertionOrBenchmarkResult11asAssertionEv
FNDA:0,_ZNK5Catch6Detail26AssertionOrBenchmarkResult11asBenchmarkEv
FNDA:1,_ZN5Catch7getSeedEv
FNDA:0,_ZN5Catch22CumulativeReporterBaseD0Ev
FNDA:0,_ZN5Catch22CumulativeReporterBaseD2Ev
FNDA:0,_ZN5Catch22CumulativeReporterBase14benchmarkEndedERKNS_14BenchmarkStatsINSt6chrono8durationIdSt5ratioILl1ELl1000000000EEEEEE
FNDA:0,_ZN5Catch22CumulativeReporterBase15sectionStartingERKNS_11SectionInfoE
FNDA:0,_ZN5Catch22CumulativeReporterBase14assertionEndedERKNS_14AssertionStatsE
FNDA:0,_ZN5Catch22CumulativeReporterBase12sectionEndedERKNS_12SectionStatsE
FNDA:0,_ZN5Catch22CumulativeReporterBase13testCaseEndedERKNS_13TestCaseStatsE
FNDA:0,_ZN5Catch22CumulativeReporterBase12testRunEndedERKNS_12TestRunStatsE
FNDA:0,_ZNK5Catch22CumulativeReporterBase11SectionNode16hasAnyAssertionsEv
FNDA:0,_ZZNK5Catch22CumulativeReporterBase11SectionNode16hasAnyAssertionsEvENKUlRKNS_6Detail26AssertionOrBenchmarkResultEE_clES5_
FNDA:0,_ZN5Catch17EventListenerBase21fatalErrorEncounteredENS_9StringRefE
FNDA:0,_ZN5Catch17EventListenerBase18benchmarkPreparingENS_9StringRefE
FNDA:0,_ZN5Catch17EventListenerBase17benchmarkStartingERKNS_13BenchmarkInfoE
FNDA:0,_ZN5Catch17EventListenerBase14benchmarkEndedERKNS_14BenchmarkStatsINSt6chrono8durationIdSt5ratioILl1ELl1000000000EEEEEE
FNDA:0,_ZN5Catch17EventListenerBase15benchmarkFailedENS_9StringRefE
FNDA:0,_ZN5Catch17EventListenerBase17assertionStartingERKNS_13AssertionInfoE
FNDA:0,_ZN5Catch17EventListenerBase14assertionEndedERKNS_14AssertionStatsE
FNDA:0,_ZN5Catch17EventListenerBase13listReportersERKSt6vectorINS_19ReporterDescriptionESaIS2_EE
FNDA:0,_ZN5Catch17EventListenerBase13listListenersERKSt6vectorINS_19ListenerDescriptionESaIS2_EE
FNDA:0,_ZN5Catch17EventListenerBase9listTestsERKSt6vectorINS_14TestCaseHandleESaIS2_EE
FNDA:0,_ZN5Catch17EventListenerBase8listTagsERKSt6vectorINS_7TagInfoESaIS2_EE
FNDA:0,_ZN5Catch17EventListenerBase19noMatchingTestCasesENS_9StringRefE
FNDA:0,_ZN5Catch17EventListenerBase21reportInvalidTestSpecENS_9StringRefE
FNDA:0,_ZN5Catch17EventListenerBase15testRunStartingERKNS_11TestRunInfoE
FNDA:0,_ZN5Catch17EventListenerBase16testCaseStartingERKNS_12TestCaseInfoE
FNDA:0,_ZN5Catch17EventListenerBase23testCasePartialStartingERKNS_12TestCaseInfoEm
FNDA:0,_ZN5Catch17EventListenerBase15sectionStartingERKNS_11SectionInfoE
FNDA:0,_ZN5Catch17EventListenerBase12sectionEndedERKNS_12SectionStatsE
FNDA:0,_ZN5Catch17EventListenerBase20testCasePartialEndedERKNS_13TestCaseStatsEm
FNDA:0,_ZN5Catch17EventListenerBase13testCaseEndedERKNS_13TestCaseStatsE
FNDA:0,_ZN5Catch17EventListenerBase12testRunEndedERKNS_12TestRunStatsE
FNDA:0,_ZN5Catch17EventListenerBase8skipTestERKNS_12TestCaseInfoE
FNF:1097
FNH:282
DA:46,0
DA:60,0
DA:61,0
DA:62,0
DA:63,0
DA:64,0
DA:65,0
DA:68,0
DA:69,0
DA:70,0
DA:72,0
DA:73,0
DA:74,0
DA:76,0
DA:81,0
DA:82,0
DA:84,0
DA:85,0
DA:86,0
DA:87,0
DA:92,0
DA:93,0
DA:95,0
DA:96,0
DA:97,0
DA:98,0
DA:99,0
DA:101,0
DA:102,0
DA:103,0
DA:104,0
DA:105,0
DA:107,0
DA:109,0
DA:118,0
DA:119,0
DA:120,0
DA:132,0
DA:135,0
DA:136,0
DA:137,0
DA:154,0
DA:155,0
DA:158,0
DA:159,0
DA:190,0
DA:195,0
DA:196,0
DA:198,0
DA:199,0
DA:200,0
DA:201,0
DA:202,0
DA:203,0
DA:204,0
DA:205,0
DA:207,0
DA:208,0
DA:209,0
DA:211,0
DA:212,0
DA:213,0
DA:215,0
DA:218,0
DA:219,0
DA:220,0
DA:221,0
DA:222,0
DA:223,0
DA:225,0
DA:226,0
DA:227,0
DA:228,0
DA:229,0
DA:230,0
DA:231,0
DA:232,0
DA:233,0
DA:234,0
DA:236,0
DA:237,0
DA:238,0
DA:239,0
DA:241,0
DA:242,0
DA:243,0
DA:244,0
DA:245,0
DA:248,0
DA:253,0
DA:255,0
DA:256,0
DA:257,0
DA:258,0
DA:259,0
DA:260,0
DA:261,0
DA:262,0
DA:263,0
DA:264,0
DA:265,0
DA:266,0
DA:267,0
DA:268,0
DA:269,0
DA:270,0
DA:271,0
DA:272,0
DA:273,0
DA:274,0
DA:275,0
DA:276,0
DA:277,0
DA:278,0
DA:279,0
DA:280,0
DA:281,0
DA:282,0
DA:283,0
DA:284,0
DA:285,0
DA:286,0
DA:287,0
DA:288,0
DA:289,0
DA:290,0
DA:291,0
DA:292,0
DA:293,0
DA:294,0
DA:295,0
DA:296,0
DA:297,0
DA:298,0
DA:299,0
DA:300,0
DA:302,0
DA:303,0
DA:304,0
DA:305,0
DA:306,0
DA:307,0
DA:308,0
DA:309,0
DA:310,0
DA:311,0
DA:312,0
DA:313,0
DA:314,0
DA:315,0
DA:316,0
DA:317,0
DA:318,0
DA:319,0
DA:321,0
DA:325,0
DA:326,0
DA:328,0
DA:331,0
DA:332,0
DA:333,0
DA:335,0
DA:336,0
DA:339,0
DA:343,0
DA:344,0
DA:345,0
DA:347,0
DA:348,0
DA:349,0
DA:352,0
DA:353,0
DA:365,0
DA:369,0
DA:370,0
DA:371,0
DA:372,0
DA:373,0
DA:374,0
DA:375,0
DA:376,0
DA:379,0
DA:380,0
DA:384,0
DA:385,0
DA:387,0
DA:388,0
DA:389,0
DA:390,0
DA:391,0
DA:392,0
DA:393,0
DA:395,0
DA:396,0
DA:397,0
DA:398,0
DA:399,0
DA:400,0
DA:401,0
DA:402,0
DA:403,0
DA:404,0
DA:405,0
DA:407,0
DA:409,0
DA:410,0
DA:412,0
DA:413,0
DA:414,0
DA:415,0
DA:416,0
DA:417,0
DA:419,0
DA:422,0
DA:423,0
DA:426,0
DA:427,0
DA:430,0
DA:433,0
DA:434,0
DA:435,0
DA:436,0
DA:439,0
DA:441,0
DA:443,0
DA:447,0
DA:452,0
DA:454,0
DA:456,0
DA:457,0
DA:459,0
DA:461,0
DA:462,0
DA:463,0
DA:464,0
DA:465,0
DA:466,0
DA:467,0
DA:468,0
DA:471,0
DA:472,0
DA:473,0
DA:474,0
DA:476,0
DA:477,0
DA:479,0
DA:480,0
DA:483,0
DA:484,0
DA:486,0
DA:487,0
DA:488,0
DA:489,0
DA:490,0
DA:491,0
DA:492,0
DA:493,0
DA:494,0
DA:495,0
DA:496,0
DA:497,0
DA:499,0
DA:501,0
DA:502,0
DA:504,0
DA:508,0
DA:509,0
DA:528,0
DA:529,0
DA:530,0
DA:531,0
DA:532,0
DA:533,0
DA:534,0
DA:536,0
DA:537,0
DA:540,0
DA:541,0
DA:543,0
DA:558,0
DA:559,0
DA:566,0
DA:567,0
DA:568,0
DA:569,0
DA:570,0
DA:571,0
DA:573,0
DA:574,0
DA:577,0
DA:578,0
DA:579,0
DA:580,0
DA:584,0
DA:585,0
DA:586,0
DA:587,0
DA:588,0
DA:590,0
DA:593,0
DA:594,0
DA:597,0
DA:598,0
DA:601,0
DA:602,0
DA:604,0
DA:605,0
DA:608,0
DA:609,0
DA:612,0
DA:613,0
DA:615,0
DA:616,0
DA:620,0
DA:621,0
DA:630,30
DA:631,30
DA:632,30
DA:634,0
DA:636,0
DA:637,0
DA:638,0
DA:639,0
DA:640,0
DA:641,0
DA:643,0
DA:646,30
DA:647,30
DA:648,30
DA:649,30
DA:652,0
DA:653,0
DA:657,30
DA:658,30
DA:661,0
DA:662,0
DA:665,0
DA:666,0
DA:669,0
DA:670,0
DA:673,0
DA:675,0
DA:676,0
DA:677,0
DA:679,0
DA:680,0
DA:681,0
DA:683,0
DA:684,0
DA:686,0
DA:687,0
DA:688,0
DA:690,0
DA:691,0
DA:692,0
DA:693,0
DA:694,0
DA:695,0
DA:696,0
DA:697,0
DA:699,0
DA:700,0
DA:703,0
DA:704,0
DA:705,0
DA:706,0
DA:707,0
DA:708,0
DA:710,0
DA:711,0
DA:713,0
DA:714,0
DA:717,0
DA:718,0
DA:730,1
DA:734,1
DA:743,0
DA:744,0
DA:745,0
DA:746,0
DA:749,0
DA:750,0
DA:751,0
DA:754,0
DA:755,0
DA:757,0
DA:758,0
DA:759,0
DA:760,0
DA:762,0
DA:763,0
DA:765,0
DA:766,0
DA:768,0
DA:771,0
DA:772,0
DA:773,0
DA:775,0
DA:776,0
DA:778,0
DA:779,0
DA:780,0
DA:782,0
DA:783,0
DA:786,0
DA:787,0
DA:789,0
DA:793,0
DA:795,0
DA:796,0
DA:797,0
DA:798,0
DA:801,1
DA:802,1
DA:807,1
DA:808,0
DA:810,1
DA:811,0
DA:815,1
DA:819,1
DA:821,1
DA:822,1
DA:825,1
DA:826,1
DA:830,1
DA:831,0
DA:836,1
DA:837,1
DA:838,0
DA:839,0
DA:840,0
DA:843,1
DA:848,1
DA:849,2
DA:853,1
DA:854,1
DA:857,1
DA:860,3
DA:861,1
DA:862,1
DA:864,1
DA:867,1
DA:869,2
DA:872,1
DA:873,1
DA:874,1
DA:875,1
DA:877,0
DA:878,118
DA:880,0
DA:881,0
DA:885,2
DA:886,2
DA:889,4
DA:890,0
DA:892,0
DA:894,2
DA:897,30
DA:898,1
DA:899,1
DA:900,6
DA:901,6
DA:903,0
DA:904,0
DA:906,0
DA:907,478
DA:908,239
DA:909,3
DA:910,121
DA:911,1
DA:912,1
DA:913,0
DA:914,1
DA:915,1
DA:916,0
DA:917,0
DA:919,0
DA:920,1
DA:921,0
DA:922,0
DA:923,0
DA:924,0
DA:926,0
DA:932,0
DA:934,0
DA:935,0
DA:936,0
DA:939,0
DA:940,0
DA:943,0
DA:944,0
DA:947,0
DA:948,0
DA:949,0
DA:950,0
DA:951,0
DA:952,0
DA:953,0
DA:954,0
DA:956,0
DA:958,0
DA:959,0
DA:960,0
DA:963,0
DA:964,0
DA:965,0
DA:966,0
DA:970,0
DA:972,0
DA:974,0
DA:976,0
DA:977,0
DA:986,1
DA:987,1
DA:1001,0
DA:1002,0
DA:1003,0
DA:1004,0
DA:1005,0
DA:1006,0
DA:1008,0
DA:1009,0
DA:1010,0
DA:1011,0
DA:1013,0
DA:1014,0
DA:1015,0
DA:1018,0
DA:1021,0
DA:1022,0
DA:1023,0
DA:1024,0
DA:1026,0
DA:1027,0
DA:1029,0
DA:1030,0
DA:1031,0
DA:1032,0
DA:1033,0
DA:1034,0
DA:1035,0
DA:1036,0
DA:1038,0
DA:1039,0
DA:1041,0
DA:1042,0
DA:1043,0
DA:1044,0
DA:1045,0
DA:1046,0
DA:1052,0
DA:1053,0
DA:1054,0
DA:1058,0
DA:1059,0
DA:1060,0
DA:1062,0
DA:1063,0
DA:1064,0
DA:1065,0
DA:1066,0
DA:1067,0
DA:1068,0
DA:1069,0
DA:1071,0
DA:1072,0
DA:1075,0
DA:1076,0
DA:1077,0
DA:1078,0
DA:1079,0
DA:1080,0
DA:1081,0
DA:1082,0
DA:1083,0
DA:1085,0
DA:1087,0
DA:1088,0
DA:1089,0
DA:1090,0
DA:1091,0
DA:1092,0
DA:1110,1
DA:1111,2
DA:1112,2
DA:1114,1
DA:1115,1
DA:1117,0
DA:1118,0
DA:1120,1
DA:1121,1
DA:1123,1
DA:1124,1
DA:1128,0
DA:1129,0
DA:1130,0
DA:1131,0
DA:1132,0
DA:1133,0
DA:1134,118
DA:1135,118
DA:1136,118
DA:1137,0
DA:1138,0
DA:1139,0
DA:1140,0
DA:1141,0
DA:1142,0
DA:1143,0
DA:1145,0
DA:1149,0
DA:1150,0
DA:1151,0
DA:1166,5
DA:1167,5
DA:1169,118
DA:1170,118
DA:1172,2
DA:1173,2
DA:1174,2
DA:1175,0
DA:1176,0
DA:1194,1
DA:1195,1
DA:1196,1
DA:1198,1
DA:1199,0
DA:1201,1
DA:1202,1
DA:1203,1
DA:1204,1
DA:1206,1
DA:1207,3
DA:1208,1
DA:1209,1
DA:1210,2
DA:1213,0
DA:1215,0
DA:1216,0
DA:1217,0
DA:1220,0
DA:1221,0
DA:1222,0
DA:1223,0
DA:1224,0
DA:1225,0
DA:1226,0
DA:1229,0
DA:1230,0
DA:1234,1
DA:1235,1
DA:1236,1
DA:1237,1
DA:1239,1
DA:1242,1
DA:1243,1
DA:1244,1
DA:1245,119
DA:1246,118
DA:1247,118
DA:1252,0
DA:1253,0
DA:1254,0
DA:1259,1
DA:1260,1
DA:1262,1
DA:1263,1
DA:1264,119
DA:1265,118
DA:1266,118
DA:1268,0
DA:1271,1
DA:1272,0
DA:1273,0
DA:1274,0
DA:1278,1
DA:1281,1
DA:1282,1
DA:1295,0
DA:1296,0
DA:1297,0
DA:1299,0
DA:1303,1
DA:1304,1
DA:1318,0
DA:1319,0
DA:1320,0
DA:1321,0
DA:1324,0
DA:1328,0
DA:1329,0
DA:1333,1
DA:1336,1
DA:1337,1
DA:1338,0
DA:1339,0
DA:1343,1
DA:1347,1
DA:1349,1
DA:1350,0
DA:1351,0
DA:1356,1
DA:1357,1
DA:1358,0
DA:1359,0
DA:1361,0
DA:1362,0
DA:1364,0
DA:1365,0
DA:1366,0
DA:1368,0
DA:1370,0
DA:1371,0
DA:1372,0
DA:1373,0
DA:1375,0
DA:1378,1
DA:1379,1
DA:1380,1
DA:1381,1
DA:1382,1
DA:1383,1
DA:1385,0
DA:1386,0
DA:1387,0
DA:1388,0
DA:1389,0
DA:1390,0
DA:1391,0
DA:1392,0
DA:1393,0
DA:1394,0
DA:1395,0
DA:1396,0
DA:1397,0
DA:1399,1
DA:1400,1
DA:1402,1
DA:1404,1
DA:1405,0
DA:1406,0
DA:1407,0
DA:1408,0
DA:1410,0
DA:1411,0
DA:1412,0
DA:1413,0
DA:1414,0
DA:1415,0
DA:1416,0
DA:1417,0
DA:1419,1
DA:1420,0
DA:1421,1
DA:1422,0
DA:1424,1
DA:1425,1
DA:1426,1
DA:1452,0
DA:1453,0
DA:1454,0
DA:1455,0
DA:1457,1
DA:1458,1
DA:1459,0
DA:1460,0
DA:1462,1
DA:1464,1
DA:1465,0
DA:1466,0
DA:1468,1
DA:1471,0
DA:1472,0
DA:1474,0
DA:1475,0
DA:1476,0
DA:1477,0
DA:1478,0
DA:1480,1
DA:1481,1
DA:1482,1
DA:1483,1
DA:1486,1
DA:1487,1
DA:1489,1
DA:1490,0
DA:1493,1
DA:1494,0
DA:1495,0
DA:1496,0
DA:1497,0
DA:1498,0
DA:1502,1
DA:1506,1
DA:1508,1
DA:1510,1
DA:1511,0
DA:1515,1
DA:1518,1
DA:1520,1
DA:1521,1
DA:1522,0
DA:1523,0
DA:1525,0
DA:1530,1
DA:1531,0
DA:1534,1
DA:1535,1
DA:1539,1
DA:1541,1
DA:1542,1
DA:1543,0
DA:1546,1
DA:1547,1
DA:1548,0
DA:1551,1
DA:1552,1
DA:1553,2
DA:1554,0
DA:1557,1
DA:1558,1
DA:1560,1
DA:1562,0
DA:1563,0
DA:1564,0
DA:1565,0
DA:1576,0
DA:1578,0
DA:1579,0
DA:1581,0
DA:1582,0
DA:1583,0
DA:1600,0
DA:1603,0
DA:1606,118
DA:1607,118
DA:1608,118
DA:1610,118
DA:1613,354
DA:1616,354
DA:1619,354
DA:1622,354
DA:1625,236
DA:1626,236
DA:1627,0
DA:1628,236
DA:1629,0
DA:1630,236
DA:1631,0
DA:1632,236
DA:1633,0
DA:1634,236
DA:1635,0
DA:1636,236
DA:1637,0
DA:1639,236
DA:1641,118
DA:1642,118
DA:1643,118
DA:1644,236
DA:1646,118
DA:1647,118
DA:1651,118
DA:1653,0
DA:1655,0
DA:1658,118
DA:1659,118
DA:1660,472
DA:1661,354
DA:1664,118
DA:1666,118
DA:1667,118
DA:1668,1554
DA:1669,1436
DA:1672,118
DA:1676,118
DA:1678,118
DA:1679,118
DA:1683,0
DA:1685,0
DA:1687,0
DA:1689,0
DA:1693,118
DA:1696,118
DA:1699,118
DA:1701,118
DA:1702,118
DA:1703,118
DA:1704,118
DA:1706,118
DA:1709,118
DA:1710,118
DA:1714,118
DA:1715,118
DA:1716,118
DA:1717,1288
DA:1718,1170
DA:1719,1170
DA:1720,118
DA:1725,118
DA:1726,118
DA:1728,1170
DA:1729,118
DA:1734,118
DA:1735,118
DA:1736,118
DA:1741,118
DA:1742,118
DA:1747,118
DA:1748,118
DA:1752,118
DA:1753,0
DA:1758,118
DA:1761,118
DA:1767,118
DA:1768,0
DA:1772,354
DA:1773,354
DA:1774,236
DA:1775,118
DA:1777,236
DA:1778,236
DA:1780,0
DA:1781,0
DA:1783,0
DA:1784,0
DA:1786,118
DA:1787,118
DA:1790,0
DA:1791,0
DA:1792,0
DA:1793,0
DA:1794,0
DA:1796,0
DA:1797,0
DA:1799,0
DA:1800,0
DA:1801,0
DA:1803,0
DA:1804,0
DA:1805,0
DA:1806,0
DA:1807,0
DA:1810,0
DA:1811,0
DA:1813,118
DA:1814,118
DA:1815,118
DA:1816,118
DA:1817,118
DA:1818,118
DA:1819,118
DA:1820,118
DA:1822,1012
DA:1826,1012
DA:1827,1012
DA:1828,1012
DA:1830,0
DA:1831,0
DA:1832,0
DA:1834,0
DA:1848,0
DA:1849,0
DA:1850,0
DA:1852,0
DA:1854,0
DA:1855,0
DA:1859,0
DA:1861,0
DA:1862,0
DA:1864,0
DA:1865,0
DA:1868,0
DA:1869,0
DA:1870,0
DA:1873,0
DA:1875,0
DA:1876,0
DA:1878,0
DA:1879,0
DA:1880,0
DA:1881,0
DA:1884,0
DA:1885,0
DA:1886,0
DA:1888,0
DA:1889,0
DA:1890,0
DA:1891,0
DA:1892,0
DA:1893,0
DA:1896,0
DA:1897,0
DA:1898,0
DA:1901,0
DA:1904,0
DA:1905,0
DA:1906,0
DA:1907,0
DA:1908,0
DA:1910,0
DA:1911,0
DA:1913,0
DA:1914,0
DA:1915,0
DA:1917,0
DA:1918,0
DA:1920,0
DA:1923,0
DA:1924,0
DA:1925,0
DA:1926,0
DA:1927,0
DA:1929,2
DA:1930,2
DA:1933,0
DA:1934,0
DA:1937,0
DA:1938,0
DA:1939,0
DA:1940,0
DA:1941,0
DA:1942,0
DA:1943,0
DA:1944,0
DA:1945,0
DA:1946,0
DA:1947,0
DA:1948,0
DA:1949,0
DA:1950,0
DA:1952,2
DA:1953,2
DA:1956,0
DA:1957,0
DA:1958,0
DA:1959,0
DA:1960,0
DA:1962,0
DA:1963,0
DA:1965,0
DA:1976,478
DA:1977,478
DA:1981,239
DA:1982,239
DA:1983,239
DA:1984,239
DA:1985,239
DA:1987,239
DA:1988,239
DA:1990,0
DA:1991,0
DA:1993,239
DA:1994,239
DA:2018,0
DA:2019,0
DA:2022,0
DA:2023,0
DA:2028,0
DA:2029,0
DA:2030,0
DA:2033,0
DA:2034,0
DA:2035,0
DA:2036,0
DA:2037,0
DA:2038,0
DA:2039,0
DA:2040,0
DA:2041,0
DA:2042,0
DA:2044,0
DA:2045,0
DA:2048,0
DA:2049,0
DA:2052,0
DA:2054,0
DA:2055,0
DA:2056,0
DA:2057,0
DA:2058,0
DA:2061,0
DA:2062,0
DA:2063,0
DA:2064,0
DA:2066,0
DA:2067,0
DA:2069,0
DA:2070,0
DA:2071,0
DA:2072,0
DA:2073,0
DA:2074,0
DA:2075,0
DA:2076,0
DA:2077,0
DA:2080,0
DA:2081,0
DA:2083,0
DA:2084,0
DA:2086,0
DA:2087,0
DA:2090,0
DA:2092,0
DA:2093,0
DA:2094,0
DA:2095,0
DA:2098,0
DA:2099,0
DA:2100,0
DA:2101,0
DA:2102,0
DA:2103,0
DA:2104,0
DA:2106,0
DA:2107,0
DA:2108,0
DA:2122,0
DA:2123,0
DA:2127,0
DA:2128,0
DA:2132,0
DA:2133,0
DA:2134,0
DA:2136,0
DA:2139,0
DA:2140,0
DA:2141,0
DA:2143,0
DA:2148,0
DA:2149,0
DA:2150,0
DA:2151,0
DA:2152,0
DA:2154,0
DA:2155,0
DA:2158,0
DA:2159,0
DA:2163,0
DA:2164,0
DA:2165,0
DA:2167,0
DA:2170,0
DA:2171,0
DA:2172,0
DA:2174,0
DA:2181,0
DA:2182,0
DA:2186,0
DA:2187,0
DA:2189,0
DA:2190,0
DA:2192,0
DA:2193,0
DA:2194,0
DA:2195,0
DA:2196,0
DA:2198,0
DA:2199,0
DA:2201,0
DA:2202,0
DA:2204,0
DA:2205,0
DA:2207,0
DA:2208,0
DA:2209,0
DA:2210,0
DA:2211,0
DA:2213,0
DA:2214,0
DA:2216,0
DA:2217,0
DA:2218,0
DA:2219,0
DA:2220,0
DA:2221,0
DA:2222,0
DA:2223,0
DA:2224,0
DA:2225,0
DA:2226,0
DA:2228,0
DA:2229,0
DA:2230,0
DA:2233,0
DA:2234,0
DA:2236,0
DA:2237,0
DA:2242,0
DA:2243,0
DA:2248,0
DA:2249,0
DA:2258,811
DA:2259,811
DA:2260,811
DA:2261,811
DA:2262,811
DA:2263,811
DA:2264,811
DA:2267,354
DA:2268,354
DA:2269,354
DA:2270,354
DA:2271,354
DA:2272,354
DA:2275,249
DA:2276,249
DA:2278,2
DA:2279,2
DA:2281,0
DA:2282,0
DA:2285,286
DA:2286,286
DA:2287,286
DA:2288,286
DA:2289,286
DA:2292,118
DA:2293,118
DA:2294,118
DA:2295,118
DA:2298,286
DA:2299,286
DA:2300,286
DA:2301,0
DA:2302,286
DA:2303,0
DA:2304,286
DA:2305,0
DA:2307,286
DA:2308,286
DA:2318,0
DA:2320,0
DA:2322,0
DA:2331,0
DA:2336,0
DA:2337,0
DA:2338,0
DA:2339,0
DA:2340,0
DA:2341,0
DA:2342,0
DA:2344,0
DA:2345,0
DA:2346,0
DA:2347,0
DA:2349,0
DA:2350,0
DA:2351,0
DA:2353,0
DA:2356,0
DA:2357,0
DA:2358,0
DA:2368,0
DA:2369,0
DA:2379,0
DA:2386,0
DA:2387,0
DA:2391,0
DA:2393,0
DA:2394,0
DA:2397,0
DA:2400,0
DA:2401,0
DA:2415,0
DA:2419,0
DA:2420,0
DA:2426,0
DA:2427,0
DA:2428,0
DA:2429,0
DA:2430,0
DA:2432,0
DA:2434,0
DA:2435,0
DA:2436,0
DA:2446,0
DA:2447,0
DA:2451,1
DA:2458,1
DA:2465,0
DA:2466,1
DA:2476,0
DA:2477,0
DA:2478,0
DA:2479,0
DA:2480,0
DA:2482,0
DA:2485,0
DA:2486,0
DA:2487,0
DA:2489,0
DA:2499,1
DA:2500,1
DA:2509,1
DA:2513,1
DA:2514,1
DA:2515,1
DA:2516,1
DA:2517,1
DA:2519,1
DA:2520,1
DA:2521,1
DA:2523,2
DA:2524,1
DA:2527,1
DA:2528,1
DA:2531,1
DA:2533,0
DA:2535,0
DA:2536,0
DA:2537,0
DA:2538,0
DA:2540,0
DA:2543,0
DA:2544,0
DA:2546,0
DA:2547,0
DA:2548,0
DA:2550,239
DA:2553,239
DA:2554,239
DA:2555,239
DA:2556,239
DA:2557,239
DA:2558,239
DA:2561,286
DA:2565,286
DA:2566,286
DA:2567,286
DA:2568,286
DA:2569,286
DA:2570,286
DA:2571,286
DA:2574,1
DA:2576,1
DA:2577,1
DA:2578,1
DA:2579,1
DA:2580,1
DA:2582,1
DA:2590,9
DA:2591,0
DA:2598,1
DA:2605,645
DA:2609,645
DA:2610,645
DA:2611,645
DA:2613,645
DA:2614,645
DA:2616,615
DA:2617,615
DA:2618,615
DA:2619,0
DA:2620,0
DA:2621,0
DA:2623,30
DA:2624,30
DA:2627,645
DA:2628,645
DA:2629,645
DA:2635,0
DA:2637,645
DA:2638,0
DA:2640,645
DA:2641,0
DA:2643,645
DA:2645,0
DA:2646,0
DA:2647,0
DA:2649,30
DA:2650,30
DA:2651,30
DA:2652,0
DA:2653,0
DA:2654,0
DA:2656,0
DA:2657,0
DA:2658,0
DA:2660,0
DA:2661,0
DA:2662,0
DA:2666,0
DA:2667,0
DA:2668,0
DA:2680,44
DA:2682,44
DA:2685,152
DA:2689,0
DA:2691,0
DA:2694,0
DA:2707,0
DA:2708,0
DA:2715,0
DA:2716,0
DA:2721,0
DA:2724,0
DA:2727,0
DA:2728,0
DA:2729,0
DA:2731,0
DA:2732,0
DA:2733,0
DA:2734,0
DA:2737,0
DA:2746,1
DA:2747,1
DA:2750,1
DA:2751,0
DA:2754,1
DA:2755,0
DA:2756,0
DA:2757,0
DA:2758,0
DA:2759,0
DA:2761,0
DA:2762,0
DA:2764,0
DA:2766,0
DA:2768,0
DA:2769,0
DA:2771,0
DA:2774,0
DA:2779,0
DA:2783,1
DA:2785,1
DA:2786,1
DA:2788,1
DA:2789,1
DA:2790,1
DA:2791,1
DA:2793,0
DA:2794,0
DA:2795,0
DA:2797,0
DA:2798,0
DA:2799,0
DA:2801,0
DA:2804,1
DA:2806,1
DA:2807,2
DA:2810,0
DA:2812,0
DA:2814,0
DA:2815,0
DA:2816,0
DA:2817,0
DA:2818,0
DA:2819,0
DA:2822,0
DA:2823,0
DA:2825,0
DA:2826,0
DA:2828,0
DA:2830,1
DA:2831,1
DA:2834,1
DA:2835,1
DA:2836,1
DA:2838,0
DA:2839,0
DA:2840,0
DA:2843,3
DA:2845,0
DA:2847,0
DA:2849,0
DA:2853,0
DA:2855,0
DA:2856,0
DA:2857,0
DA:2859,0
DA:2860,0
DA:2861,0
DA:2862,0
DA:2864,0
DA:2866,0
DA:2868,0
DA:2869,0
DA:2870,0
DA:2873,0
DA:2874,0
DA:2875,0
DA:2877,13
DA:2878,13
DA:2880,0
DA:2881,0
DA:2882,0
DA:2883,0
DA:2884,0
DA:2885,0
DA:2887,0
DA:2888,0
DA:2890,0
DA:2891,0
DA:2892,0
DA:2893,0
DA:2895,0
DA:2896,0
DA:2897,0
DA:2898,0
DA:2899,0
DA:2901,0
DA:2904,0
DA:2906,0
DA:2907,0
DA:2908,0
DA:2910,0
DA:2911,0
DA:2912,0
DA:2913,0
DA:2914,0
DA:2917,0
DA:2918,0
DA:2919,0
DA:2920,0
DA:2921,0
DA:2923,0
DA:2924,0
DA:2925,0
DA:2928,0
DA:2929,0
DA:2930,0
DA:2932,0
DA:2933,0
DA:2934,0
DA:2935,0
DA:2937,0
DA:2938,0
DA:2939,0
DA:2940,0
DA:2941,0
DA:2942,0
DA:2944,0
DA:2945,0
DA:2946,0
DA:2947,0
DA:2948,0
DA:2952,0
DA:2953,0
DA:2955,0
DA:2956,0
DA:2957,0
DA:2958,0
DA:2959,0
DA:2961,0
DA:2967,0
DA:2969,0
DA:2972,0
DA:2975,3
DA:2976,3
DA:2978,1
DA:2979,1
DA:2980,1
DA:2983,0
DA:2986,0
DA:2989,1
DA:2990,1
DA:2992,1
DA:2993,1
DA:2995,1
DA:2996,1
DA:2997,1
DA:2999,0
DA:3000,1
DA:3005,0
DA:3006,0
DA:3009,0
DA:3010,0
DA:3011,0
DA:3014,0
DA:3015,0
DA:3016,0
DA:3017,0
DA:3018,0
DA:3020,0
DA:3021,0
DA:3023,0
DA:3024,0
DA:3026,0
DA:3027,0
DA:3028,0
DA:3029,0
DA:3030,0
DA:3032,0
DA:3033,0
DA:3034,0
DA:3035,0
DA:3037,0
DA:3038,0
DA:3039,0
DA:3041,0
DA:3042,0
DA:3043,0
DA:3044,0
DA:3045,0
DA:3048,0
DA:3049,0
DA:3050,0
DA:3051,0
DA:3052,0
DA:3054,0
DA:3056,0
DA:3057,0
DA:3058,0
DA:3059,0
DA:3060,0
DA:3061,0
DA:3062,0
DA:3063,0
DA:3064,0
DA:3065,0
DA:3067,0
DA:3068,0
DA:3069,0
DA:3070,0
DA:3071,0
DA:3072,0
DA:3073,0
DA:3074,0
DA:3075,0
DA:3076,0
DA:3077,0
DA:3078,0
DA:3082,1
DA:3089,1
DA:3090,1
DA:3091,37
DA:3092,36
DA:3094,2
DA:3095,1
DA:3098,1
DA:3101,1
DA:3102,1
DA:3103,0
DA:3105,0
DA:3106,0
DA:3107,0
DA:3108,0
DA:3109,0
DA:3110,0
DA:3111,0
DA:3112,0
DA:3114,0
DA:3115,0
DA:3116,0
DA:3121,0
DA:3122,0
DA:3123,0
DA:3125,0
DA:3126,0
DA:3129,1
DA:3130,1
DA:3132,1
DA:3133,3
DA:3135,0
DA:3136,0
DA:3137,0
DA:3140,1
DA:3141,0
DA:3142,0
DA:3143,0
DA:3144,1
DA:3145,1
DA:3146,1
DA:3147,1
DA:3148,1
DA:3161,1
DA:3165,0
DA:3166,0
DA:3167,0
DA:3168,0
DA:3169,0
DA:3170,0
DA:3171,0
DA:3175,0
DA:3176,1
DA:3177,0
DA:3178,0
DA:3179,0
DA:3180,0
DA:3182,0
DA:3183,0
DA:3184,0
DA:3185,0
DA:3186,0
DA:3187,0
DA:3188,0
DA:3189,0
DA:3193,0
DA:3194,0
DA:3196,0
DA:3197,0
DA:3198,0
DA:3199,0
DA:3200,0
DA:3201,0
DA:3202,0
DA:3203,0
DA:3204,0
DA:3206,0
DA:3207,0
DA:3208,1
DA:3209,0
DA:3210,0
DA:3211,0
DA:3212,0
DA:3213,0
DA:3214,0
DA:3215,0
DA:3220,0
DA:3221,0
DA:3222,0
DA:3224,0
DA:3225,0
DA:3226,0
DA:3227,0
DA:3228,0
DA:3229,0
DA:3232,0
DA:3233,0
DA:3235,0
DA:3236,0
DA:3238,0
DA:3239,0
DA:3241,0
DA:3242,0
DA:3243,0
DA:3244,0
DA:3245,0
DA:3246,0
DA:3247,0
DA:3248,0
DA:3249,0
DA:3250,0
DA:3251,0
DA:3252,0
DA:3253,0
DA:3255,0
DA:3256,0
DA:3257,0
DA:3258,0
DA:3259,0
DA:3260,0
DA:3261,0
DA:3262,0
DA:3263,0
DA:3264,0
DA:3265,0
DA:3267,0
DA:3268,0
DA:3269,0
DA:3270,0
DA:3271,0
DA:3272,0
DA:3276,0
DA:3277,0
DA:3279,0
DA:3280,0
DA:3283,0
DA:3286,0
DA:3287,0
DA:3289,0
DA:3291,0
DA:3292,0
DA:3296,0
DA:3297,0
DA:3302,0
DA:3303,0
DA:3304,0
DA:3305,0
DA:3306,0
DA:3309,0
DA:3310,0
DA:3314,0
DA:3315,0
DA:3316,0
DA:3317,0
DA:3318,0
DA:3320,0
DA:3322,0
DA:3324,0
DA:3326,0
DA:3327,0
DA:3328,0
DA:3330,0
DA:3331,0
DA:3332,0
DA:3334,0
DA:3336,0
DA:3337,0
DA:3338,0
DA:3341,2
DA:3342,4
DA:3343,4
DA:3344,2
DA:3346,4
DA:3347,2
DA:3349,4
DA:3350,2
DA:3352,4
DA:3353,2
DA:3355,4
DA:3356,2
DA:3358,4
DA:3359,2
DA:3361,4
DA:3362,2
DA:3364,4
DA:3365,2
DA:3367,4
DA:3368,2
DA:3370,4
DA:3371,2
DA:3373,4
DA:3374,2
DA:3376,4
DA:3377,2
DA:3379,4
DA:3380,2
DA:3382,4
DA:3383,2
DA:3385,4
DA:3386,2
DA:3388,4
DA:3389,2
DA:3391,4
DA:3392,2
DA:3394,4
DA:3395,2
DA:3397,4
DA:3398,2
DA:3400,4
DA:3401,2
DA:3403,4
DA:3404,2
DA:3406,4
DA:3407,2
DA:3409,4
DA:3410,2
DA:3412,4
DA:3413,2
DA:3415,4
DA:3416,2
DA:3418,4
DA:3419,2
DA:3421,4
DA:3422,2
DA:3424,4
DA:3425,2
DA:3427,4
DA:3428,2
DA:3430,4
DA:3431,2
DA:3433,4
DA:3434,2
DA:3436,4
DA:3437,2
DA:3439,4
DA:3440,2
DA:3442,4
DA:3443,2
DA:3445,4
DA:3446,2
DA:3448,1
DA:3449,3
DA:3451,2
DA:3470,1
DA:3472,5
DA:3473,5
DA:3476,5
DA:3477,5
DA:3482,5
DA:3483,5
DA:3484,5
DA:3486,5
DA:3487,5
DA:3488,5
DA:3489,5
DA:3490,0
DA:3491,0
DA:3492,0
DA:3493,0
DA:3494,0
DA:3495,0
DA:3497,0
DA:3499,0
DA:3500,0
DA:3501,0
DA:3503,0
DA:3505,5
DA:3506,5
DA:3507,5
DA:3509,5
DA:3512,0
DA:3513,0
DA:3514,0
DA:3518,0
DA:3519,0
DA:3520,0
DA:3528,0
DA:3531,0
DA:3616,1
DA:3618,1
DA:3626,1
DA:3629,1
DA:3630,1
DA:3636,1
DA:3637,1
DA:3640,10
DA:3641,10
DA:3642,10
DA:3646,10
DA:3647,20
DA:3648,10
DA:3649,5
DA:3650,5
DA:3651,0
DA:3652,0
DA:3653,0
DA:3654,0
DA:3655,0
DA:3656,0
DA:3658,1
DA:3659,1
DA:3660,2
DA:3661,0
DA:3662,1
DA:3664,0
DA:3665,0
DA:3675,1
DA:3682,1
DA:3683,0
DA:3685,1
DA:3686,0
DA:3689,1
DA:3695,1
DA:3696,1
DA:3698,0
DA:3701,0
DA:3704,0
DA:3705,0
DA:3709,0
DA:3712,0
DA:3713,0
DA:3714,0
DA:3732,2
DA:3733,2
DA:3736,119
DA:3737,119
DA:3738,119
DA:3769,0
DA:3771,0
DA:3772,0
DA:3850,0
DA:3853,0
DA:3854,0
DA:3855,0
DA:3857,0
DA:3861,0
DA:3863,0
DA:3865,0
DA:3866,0
DA:3893,0
DA:3897,0
DA:3898,0
DA:3900,0
DA:3901,0
DA:3902,0
DA:3903,0
DA:3904,0
DA:3906,0
DA:3907,0
DA:3926,0
DA:3927,0
DA:3931,0
DA:3932,0
DA:3936,0
DA:3937,0
DA:3950,1
DA:3957,0
DA:3959,0
DA:3960,0
DA:3961,0
DA:3963,0
DA:3967,0
DA:3968,0
DA:3969,0
DA:3970,0
DA:3971,0
DA:3972,0
DA:3974,0
DA:3975,0
DA:3977,0
DA:3979,0
DA:3980,0
DA:3981,0
DA:3982,0
DA:3984,0
DA:3987,0
DA:3988,0
DA:3989,0
DA:3990,0
DA:3992,0
DA:3993,0
DA:3994,0
DA:3995,0
DA:3996,0
DA:3998,0
DA:3999,0
DA:4001,0
DA:4002,0
DA:4003,0
DA:4016,1
DA:4017,1
DA:4028,0
DA:4031,0
DA:4032,0
DA:4034,0
DA:4035,0
DA:4042,1
DA:4044,0
DA:4045,0
DA:4046,0
DA:4049,0
DA:4058,0
DA:4059,0
DA:4065,0
DA:4069,0
DA:4070,0
DA:4071,0
DA:4072,0
DA:4073,0
DA:4074,0
DA:4075,0
DA:4076,0
DA:4077,0
DA:4078,0
DA:4079,0
DA:4080,0
DA:4081,0
DA:4082,0
DA:4083,0
DA:4084,0
DA:4085,0
DA:4086,0
DA:4144,0
DA:4145,0
DA:4146,0
DA:4262,168
DA:4267,1176
DA:4268,1008
DA:4271,168
DA:4272,168
DA:4274,0
DA:4275,0
DA:4276,0
DA:4277,0
DA:4278,0
DA:4279,0
DA:4285,0
DA:4286,0
DA:4287,0
DA:4288,0
DA:4290,1
DA:4291,1
DA:4292,1
DA:4293,1
DA:4295,32769
DA:4296,1
DA:4298,1
DA:4299,1
DA:4302,1
DA:4303,1
DA:4305,168
DA:4307,168
DA:4308,168
DA:4309,168
DA:4310,168
DA:4311,168
DA:4313,168
DA:4314,168
DA:4315,1176
DA:4316,1008
DA:4318,168
DA:4325,168
DA:4326,168
DA:4327,168
DA:4341,0
DA:4344,0
DA:4345,0
DA:4348,0
DA:4351,0
DA:4352,0
DA:4359,0
DA:4360,0
DA:4383,1
DA:4389,1
DA:4407,1
DA:4417,0
DA:4418,0
DA:4419,0
DA:4421,0
DA:4422,0
DA:4423,0
DA:4426,0
DA:4427,0
DA:4429,0
DA:4430,0
DA:4431,0
DA:4433,0
DA:4435,0
DA:4438,0
DA:4439,0
DA:4440,0
DA:4441,0
DA:4443,0
DA:4451,0
DA:4452,0
DA:4453,0
DA:4455,0
DA:4463,0
DA:4464,0
DA:4465,0
DA:4466,0
DA:4467,0
DA:4469,0
DA:4470,0
DA:4481,1
DA:4484,16
DA:4485,1
DA:4494,0
DA:4497,0
DA:4498,0
DA:4507,0
DA:4508,0
DA:4509,0
DA:4510,0
DA:4513,0
DA:4521,1
DA:4522,1
DA:4523,1
DA:4525,0
DA:4526,0
DA:4527,0
DA:4528,0
DA:4529,0
DA:4530,0
DA:4531,0
DA:4533,0
DA:4536,0
DA:4546,0
DA:4547,0
DA:4548,0
DA:4551,0
DA:4552,0
DA:4553,0
DA:4554,0
DA:4555,0
DA:4556,0
DA:4557,0
DA:4558,0
DA:4559,0
DA:4560,0
DA:4561,0
DA:4562,0
DA:4563,0
DA:4564,0
DA:4565,0
DA:4567,0
DA:4571,0
DA:4572,0
DA:4573,0
DA:4575,0
DA:4576,0
DA:4579,0
DA:4580,0
DA:4581,0
DA:4582,0
DA:4583,0
DA:4585,0
DA:4586,0
DA:4588,0
DA:4589,0
DA:4590,0
DA:4591,0
DA:4592,0
DA:4593,0
DA:4594,0
DA:4595,0
DA:4596,0
DA:4597,0
DA:4598,0
DA:4599,0
DA:4601,0
DA:4602,0
DA:4604,0
DA:4605,0
DA:4606,0
DA:4607,0
DA:4609,0
DA:4610,0
DA:4611,0
DA:4613,0
DA:4614,0
DA:4617,0
DA:4618,0
DA:4619,0
DA:4620,0
DA:4621,0
DA:4622,0
DA:4623,0
DA:4624,0
DA:4625,0
DA:4626,0
DA:4627,0
DA:4628,0
DA:4629,0
DA:4630,0
DA:4631,0
DA:4632,0
DA:4634,0
DA:4635,0
DA:4636,0
DA:4637,0
DA:4639,0
DA:4640,0
DA:4641,0
DA:4642,0
DA:4645,0
DA:4646,0
DA:4647,0
DA:4648,0
DA:4651,0
DA:4652,0
DA:4655,0
DA:4656,0
DA:4658,0
DA:4659,0
DA:4660,0
DA:4662,0
DA:4663,0
DA:4666,0
DA:4667,0
DA:4670,0
DA:4671,0
DA:4672,0
DA:4674,0
DA:4675,0
DA:4676,0
DA:4678,0
DA:4679,0
DA:4680,0
DA:4681,0
DA:4682,0
DA:4683,0
DA:4684,0
DA:4686,0
DA:4687,0
DA:4690,0
DA:4691,0
DA:4693,0
DA:4694,0
DA:4703,0
DA:4704,0
DA:4705,0
DA:4707,0
DA:4708,0
DA:4709,0
DA:4711,0
DA:4713,0
DA:4715,0
DA:4742,1
DA:4746,1
DA:4747,1
DA:4748,1
DA:4756,0
DA:4757,0
DA:4758,0
DA:4759,0
DA:4760,0
DA:4762,0
DA:4763,0
DA:4764,0
DA:4766,0
DA:4767,0
DA:4768,0
DA:4769,0
DA:4770,0
DA:4771,0
DA:4772,0
DA:4776,0
DA:4777,0
DA:4778,0
DA:4781,0
DA:4782,0
DA:4784,0
DA:4785,0
DA:4787,0
DA:4788,0
DA:4789,0
DA:4790,0
DA:4793,0
DA:4794,0
DA:4796,0
DA:4797,0
DA:4800,0
DA:4801,0
DA:4802,0
DA:4803,0
DA:4806,0
DA:4807,0
DA:4811,0
DA:4812,0
DA:4813,0
DA:4814,0
DA:4816,0
DA:4818,0
DA:4819,0
DA:4820,0
DA:4823,0
DA:4824,0
DA:4825,0
DA:4826,0
DA:4827,0
DA:4829,0
DA:4830,0
DA:4832,1
DA:4833,1
DA:4834,1
DA:4835,0
DA:4836,0
DA:4838,1
DA:4839,0
DA:4840,0
DA:4842,1
DA:4843,0
DA:4844,0
DA:4846,1
DA:4847,0
DA:4848,0
DA:4850,1
DA:4872,1
DA:4879,1
DA:4889,0
DA:4891,0
DA:4892,0
DA:4893,0
DA:4894,0
DA:4895,0
DA:4896,0
DA:4928,310
DA:4929,310
DA:4930,168
DA:4931,168
DA:4932,168
DA:4948,0
DA:4949,0
DA:4950,0
DA:4951,0
DA:4952,0
DA:4954,0
DA:4955,0
DA:4956,0
DA:4957,0
DA:4969,0
DA:4970,0
DA:4971,0
DA:4972,0
DA:4974,0
DA:4975,0
DA:4976,0
DA:4977,0
DA:4978,0
DA:4979,0
DA:4980,0
DA:4981,0
DA:4982,0
DA:4983,0
DA:4984,0
DA:4985,0
DA:4986,0
DA:4987,0
DA:4988,0
DA:4989,0
DA:5140,0
DA:5141,0
DA:5143,0
DA:5145,0
DA:5150,0
DA:5151,0
DA:5155,1
DA:5156,1
DA:5161,0
DA:5164,1
DA:5168,168
DA:5169,168
DA:5170,0
DA:5172,142
DA:5173,142
DA:5174,0
DA:5176,1
DA:5178,310
DA:5179,310
DA:5180,310
DA:5181,310
DA:5184,310
DA:5186,310
DA:5187,168
DA:5189,142
DA:5193,620
DA:5194,310
DA:5196,310
DA:5198,310
DA:5199,168
DA:5201,142
DA:5203,310
DA:5205,0
DA:5206,0
DA:5207,0
DA:5208,0
DA:5209,0
DA:5210,0
DA:5211,0
DA:5213,0
DA:5214,0
DA:5215,0
DA:5216,0
DA:5217,0
DA:5218,0
DA:5219,0
DA:5240,0
DA:5241,0
DA:5244,0
DA:5245,0
DA:5249,0
DA:5250,0
DA:5256,0
DA:5257,0
DA:5260,0
DA:5261,0
DA:5263,0
DA:5265,0
DA:5267,0
DA:5268,0
DA:5270,0
DA:5271,0
DA:5272,0
DA:5284,0
DA:5285,0
DA:5287,0
DA:5288,0
DA:5304,0
DA:5305,0
DA:5328,240
DA:5329,240
DA:5330,240
DA:5331,240
DA:5341,1
DA:5342,1
DA:5343,1
DA:5346,120
DA:5347,120
DA:5348,120
DA:5349,120
DA:5350,120
DA:5351,120
DA:5353,0
DA:5356,0
DA:5357,0
DA:5359,0
DA:5362,240
DA:5364,240
DA:5365,240
DA:5368,240
DA:5370,240
DA:5373,0
DA:5374,0
DA:5377,0
DA:5378,0
DA:5391,1
DA:5392,1
DA:5393,0
DA:5394,0
DA:5396,1
DA:5398,1
DA:5399,1
DA:5400,1
DA:5402,0
DA:5403,0
DA:5419,1
DA:5420,1
DA:5423,3
DA:5424,3
DA:5425,3
DA:5426,3
DA:5427,3
DA:5428,3
DA:5429,3
DA:5430,3
DA:5431,3
DA:5432,3
DA:5433,3
DA:5434,3
DA:5435,3
DA:5436,3
DA:5437,3
DA:5438,3
DA:5439,3
DA:5440,3
DA:5441,1
DA:5443,1
DA:5446,1
DA:5448,1
DA:5449,1
DA:5450,1
DA:5453,0
DA:5455,0
DA:5458,0
DA:5459,0
DA:5462,0
DA:5463,0
DA:5465,0
DA:5466,0
DA:5471,0
DA:5472,0
DA:5476,1
DA:5477,1
DA:5494,0
DA:5496,0
DA:5497,0
DA:5499,0
DA:5500,0
DA:5505,1
DA:5509,1
DA:5510,1
DA:5515,1
DA:5517,15
DA:5518,7
DA:5519,7
DA:5521,1
DA:5522,0
DA:5523,0
DA:5525,1
DA:5526,1
DA:5528,1
DA:5529,1
DA:5531,1
DA:5533,1
DA:5534,1
DA:5535,1
DA:5538,1
DA:5539,1
DA:5541,0
DA:5547,1
DA:5548,0
DA:5551,2
DA:5552,0
DA:5554,0
DA:5555,0
DA:5556,0
DA:5557,0
DA:5558,0
DA:5559,0
DA:5560,0
DA:5561,0
DA:5562,0
DA:5564,0
DA:5570,0
DA:5571,0
DA:5572,0
DA:5573,0
DA:5574,0
DA:5577,1
DA:5578,1
DA:5580,1
DA:5582,1
DA:5583,1
DA:5584,1
DA:5587,1
DA:5588,0
DA:5589,0
DA:5591,0
DA:5592,0
DA:5593,0
DA:5596,0
DA:5597,0
DA:5600,0
DA:5601,0
DA:5604,0
DA:5606,0
DA:5608,0
DA:5609,0
DA:5611,0
DA:5612,0
DA:5614,0
DA:5615,0
DA:5617,0
DA:5619,0
DA:5620,0
DA:5624,0
DA:5628,2
DA:5631,1
DA:5632,1
DA:5634,1
DA:5638,1
DA:5639,1
DA:5640,1
DA:5641,1
DA:5642,1
DA:5662,1
DA:5663,1
DA:5664,1
DA:5665,1
DA:5666,1
DA:5669,0
DA:5670,0
DA:5671,0
DA:5675,1
DA:5676,1
DA:5677,1
DA:5679,1
DA:5680,1
DA:5681,1
DA:5682,1
DA:5685,1
DA:5686,1
DA:5687,2
DA:5688,1
DA:5690,1
DA:5691,2
DA:5692,1
DA:5693,1
DA:5694,1
DA:5696,0
DA:5697,0
DA:5700,0
DA:5701,0
DA:5702,0
DA:5721,0
DA:5724,0
DA:5725,0
DA:5728,0
DA:5733,0
DA:5745,0
DA:5746,0
DA:5748,0
DA:5749,0
DA:5750,0
DA:5751,0
DA:5752,0
DA:5754,0
DA:5755,0
DA:5756,0
DA:5759,0
DA:5762,0
DA:5764,0
DA:5768,0
DA:5769,0
DA:5770,0
DA:5772,0
DA:5773,0
DA:5782,0
DA:5784,0
DA:5786,0
DA:5787,0
DA:5788,0
DA:5789,0
DA:5791,0
DA:5792,0
DA:5793,0
DA:5800,0
DA:5803,0
DA:5804,0
DA:5806,0
DA:5809,0
DA:5811,0
DA:5813,0
DA:5815,0
DA:5816,0
DA:5817,0
DA:5820,0
DA:5821,0
DA:5822,0
DA:5823,0
DA:5826,0
DA:5827,0
DA:5833,0
DA:5834,0
DA:5835,0
DA:5836,0
DA:5837,0
DA:5838,0
DA:5840,0
DA:5843,0
DA:5844,0
DA:5846,0
DA:5847,0
DA:5848,0
DA:5890,1
DA:5891,1
DA:5892,1
DA:5893,1
DA:5894,1
DA:5895,1
DA:5896,1
DA:5897,1
DA:5898,6
DA:5900,1
DA:5901,1
DA:5902,1
DA:5904,1
DA:5905,1
DA:5906,1
DA:5907,1
DA:5909,118
DA:5910,118
DA:5911,118
DA:5913,118
DA:5914,118
DA:5915,118
DA:5916,118
DA:5919,118
DA:5920,118
DA:5921,118
DA:5954,118
DA:5956,118
DA:5957,118
DA:5958,118
DA:5960,168
DA:5961,168
DA:5963,168
DA:5965,168
DA:5966,168
DA:5967,168
DA:5968,168
DA:5969,168
DA:5970,168
DA:5971,168
DA:5972,168
DA:5974,168
DA:5975,168
DA:5976,168
DA:5977,168
DA:5979,168
DA:5980,168
DA:5982,118
DA:5983,118
DA:5984,0
DA:5985,0
DA:5986,0
DA:5988,118
DA:5989,118
DA:5990,236
DA:5994,118
DA:5996,118
DA:5997,118
DA:5999,236
DA:6000,118
DA:6003,0
DA:6004,0
DA:6005,0
DA:6006,0
DA:6007,0
DA:6008,0
DA:6009,0
DA:6010,0
DA:6011,0
DA:6012,0
DA:6013,0
DA:6015,0
DA:6016,0
DA:6018,0
DA:6021,0
DA:6024,0
DA:6025,0
DA:6026,0
DA:6030,0
DA:6032,0
DA:6033,0
DA:6034,0
DA:6035,0
DA:6037,0
DA:6038,0
DA:6043,0
DA:6044,0
DA:6046,645
DA:6047,645
DA:6048,0
DA:6049,0
DA:6050,0
DA:6051,0
DA:6052,645
DA:6054,279
DA:6058,279
DA:6059,279
DA:6060,279
DA:6062,279
DA:6063,208
DA:6064,71
DA:6066,71
DA:6067,71
DA:6070,71
DA:6071,71
DA:6072,71
DA:6074,71
DA:6075,71
DA:6077,71
DA:6078,71
DA:6080,0
DA:6082,0
DA:6083,0
DA:6084,0
DA:6086,0
DA:6087,0
DA:6090,0
DA:6095,0
DA:6096,0
DA:6097,0
DA:6102,0
DA:6103,0
DA:6104,0
DA:6106,0
DA:6107,0
DA:6108,0
DA:6109,0
DA:6111,239
DA:6112,239
DA:6113,233
DA:6114,6
DA:6115,6
DA:6116,0
DA:6117,0
DA:6118,0
DA:6119,0
DA:6120,0
DA:6123,71
DA:6124,71
DA:6125,71
DA:6126,71
DA:6128,71
DA:6129,71
DA:6130,71
DA:6134,71
DA:6135,142
DA:6136,142
DA:6140,71
DA:6141,71
DA:6143,0
DA:6144,0
DA:6145,0
DA:6147,0
DA:6149,0
DA:6151,0
DA:6152,0
DA:6154,0
DA:6155,0
DA:6156,0
DA:6157,0
DA:6158,0
DA:6159,0
DA:6160,0
DA:6161,0
DA:6162,0
DA:6163,0
DA:6164,0
DA:6165,0
DA:6166,0
DA:6167,0
DA:6168,0
DA:6169,0
DA:6171,0
DA:6172,0
DA:6173,0
DA:6174,0
DA:6177,0
DA:6189,0
DA:6190,0
DA:6193,0
DA:6194,0
DA:6195,0
DA:6197,0
DA:6205,0
DA:6209,0
DA:6212,0
DA:6213,0
DA:6217,0
DA:6218,0
DA:6219,0
DA:6220,0
DA:6222,0
DA:6229,0
DA:6233,0
DA:6234,0
DA:6235,0
DA:6236,0
DA:6237,0
DA:6238,0
DA:6241,0
DA:6242,0
DA:6244,0
DA:6245,0
DA:6246,0
DA:6247,0
DA:6249,0
DA:6251,0
DA:6252,0
DA:6253,0
DA:6254,0
DA:6256,0
DA:6257,0
DA:6259,0
DA:6260,0
DA:6261,0
DA:6262,0
DA:6264,0
DA:6265,0
DA:6268,645
DA:6270,645
DA:6271,645
DA:6272,645
DA:6273,645
DA:6274,645
DA:6276,933
DA:6277,933
DA:6278,933
DA:6279,933
DA:6280,933
DA:6281,933
DA:6283,933
DA:6285,455
DA:6286,455
DA:6289,168
DA:6290,168
DA:6291,168
DA:6292,168
DA:6293,168
DA:6294,168
DA:6295,168
DA:6296,168
DA:6297,168
DA:6299,168
DA:6302,168
DA:6303,168
DA:6304,168
DA:6305,168
DA:6306,168
DA:6307,0
DA:6309,0
DA:6311,0
DA:6314,0
DA:6315,0
DA:6316,0
DA:6317,0
DA:6320,0
DA:6321,168
DA:6322,168
DA:6323,168
DA:6325,168
DA:6326,168
DA:6327,168
DA:6330,168
DA:6332,168
DA:6333,168
DA:6334,168
DA:6336,168
DA:6340,168
DA:6346,168
DA:6347,168
DA:6349,168
DA:6352,336
DA:6353,168
DA:6354,168
DA:6355,0
DA:6356,0
DA:6358,168
DA:6359,168
DA:6361,615
DA:6366,615
DA:6367,615
DA:6369,615
DA:6370,615
DA:6371,615
DA:6374,0
DA:6378,0
DA:6379,0
DA:6380,0
DA:6382,615
DA:6383,0
DA:6389,0
DA:6390,0
DA:6392,0
DA:6393,0
DA:6395,0
DA:6396,0
DA:6398,0
DA:6404,0
DA:6406,0
DA:6407,0
DA:6409,0
DA:6411,0
DA:6412,0
DA:6413,0
DA:6414,0
DA:6415,0
DA:6416,0
DA:6419,0
DA:6421,0
DA:6423,0
DA:6427,0
DA:6428,0
DA:6430,0
DA:6435,0
DA:6437,0
DA:6438,0
DA:6439,0
DA:6440,0
DA:6441,0
DA:6442,0
DA:6443,0
DA:6445,0
DA:6447,0
DA:6448,0
DA:6449,0
DA:6451,0
DA:6453,0
DA:6454,0
DA:6457,0
DA:6459,0
DA:6461,0
DA:6464,0
DA:6468,0
DA:6470,0
DA:6471,0
DA:6472,0
DA:6473,0
DA:6474,0
DA:6476,30
DA:6481,30
DA:6482,30
DA:6484,30
DA:6485,30
DA:6486,30
DA:6487,30
DA:6490,0
DA:6491,0
DA:6492,0
DA:6493,0
DA:6495,60
DA:6497,0
DA:6498,0
DA:6499,0
DA:6501,0
DA:6507,0
DA:6508,0
DA:6509,0
DA:6510,0
DA:6511,0
DA:6513,0
DA:6515,0
DA:6516,0
DA:6517,0
DA:6519,119
DA:6520,119
DA:6521,119
DA:6523,0
DA:6524,0
DA:6533,0
DA:6534,0
DA:6535,0
DA:6536,0
DA:6539,0
DA:6540,0
DA:6542,0
DA:6544,279
DA:6546,279
DA:6547,279
DA:6548,279
DA:6549,279
DA:6554,279
DA:6555,71
DA:6556,71
DA:6557,71
DA:6559,279
DA:6561,279
DA:6562,279
DA:6563,71
DA:6564,71
DA:6565,0
DA:6567,71
DA:6569,71
DA:6570,279
DA:6573,279
DA:6574,279
DA:6587,4
DA:6589,4
DA:6590,2
DA:6591,4
DA:6595,2
DA:6597,2
DA:6598,2
DA:6599,2
DA:6600,2
DA:6601,2
DA:6602,4
DA:6603,2
DA:6604,2
DA:6605,2
DA:6606,2
DA:6617,258
DA:6618,258
DA:6620,0
DA:6623,0
DA:6626,0
DA:6630,0
DA:6632,0
DA:6642,0
DA:6644,0
DA:6645,0
DA:6647,0
DA:6649,0
DA:6651,1
DA:6652,1
DA:6668,1
DA:6669,0
DA:6670,0
DA:6684,0
DA:6685,0
DA:6687,118
DA:6688,118
DA:6690,0
DA:6691,0
DA:6693,0
DA:6694,0
DA:6696,0
DA:6697,0
DA:6699,0
DA:6700,0
DA:6701,0
DA:6703,0
DA:6704,0
DA:6705,0
DA:6706,0
DA:6707,0
DA:6708,0
DA:6709,216
DA:6710,216
DA:6713,0
DA:6715,0
DA:6716,0
DA:6718,0
DA:6721,307
DA:6722,614
DA:6723,614
DA:6725,307
DA:6726,307
DA:6727,307
DA:6728,307
DA:6730,307
DA:6733,0
DA:6734,0
DA:6735,0
DA:6736,0
DA:6738,0
DA:6739,0
DA:6740,0
DA:6743,0
DA:6745,0
DA:6746,0
DA:6747,0
DA:6748,0
DA:6749,0
DA:6751,0
DA:6752,0
DA:6753,0
DA:6754,0
DA:6756,0
DA:6757,0
DA:6759,0
DA:6760,0
DA:6761,0
DA:6762,0
DA:6763,0
DA:6764,0
DA:6765,0
DA:6766,0
DA:6769,0
DA:6770,0
DA:6771,0
DA:6772,0
DA:6774,2
DA:6775,2
DA:6776,2
DA:6777,2
DA:6778,2
DA:6790,748
DA:6791,748
DA:6792,748
DA:6795,0
DA:6796,0
DA:6797,0
DA:6799,0
DA:6802,0
DA:6804,0
DA:6808,0
DA:6809,0
DA:6814,0
DA:6815,0
DA:6816,0
DA:6817,0
DA:6819,0
DA:6823,2
DA:6824,2
DA:6827,0
DA:6828,0
DA:6829,0
DA:6830,0
DA:6831,0
DA:6832,0
DA:6833,0
DA:6835,118
DA:6836,118
DA:6837,118
DA:6846,1
DA:6848,0
DA:6849,0
DA:6850,0
DA:6851,0
DA:6853,0
DA:6856,0
DA:6857,0
DA:6858,0
DA:6859,0
DA:6860,0
DA:6861,0
DA:6862,0
DA:6863,0
DA:6866,0
DA:6867,0
DA:6869,0
DA:6870,0
DA:6873,0
DA:6877,0
DA:6879,1
DA:6881,1
DA:6882,1
DA:6891,1
DA:6893,118
DA:6895,118
DA:6896,118
DA:6897,10463
DA:6898,10345
DA:6899,10345
DA:6901,118
DA:6902,0
DA:6903,0
DA:6905,236
DA:6906,1052
DA:6907,934
DA:6908,934
DA:6911,118
DA:6912,118
DA:6913,118
DA:6914,118
DA:6915,118
DA:6928,1
DA:6930,1012
DA:6932,1012
DA:6935,1
DA:6936,119
DA:6937,118
DA:6938,118
DA:6939,118
DA:6948,1
DA:6950,0
DA:6953,0
DA:6954,0
DA:6959,1
DA:6960,1
DA:6961,0
DA:6962,0
DA:6964,0
DA:6965,0
DA:6966,0
DA:6969,0
DA:6970,0
DA:6973,0
DA:6974,0
DA:6975,1
DA:6978,1
DA:6979,1
DA:6980,1
DA:6982,119
DA:6983,118
DA:6986,1
DA:6988,968
DA:6989,968
DA:6990,0
DA:6991,0
DA:6993,968
DA:6996,1
DA:6997,1
DA:6999,119
DA:7000,118
DA:7003,1
DA:7004,1
DA:7007,0
DA:7010,0
DA:7011,0
DA:7014,0
DA:7015,0
DA:7016,0
DA:7017,0
DA:7018,0
DA:7019,0
DA:7020,0
DA:7023,0
DA:7024,0
DA:7025,1
DA:7026,1
DA:7029,1
DA:7031,118
DA:7032,118
DA:7033,118
DA:7034,118
DA:7035,118
DA:7036,118
DA:7038,0
DA:7039,0
DA:7042,0
DA:7043,0
DA:7045,1
DA:7046,1
DA:7047,1
DA:7049,1
DA:7050,1
DA:7051,1
DA:7053,1
DA:7072,307
DA:7073,307
DA:7074,307
DA:7075,307
DA:7078,307
DA:7080,0
DA:7081,0
DA:7082,0
DA:7084,189
DA:7085,189
DA:7086,189
DA:7088,447
DA:7089,447
DA:7092,769
DA:7093,769
DA:7094,769
DA:7095,769
DA:7096,511
DA:7098,258
DA:7100,447
DA:7103,0
DA:7104,0
DA:7106,279
DA:7107,279
DA:7110,0
DA:7112,310
DA:7113,310
DA:7114,189
DA:7115,189
DA:7116,71
DA:7119,310
DA:7121,118
DA:7123,236
DA:7124,236
DA:7126,236
DA:7127,118
DA:7128,118
DA:7129,118
DA:7132,239
DA:7133,239
DA:7134,239
DA:7136,447
DA:7137,447
DA:7139,478
DA:7140,478
DA:7141,478
DA:7144,307
DA:7146,307
DA:7147,307
DA:7149,743
DA:7150,743
DA:7153,239
DA:7154,239
DA:7155,239
DA:7156,239
DA:7157,239
DA:7158,239
DA:7160,239
DA:7163,239
DA:7164,0
DA:7166,239
DA:7167,0
DA:7168,0
DA:7170,168
DA:7171,168
DA:7172,168
DA:7173,71
DA:7174,296
DA:7175,21
DA:7176,71
DA:7178,0
DA:7181,0
DA:7183,0
DA:7184,0
DA:7186,239
DA:7187,239
DA:7188,239
DA:7189,0
DA:7190,0
DA:7191,0
DA:7192,0
DA:7193,0
DA:7194,0
DA:7195,0
DA:7197,239
DA:7198,239
DA:7199,239
DA:7200,239
DA:7201,239
DA:7202,239
DA:7203,239
DA:7205,307
DA:7207,307
DA:7209,307
DA:7210,189
DA:7211,0
DA:7214,189
DA:7215,189
DA:7217,307
DA:7219,743
DA:7220,743
DA:7222,743
DA:7223,0
DA:7224,743
DA:7225,743
DA:7227,743
DA:7230,565
DA:7232,447
DA:7235,447
DA:7236,447
DA:7237,447
DA:7238,258
DA:7239,258
DA:7240,258
DA:7243,189
DA:7244,189
DA:7246,378
DA:7247,189
DA:7248,189
DA:7249,189
DA:7251,447
DA:7252,343
DA:7255,447
DA:7258,343
DA:7259,343
DA:7260,239
DA:7261,343
DA:7263,118
DA:7264,118
DA:7265,0
DA:7266,0
DA:7267,0
DA:7268,0
DA:7270,118
DA:7271,189
DA:7272,189
DA:7273,0
DA:7274,189
DA:7276,0
DA:7277,0
DA:7293,0
DA:7295,0
DA:7301,0
DA:7303,0
DA:7317,118
DA:7318,118
DA:7319,118
DA:7322,118
DA:7323,118
DA:7324,118
DA:7329,0
DA:7331,0
DA:7332,0
DA:7338,0
DA:7340,0
DA:7342,0
DA:7343,0
DA:7345,0
DA:7347,0
DA:7355,118
DA:7356,118
DA:7358,168
DA:7363,118
DA:7364,118
DA:7367,118
DA:7369,118
DA:7370,118
DA:7371,236
DA:7377,0
DA:7379,0
DA:7380,0
DA:7381,118
DA:7390,1
DA:7392,0
DA:7393,0
DA:7394,0
DA:7395,0
DA:7396,0
DA:7397,0
DA:7398,0
DA:7399,0
DA:7401,0
DA:7403,0
DA:7404,0
DA:7405,0
DA:7407,0
DA:7408,0
DA:7410,1
DA:7411,1
DA:7412,1
DA:7414,0
DA:7415,0
DA:7416,0
DA:7417,0
DA:7418,0
DA:7419,0
DA:7420,0
DA:7423,0
DA:7424,0
DA:7425,0
DA:7426,0
DA:7427,0
DA:7428,0
DA:7429,0
DA:7430,0
DA:7431,0
DA:7432,0
DA:7433,0
DA:7434,0
DA:7435,0
DA:7438,0
DA:7439,0
DA:7440,0
DA:7443,0
DA:7444,0
DA:7445,0
DA:7446,0
DA:7448,0
DA:7452,0
DA:7453,0
DA:7454,0
DA:7455,0
DA:7456,0
DA:7457,0
DA:7458,0
DA:7459,0
DA:7460,0
DA:7461,0
DA:7462,0
DA:7463,0
DA:7464,0
DA:7465,0
DA:7466,0
DA:7467,0
DA:7470,0
DA:7471,0
DA:7472,0
DA:7473,0
DA:7475,0
DA:7476,0
DA:7478,0
DA:7479,0
DA:7480,0
DA:7481,0
DA:7482,0
DA:7483,0
DA:7484,0
DA:7486,0
DA:7487,0
DA:7488,0
DA:7489,0
DA:7490,0
DA:7491,0
DA:7493,0
DA:7494,0
DA:7495,0
DA:7496,0
DA:7497,0
DA:7498,0
DA:7499,0
DA:7501,0
DA:7504,0
DA:7505,0
DA:7506,0
DA:7507,0
DA:7508,0
DA:7509,0
DA:7510,0
DA:7511,0
DA:7512,0
DA:7513,0
DA:7514,0
DA:7515,0
DA:7516,0
DA:7517,0
DA:7518,0
DA:7519,0
DA:7520,0
DA:7521,0
DA:7522,0
DA:7526,1
DA:7527,1
DA:7528,0
DA:7529,0
DA:7531,1
DA:7533,0
DA:7534,0
DA:7535,0
DA:7537,0
DA:7538,0
DA:7539,0
DA:7541,0
DA:7542,0
DA:7544,0
DA:7545,0
DA:7546,0
DA:7547,0
DA:7548,0
DA:7549,0
DA:7551,0
DA:7552,0
DA:7553,0
DA:7556,0
DA:7557,0
DA:7558,0
DA:7559,0
DA:7560,0
DA:7561,0
DA:7562,0
DA:7563,0
DA:7566,0
DA:7567,0
DA:7569,0
DA:7570,0
DA:7572,0
DA:7573,0
DA:7575,0
DA:7576,0
DA:7577,0
DA:7579,0
DA:7582,0
DA:7583,0
DA:7584,0
DA:7585,0
DA:7587,0
DA:7588,0
DA:7590,0
DA:7593,0
DA:7594,0
DA:7595,0
DA:7596,0
DA:7598,0
DA:7601,0
DA:7602,0
DA:7604,0
DA:7607,0
DA:7608,0
DA:7609,0
DA:7610,0
DA:7621,0
DA:7622,0
DA:7625,0
DA:7627,0
DA:7630,0
DA:7632,0
DA:7639,0
DA:7640,0
DA:7642,0
DA:7643,0
DA:7644,0
DA:7645,0
DA:7646,0
DA:7647,0
DA:7649,0
DA:7650,0
DA:7653,0
DA:7656,0
DA:7658,0
DA:7659,0
DA:7660,0
DA:7663,0
DA:7665,0
DA:7666,0
DA:7667,0
DA:7668,0
DA:7670,0
DA:7671,0
DA:7672,0
DA:7673,0
DA:7675,0
DA:7676,0
DA:7679,0
DA:7680,0
DA:7683,0
DA:7691,0
DA:7693,0
DA:7694,0
DA:7695,0
DA:7697,0
DA:7700,0
DA:7703,0
DA:7704,0
DA:7705,0
DA:7706,0
DA:7707,0
DA:7708,0
DA:7710,0
DA:7711,0
DA:7712,0
DA:7716,0
DA:7718,0
DA:7720,0
DA:7721,0
DA:7722,0
DA:7723,0
DA:7724,0
DA:7726,0
DA:7727,0
DA:7728,0
DA:7731,0
DA:7732,0
DA:7733,0
DA:7734,0
DA:7738,0
DA:7739,0
DA:7740,0
DA:7742,0
DA:7744,0
DA:7746,0
DA:7747,0
DA:7748,0
DA:7749,0
DA:7750,0
DA:7753,0
DA:7754,0
DA:7755,0
DA:7756,0
DA:7758,0
DA:7759,0
DA:7760,0
DA:7763,0
DA:7764,0
DA:7766,0
DA:7767,0
DA:7768,0
DA:7769,0
DA:7770,0
DA:7771,0
DA:7777,0
DA:7778,0
DA:7783,0
DA:7784,0
DA:7785,0
DA:7786,0
DA:7787,0
DA:7789,0
DA:7790,0
DA:7791,0
DA:7792,0
DA:7797,0
DA:7798,0
DA:7799,0
DA:7804,0
DA:7805,0
DA:7806,0
DA:7807,0
DA:7808,0
DA:7811,0
DA:7814,0
DA:7815,0
DA:7817,0
DA:7819,0
DA:7820,0
DA:7822,0
DA:7823,0
DA:7825,0
DA:7826,0
DA:7827,0
DA:7828,0
DA:7829,0
DA:7830,0
DA:7831,0
DA:7833,0
DA:7834,0
DA:7835,0
DA:7837,0
DA:7839,0
DA:7840,0
DA:7841,0
DA:7844,0
DA:7845,0
DA:7846,0
DA:7847,0
DA:7848,0
DA:7850,0
DA:7851,0
DA:7852,0
DA:7856,0
DA:7857,0
DA:7860,0
DA:7861,0
DA:7862,0
DA:7863,0
DA:7866,0
DA:7867,0
DA:7868,0
DA:7869,0
DA:7870,0
DA:7872,0
DA:7874,0
DA:7875,0
DA:7876,0
DA:7879,0
DA:7880,0
DA:7881,0
DA:7882,0
DA:7885,0
DA:7886,0
DA:7888,0
DA:7889,0
DA:7890,0
DA:7892,0
DA:7894,0
DA:7895,0
DA:7896,0
DA:7898,0
DA:7899,0
DA:7900,0
DA:7902,0
DA:7904,0
DA:7905,0
DA:7907,0
DA:7908,0
DA:7909,0
DA:7910,0
DA:7911,0
DA:7912,0
DA:7914,0
DA:7915,0
DA:7916,0
DA:7918,0
DA:7919,0
DA:7922,0
DA:7923,0
DA:7925,0
DA:7926,0
DA:7927,0
DA:7928,0
DA:7931,0
DA:7934,0
DA:7935,0
DA:7936,0
DA:7937,0
DA:7938,0
DA:7940,0
DA:7941,0
DA:7942,0
DA:7943,0
DA:7944,0
DA:7946,0
DA:7948,0
DA:7949,0
DA:7950,0
DA:7953,0
DA:7954,0
DA:7955,0
DA:7956,0
DA:7957,0
DA:7958,0
DA:7959,0
DA:7960,0
DA:7961,0
DA:7962,0
DA:7963,0
DA:7964,0
DA:7966,0
DA:7967,0
DA:7968,0
DA:7970,0
DA:7971,0
DA:7972,0
DA:7974,0
DA:7975,0
DA:7976,0
DA:7977,0
DA:7978,0
DA:7979,0
DA:7980,0
DA:7981,0
DA:7993,71
DA:7997,71
DA:8008,0
DA:8009,0
DA:8010,0
DA:8011,0
DA:8013,0
DA:8014,0
DA:8015,0
DA:8017,0
DA:8018,0
DA:8019,0
DA:8021,0
DA:8023,0
DA:8024,0
DA:8025,0
DA:8026,0
DA:8027,0
DA:8028,0
DA:8029,0
DA:8030,0
DA:8031,0
DA:8032,0
DA:8033,0
DA:8034,0
DA:8038,0
DA:8039,0
DA:8056,0
DA:8057,0
DA:8058,0
DA:8060,0
DA:8061,0
DA:8063,0
DA:8064,0
DA:8066,0
DA:8069,0
DA:8070,0
DA:8071,0
DA:8073,0
DA:8074,0
DA:8076,0
DA:8077,0
DA:8079,0
DA:8082,0
DA:8083,0
DA:8084,0
DA:8085,0
DA:8086,0
DA:8087,0
DA:8088,0
DA:8090,0
DA:8091,0
DA:8094,0
DA:8095,0
DA:8100,0
DA:8103,0
DA:8104,0
DA:8105,0
DA:8106,0
DA:8108,0
DA:8109,0
DA:8111,0
DA:8112,0
DA:8113,0
DA:8114,0
DA:8115,0
DA:8116,0
DA:8117,0
DA:8118,0
DA:8119,0
DA:8120,0
DA:8121,0
DA:8123,0
DA:8125,0
DA:8126,0
DA:8127,0
DA:8129,0
DA:8131,0
DA:8132,0
DA:8133,0
DA:8134,0
DA:8136,0
DA:8138,0
DA:8144,0
DA:8145,0
DA:8146,0
DA:8147,0
DA:8151,0
DA:8152,0
DA:8161,0
DA:8162,0
DA:8163,0
DA:8164,0
DA:8167,0
DA:8170,0
DA:8171,0
DA:8172,0
DA:8173,0
DA:8179,0
DA:8180,0
DA:8181,0
DA:8182,0
DA:8183,0
DA:8184,0
DA:8187,0
DA:8189,0
DA:8191,0
DA:8192,0
DA:8193,0
DA:8196,0
DA:8197,0
DA:8198,0
DA:8202,0
DA:8203,0
DA:8207,0
DA:8208,0
DA:8210,0
DA:8211,0
DA:8212,0
DA:8215,0
DA:8216,0
DA:8217,0
DA:8218,0
DA:8220,0
DA:8221,0
DA:8222,0
DA:8224,0
DA:8225,0
DA:8226,0
DA:8227,0
DA:8228,0
DA:8229,0
DA:8231,0
DA:8232,0
DA:8233,0
DA:8234,0
DA:8235,0
DA:8239,0
DA:8240,0
DA:8241,0
DA:8243,0
DA:8246,0
DA:8247,0
DA:8248,0
DA:8252,0
DA:8254,0
DA:8255,0
DA:8259,0
DA:8261,0
DA:8262,0
DA:8264,0
DA:8265,0
DA:8266,0
DA:8268,0
DA:8269,0
DA:8271,0
DA:8272,0
DA:8273,0
DA:8274,0
DA:8275,0
DA:8276,0
DA:8278,0
DA:8279,0
DA:8280,0
DA:8281,0
DA:8282,0
DA:8285,0
DA:8286,0
DA:8287,0
DA:8288,0
DA:8289,0
DA:8291,0
DA:8292,0
DA:8294,0
DA:8295,0
DA:8296,0
DA:8298,0
DA:8299,0
DA:8300,0
DA:8302,0
DA:8304,0
DA:8305,0
DA:8306,0
DA:8307,0
DA:8310,0
DA:8312,0
DA:8313,0
DA:8314,0
DA:8317,0
DA:8318,0
DA:8319,0
DA:8322,0
DA:8324,0
DA:8325,0
DA:8328,0
DA:8329,0
DA:8330,0
DA:8331,0
DA:8332,0
DA:8333,0
DA:8334,0
DA:8336,0
DA:8337,0
DA:8339,0
DA:8342,0
DA:8343,0
DA:8344,0
DA:8345,0
DA:8347,0
DA:8348,0
DA:8349,0
DA:8352,0
DA:8353,0
DA:8354,0
DA:8356,0
DA:8357,0
DA:8358,0
DA:8359,0
DA:8360,0
DA:8362,0
DA:8364,0
DA:8365,0
DA:8366,0
DA:8368,0
DA:8369,0
DA:8370,0
DA:8372,0
DA:8373,0
DA:8374,0
DA:8375,0
DA:8377,0
DA:8387,0
DA:8388,0
DA:8389,0
DA:8391,0
DA:8394,0
DA:8405,0
DA:8406,0
DA:8409,0
DA:8410,0
DA:8411,0
DA:8412,0
DA:8413,0
DA:8415,0
DA:8416,0
DA:8419,0
DA:8420,0
DA:8431,0
DA:8432,0
DA:8435,0
DA:8436,0
DA:8439,0
DA:8440,0
DA:8461,0
DA:8464,0
DA:8465,0
DA:8469,0
DA:8471,0
DA:8476,0
DA:8477,0
DA:8478,0
DA:8480,0
DA:8485,0
DA:8486,0
DA:8490,0
DA:8491,0
DA:8492,0
DA:8493,0
DA:8494,0
DA:8509,0
DA:8510,0
DA:8511,0
DA:8513,0
DA:8517,0
DA:8518,0
DA:8521,0
DA:8522,0
DA:8526,0
DA:8527,0
DA:8528,0
DA:8534,0
DA:8542,0
DA:8543,0
DA:8544,0
DA:8545,0
DA:8546,0
DA:8547,0
DA:8548,0
DA:8549,0
DA:8557,0
DA:8558,0
DA:8560,0
DA:8562,0
DA:8563,0
DA:8564,0
DA:8566,0
DA:8569,0
DA:8570,0
DA:8571,0
DA:8572,0
DA:8573,0
DA:8574,0
DA:8575,0
DA:8576,0
DA:8577,0
DA:8579,0
DA:8582,0
DA:8583,0
DA:8584,0
DA:8585,0
DA:8586,0
DA:8587,0
DA:8588,0
DA:8590,0
DA:8592,0
DA:8594,0
DA:8595,0
DA:8597,0
DA:8598,0
DA:8599,0
DA:8600,0
DA:8601,0
DA:8602,0
DA:8604,0
DA:8605,0
DA:8606,0
DA:8607,0
DA:8610,0
DA:8611,0
DA:8612,0
DA:8613,0
DA:8614,0
DA:8617,0
DA:8618,0
DA:8621,0
DA:8622,0
DA:8625,0
DA:8626,0
DA:8629,0
DA:8630,0
DA:8633,0
DA:8634,0
DA:8637,0
DA:8638,0
DA:8641,0
DA:8642,0
DA:8647,0
DA:8648,0
DA:8651,0
DA:8653,0
DA:8656,0
DA:8664,0
DA:8665,0
DA:8666,0
DA:8668,0
DA:8676,0
DA:8678,0
DA:8680,0
DA:8682,0
DA:8684,0
DA:8686,0
DA:8697,0
DA:8698,0
DA:8699,0
DA:8700,0
DA:8701,0
DA:8702,0
DA:8703,0
DA:8704,0
DA:8706,0
DA:8707,0
DA:8708,0
DA:8709,0
DA:8713,0
DA:8714,0
DA:8715,0
DA:8716,0
DA:8718,0
DA:8719,0
DA:8720,0
DA:8721,0
DA:8722,0
DA:8723,0
DA:8724,0
DA:8725,0
DA:8726,0
DA:8727,0
DA:8728,0
DA:8730,0
DA:8732,0
DA:8733,0
DA:8737,0
DA:8739,0
DA:8740,0
DA:8744,0
DA:8746,0
DA:8747,0
DA:8751,0
DA:8753,0
DA:8754,0
DA:8759,0
DA:8761,0
DA:8762,0
DA:8763,0
DA:8764,0
DA:8766,0
DA:8767,0
DA:8768,0
DA:8770,0
DA:8771,0
DA:8775,0
DA:8776,0
DA:8778,0
DA:8779,0
DA:8781,0
DA:8782,0
DA:8784,0
DA:8785,0
DA:8788,0
DA:8789,0
DA:8799,0
DA:8803,0
DA:8804,0
DA:8805,0
DA:8806,0
DA:8807,0
DA:8809,0
DA:8811,0
DA:8813,0
DA:8814,0
DA:8815,0
DA:8816,0
DA:8817,0
DA:8819,0
DA:8820,0
DA:8822,0
DA:8823,0
DA:8824,0
DA:8838,0
DA:8839,0
DA:8840,0
DA:8841,0
DA:8842,0
DA:8852,0
DA:8854,0
DA:8856,0
DA:8857,0
DA:8858,0
DA:8859,0
DA:8860,0
DA:8861,0
DA:8862,0
DA:8864,0
DA:8866,0
DA:8867,0
DA:8868,0
DA:8870,0
DA:8871,0
DA:8872,0
DA:8882,1
DA:8884,1
DA:8885,1
DA:8886,1
DA:8887,2
DA:8888,1
DA:8890,1
DA:8892,0
DA:8894,0
DA:8895,0
DA:8897,0
DA:8899,0
DA:8900,0
DA:8902,0
DA:8903,0
DA:8906,0
DA:8907,0
DA:8908,0
DA:8910,0
DA:8911,0
DA:8912,0
DA:8940,0
DA:8941,0
DA:8942,0
DA:8943,0
DA:8944,0
DA:8945,0
DA:8946,0
DA:8947,0
DA:8949,0
DA:8950,0
DA:8952,0
DA:8954,0
DA:8955,0
DA:8956,0
DA:8957,0
DA:8958,0
DA:8959,0
DA:8960,0
DA:8962,0
DA:8963,0
DA:8964,0
DA:8965,0
DA:8966,0
DA:8968,0
DA:8969,0
DA:8970,0
DA:8971,0
DA:8972,0
DA:8973,0
DA:8974,0
DA:8975,0
DA:8976,0
DA:8977,0
DA:8978,0
DA:8979,0
DA:8980,0
DA:8981,0
DA:8982,0
DA:8983,0
DA:8984,0
DA:8985,0
DA:8986,0
DA:8987,0
DA:8988,0
DA:8989,0
DA:8990,0
DA:8991,0
DA:8992,0
DA:8993,0
DA:8994,0
DA:8995,0
DA:8996,0
DA:8997,0
DA:8998,0
DA:8999,0
DA:9000,0
DA:9001,0
DA:9002,0
DA:9003,0
DA:9004,0
DA:9005,0
DA:9006,0
DA:9007,0
DA:9008,0
DA:9009,0
DA:9010,0
DA:9011,0
DA:9012,0
DA:9014,0
DA:9017,0
DA:9018,0
DA:9020,0
DA:9023,0
DA:9024,0
DA:9025,0
DA:9026,0
DA:9028,0
DA:9029,0
DA:9030,0
DA:9031,0
DA:9033,0
DA:9035,0
DA:9036,0
DA:9037,0
DA:9039,0
DA:9040,0
DA:9041,0
DA:9043,0
DA:9045,0
DA:9047,0
DA:9049,0
DA:9050,0
DA:9051,0
DA:9053,0
DA:9055,0
DA:9056,0
DA:9057,0
DA:9058,0
DA:9060,0
DA:9062,0
DA:9063,0
DA:9064,0
DA:9065,0
DA:9067,0
DA:9069,0
DA:9070,0
DA:9071,0
DA:9073,0
DA:9074,0
DA:9076,0
DA:9077,0
DA:9079,0
DA:9081,0
DA:9082,0
DA:9083,0
DA:9084,0
DA:9086,0
DA:9088,0
DA:9103,0
DA:9104,0
DA:9107,0
DA:9108,0
DA:9109,0
DA:9111,0
DA:9112,0
DA:9113,0
DA:9114,0
DA:9115,0
DA:9116,0
DA:9118,0
DA:9119,0
DA:9120,0
DA:9122,0
DA:9123,0
DA:9125,0
DA:9128,0
DA:9129,0
DA:9130,0
DA:9131,0
DA:9134,0
DA:9135,0
DA:9137,0
DA:9140,0
DA:9141,0
DA:9142,0
DA:9143,0
DA:9145,0
DA:9147,0
DA:9148,0
DA:9149,0
DA:9150,0
DA:9151,0
DA:9153,0
DA:9185,0
DA:9186,0
DA:9187,0
DA:9188,0
DA:9189,0
DA:9190,0
DA:9191,0
DA:9192,0
DA:9193,0
DA:9194,0
DA:9195,0
DA:9196,0
DA:9198,0
DA:9199,0
DA:9200,0
DA:9201,0
DA:9202,0
DA:9203,0
DA:9204,0
DA:9205,0
DA:9206,0
DA:9208,0
DA:9209,0
DA:9211,0
DA:9212,0
DA:9213,0
DA:9214,0
DA:9215,0
DA:9216,0
DA:9217,0
DA:9218,0
DA:9220,0
DA:9221,0
DA:9222,0
DA:9223,0
DA:9224,0
DA:9225,0
DA:9226,0
DA:9227,0
DA:9228,0
DA:9230,0
DA:9231,0
DA:9232,0
DA:9233,0
DA:9234,0
DA:9235,0
DA:9236,0
DA:9237,0
DA:9238,0
DA:9239,0
DA:9240,0
DA:9241,0
DA:9242,0
DA:9243,0
DA:9244,0
DA:9245,0
DA:9246,0
DA:9247,0
DA:9248,0
DA:9249,0
DA:9250,0
DA:9251,0
DA:9252,0
DA:9253,0
DA:9254,0
DA:9255,0
DA:9256,0
DA:9257,0
DA:9258,0
DA:9259,0
DA:9260,0
DA:9261,0
DA:9262,0
DA:9264,0
DA:9267,0
DA:9268,0
DA:9269,0
DA:9271,0
DA:9273,0
DA:9274,0
DA:9275,0
DA:9276,0
DA:9277,0
DA:9278,0
DA:9280,0
DA:9282,0
DA:9283,0
DA:9286,0
DA:9287,0
DA:9288,0
DA:9290,0
DA:9291,0
DA:9292,0
DA:9293,0
DA:9294,0
DA:9296,0
DA:9297,0
DA:9298,0
DA:9299,0
DA:9300,0
DA:9301,0
DA:9302,0
DA:9303,0
DA:9305,0
DA:9306,0
DA:9307,0
DA:9308,0
DA:9309,0
DA:9311,0
DA:9312,0
DA:9314,0
DA:9315,0
DA:9316,0
DA:9317,0
DA:9318,0
DA:9331,4
DA:9332,4
DA:9333,4
DA:9337,1
DA:9338,1
DA:9339,0
DA:9340,1
DA:9341,0
DA:9342,1
DA:9343,1
DA:9345,0
DA:9370,0
DA:9371,0
DA:9372,0
DA:9373,0
DA:9374,0
DA:9375,0
DA:9376,0
DA:9377,0
DA:9378,0
DA:9379,0
DA:9380,0
DA:9381,0
DA:9383,0
DA:9386,0
DA:9388,0
DA:9389,0
DA:9390,0
DA:9391,0
DA:9392,0
DA:9393,0
DA:9394,0
DA:9395,0
DA:9396,0
DA:9397,0
DA:9398,0
DA:9399,0
DA:9402,0
DA:9403,0
DA:9404,0
DA:9405,0
DA:9406,0
DA:9407,0
DA:9408,0
DA:9409,0
DA:9410,0
DA:9411,0
DA:9412,0
DA:9413,0
DA:9414,0
DA:9415,0
DA:9419,0
DA:9420,0
DA:9444,1
DA:9445,1
DA:9446,1
DA:9448,0
DA:9449,0
DA:9452,0
DA:9453,0
DA:9454,0
DA:9455,0
DA:9457,0
DA:9458,0
DA:9459,0
DA:9460,0
DA:9461,0
DA:9463,0
DA:9465,0
DA:9466,0
DA:9467,0
DA:9468,596
DA:9469,596
DA:9470,0
DA:9471,0
DA:9472,0
DA:9474,596
DA:9477,0
DA:9478,0
DA:9479,0
DA:9482,0
DA:9483,0
DA:9484,0
DA:9485,0
DA:9486,0
DA:9487,0
DA:9488,0
DA:9489,0
DA:9491,0
DA:9493,0
DA:9494,0
DA:9495,0
DA:9496,0
DA:9497,0
DA:9498,0
DA:9500,0
DA:9501,0
DA:9502,0
DA:9504,0
DA:9505,0
DA:9506,0
DA:9507,0
DA:9509,0
DA:9512,0
DA:9513,0
DA:9514,0
DA:9518,1
DA:9520,1
DA:9521,0
DA:9522,1
DA:9529,0
DA:9538,6
DA:9540,5
DA:9541,1
DA:9542,1
DA:9544,2
DA:9546,0
DA:9547,0
DA:9550,0
DA:9551,0
DA:9552,0
DA:9554,0
DA:9555,0
DA:9556,0
DA:9558,0
DA:9559,0
DA:9561,0
DA:9565,0
DA:9566,0
DA:9568,0
DA:9570,0
DA:9571,0
DA:9572,0
DA:9575,239
DA:9576,239
DA:9577,239
DA:9578,239
DA:9579,239
DA:9580,239
DA:9581,239
DA:9582,239
DA:9583,0
DA:9585,0
DA:9586,0
DA:9587,0
DA:9589,0
DA:9590,0
DA:9591,0
DA:9592,239
DA:9593,239
DA:9594,0
DA:9596,239
DA:9597,0
DA:9599,239
DA:9600,239
DA:9602,0
DA:9603,0
DA:9605,0
DA:9606,0
DA:9608,0
DA:9609,0
DA:9610,0
DA:9611,0
DA:9613,0
DA:9615,0
DA:9616,0
DA:9617,0
DA:9619,0
DA:9620,0
DA:9621,0
DA:9622,0
DA:9624,0
DA:9626,0
DA:9627,0
DA:9628,0
DA:9629,0
DA:9631,0
DA:9636,0
DA:9637,0
DA:9638,0
DA:9639,0
DA:9640,0
DA:9641,0
DA:9643,0
DA:9645,0
DA:9646,0
DA:9648,0
DA:9649,0
DA:9650,0
DA:9652,118
DA:9653,118
DA:9654,118
DA:9655,118
DA:9656,118
DA:9657,1
DA:9658,1
DA:9659,1
DA:9660,1
DA:9661,1
DA:9662,1
DA:9663,1
DA:9664,1
DA:9665,1
DA:9666,0
DA:9667,0
DA:9669,1
DA:9670,1
DA:9671,1
DA:9673,0
DA:9675,0
DA:9676,0
DA:9677,0
DA:9679,0
DA:9681,0
DA:9682,0
DA:9684,0
DA:9685,0
DA:9686,0
DA:9688,0
DA:9689,0
DA:9690,0
DA:9691,0
DA:9692,0
DA:9693,0
DA:9695,0
DA:9697,0
DA:9698,0
DA:9699,0
DA:9700,0
DA:9701,0
DA:9703,0
DA:9704,0
DA:9707,0
DA:9708,0
DA:9709,0
DA:9710,0
DA:9711,0
DA:9713,0
DA:9716,0
DA:9717,0
DA:9718,0
DA:9719,0
DA:9720,0
DA:9722,0
DA:9723,0
DA:9724,0
DA:9725,0
DA:9726,0
DA:9727,0
DA:9729,0
DA:9730,0
DA:9731,0
DA:9732,0
DA:9734,0
DA:9755,0
DA:9756,0
DA:9757,0
DA:9759,0
DA:9761,0
DA:9762,0
DA:9763,0
DA:9764,0
DA:9765,0
DA:9767,1
DA:9768,1
DA:9769,1
DA:9770,1
DA:9771,1
DA:9772,1
DA:9773,1
DA:9774,0
DA:9775,2
DA:9776,1
DA:9778,1
DA:9779,2
DA:9780,2
DA:9781,2
DA:9782,1
DA:9783,2
DA:9784,2
DA:9786,0
DA:9787,0
DA:9789,2
DA:9790,2
DA:9792,0
DA:9793,0
DA:9795,1
DA:9796,1
DA:9817,0
DA:9819,0
DA:9823,0
DA:9824,0
DA:9835,0
DA:9836,0
DA:9837,0
DA:9839,0
DA:9840,0
DA:9841,0
DA:9843,0
DA:9844,0
DA:9846,0
DA:9847,0
DA:9850,0
DA:9851,0
DA:9853,0
DA:9855,0
DA:9856,0
DA:9858,0
DA:9863,0
DA:9865,0
DA:9866,0
DA:9867,0
DA:9870,0
DA:9872,0
DA:9874,0
DA:9875,0
DA:9877,0
DA:9879,0
DA:9881,0
DA:9882,0
DA:9885,0
DA:9887,0
DA:9888,0
DA:9889,0
DA:9890,0
DA:9891,0
DA:9895,0
DA:9896,0
DA:9897,0
DA:9899,0
DA:9901,0
DA:9907,0
DA:9908,0
DA:9909,0
DA:9912,0
DA:9913,0
DA:9914,0
DA:9917,0
DA:9918,0
DA:9919,0
DA:9921,0
DA:9922,0
DA:9923,0
DA:9924,0
DA:9925,0
DA:9926,0
DA:9928,0
DA:9930,0
DA:9931,0
DA:9932,0
DA:9933,0
DA:9935,0
DA:9936,0
DA:9937,0
DA:9938,0
DA:9941,0
DA:9942,0
DA:9943,0
DA:9944,0
DA:9945,0
DA:9946,0
DA:9948,0
DA:9949,0
DA:9952,0
DA:9953,0
DA:9954,0
DA:9964,0
DA:9966,0
DA:9967,0
DA:9968,0
DA:9969,0
DA:9971,0
DA:9973,0
DA:9974,0
DA:9975,0
DA:9976,0
DA:9977,0
DA:9978,0
DA:9979,0
DA:9980,0
DA:9981,0
DA:9982,0
DA:9983,0
DA:9984,0
DA:9985,0
DA:9986,0
DA:9987,0
DA:9988,0
DA:9989,0
DA:9990,0
DA:10006,0
DA:10008,0
DA:10009,0
DA:10011,0
DA:10012,0
DA:10014,0
DA:10017,0
DA:10019,0
DA:10020,0
DA:10027,0
DA:10032,0
DA:10036,0
DA:10042,0
DA:10044,0
DA:10045,0
DA:10047,239
DA:10048,239
DA:10049,0
DA:10051,239
DA:10052,0
DA:10054,239
DA:10055,239
DA:10058,0
DA:10060,0
DA:10061,0
DA:10062,0
DA:10065,0
DA:10066,0
DA:10067,0
DA:10069,0
DA:10070,0
DA:10071,0
DA:10073,0
DA:10074,0
DA:10077,0
DA:10078,0
DA:10080,0
DA:10081,0
DA:10082,0
DA:10084,0
DA:10088,0
DA:10091,0
DA:10093,0
DA:10095,0
DA:10097,0
DA:10099,0
DA:10101,0
DA:10102,0
DA:10103,0
DA:10104,0
DA:10105,0
DA:10106,0
DA:10108,0
DA:10109,0
DA:10110,0
DA:10111,0
DA:10112,0
DA:10113,0
DA:10114,0
DA:10115,0
DA:10118,0
DA:10119,0
DA:10121,0
DA:10123,0
DA:10125,0
DA:10126,0
DA:10130,0
DA:10132,0
DA:10134,0
DA:10136,0
DA:10138,0
DA:10139,0
DA:10141,0
DA:10142,0
DA:10143,0
DA:10144,0
DA:10145,0
DA:10146,0
DA:10147,0
DA:10150,0
DA:10153,0
DA:10156,0
DA:10157,0
DA:10159,0
DA:10163,0
DA:10166,0
DA:10168,0
DA:10170,0
DA:10171,0
DA:10173,0
DA:10176,0
DA:10177,0
DA:10178,0
DA:10182,0
DA:10183,0
DA:10184,0
DA:10185,0
DA:10186,0
DA:10187,0
DA:10188,0
DA:10189,0
DA:10190,0
DA:10191,0
DA:10192,0
DA:10193,0
DA:10195,0
DA:10199,0
DA:10200,0
DA:10201,0
DA:10204,0
DA:10205,0
DA:10207,0
DA:10210,0
DA:10211,0
DA:10212,0
DA:10213,0
DA:10214,0
DA:10215,0
DA:10217,0
DA:10218,0
DA:10219,0
DA:10221,0
DA:10223,0
DA:10225,0
DA:10227,0
DA:10228,0
DA:10230,0
DA:10232,0
DA:10238,0
DA:10239,0
DA:10241,0
DA:10242,0
DA:10243,0
DA:10244,0
DA:10245,0
DA:10246,0
DA:10249,0
DA:10251,0
DA:10252,0
DA:10253,0
DA:10254,0
DA:10256,0
DA:10257,0
DA:10258,0
DA:10259,0
DA:10269,0
DA:10274,0
DA:10275,0
DA:10276,0
DA:10277,0
DA:10278,0
DA:10279,0
DA:10280,0
DA:10282,0
DA:10283,0
DA:10285,0
DA:10286,0
DA:10287,0
DA:10288,0
DA:10291,0
DA:10292,0
DA:10295,1
DA:10298,1
DA:10299,0
DA:10300,0
DA:10301,1
DA:10304,1
DA:10305,2
DA:10306,1
DA:10307,1
DA:10308,1
DA:10309,1
DA:10310,1
DA:10311,1
DA:10312,1
DA:10315,0
DA:10318,0
DA:10319,0
DA:10320,0
DA:10321,0
DA:10322,0
DA:10323,0
DA:10324,0
DA:10325,0
DA:10326,0
DA:10327,0
DA:10328,0
DA:10329,0
DA:10331,0
DA:10332,0
DA:10333,0
DA:10334,0
DA:10335,0
DA:10336,0
DA:10337,0
DA:10338,0
DA:10347,0
DA:10350,0
DA:10351,0
DA:10352,0
DA:10353,0
DA:10354,0
DA:10356,0
DA:10357,0
DA:10358,0
DA:10360,0
DA:10362,0
DA:10364,0
DA:10365,0
DA:10366,0
DA:10367,0
DA:10369,0
DA:10370,0
DA:10374,0
DA:10375,0
DA:10377,0
DA:10381,0
DA:10383,0
DA:10385,0
DA:10386,0
DA:10387,0
DA:10389,0
DA:10392,0
DA:10393,0
DA:10394,0
DA:10395,0
DA:10396,0
DA:10397,0
DA:10398,0
DA:10399,0
DA:10401,0
DA:10402,0
DA:10404,0
DA:10405,0
DA:10407,0
DA:10408,0
DA:10409,0
DA:10410,0
DA:10411,0
DA:10412,0
DA:10414,0
DA:10415,0
DA:10416,0
DA:10417,0
DA:10419,0
DA:10420,0
DA:10421,0
DA:10422,0
DA:10423,0
DA:10426,0
DA:10427,0
DA:10428,0
DA:10429,0
DA:10431,0
DA:10432,0
DA:10433,0
DA:10434,0
DA:10435,0
DA:10438,0
DA:10439,0
DA:10440,0
DA:10441,0
DA:10442,0
DA:10443,0
DA:10444,0
DA:10445,0
DA:10446,0
DA:10447,0
DA:10449,0
DA:10450,0
DA:10453,0
DA:10454,0
DA:10455,0
DA:10456,0
DA:10457,0
DA:10458,0
DA:10459,0
DA:10460,0
DA:10462,0
DA:10463,0
DA:10466,0
DA:10467,0
DA:10468,0
DA:10470,0
DA:10471,0
DA:10472,0
DA:10473,0
DA:10475,0
DA:10476,0
DA:10477,0
DA:10478,0
DA:10479,0
DA:10480,0
DA:10482,0
DA:10483,0
DA:10485,0
DA:10489,0
DA:10490,0
DA:10491,0
DA:10492,0
DA:10493,0
DA:10494,0
DA:10497,0
DA:10498,0
DA:10500,0
DA:10501,0
DA:10503,0
DA:10505,0
DA:10509,0
DA:10511,0
DA:10512,0
DA:10513,0
DA:10514,0
DA:10516,0
DA:10520,0
DA:10521,0
DA:10523,0
DA:10524,0
DA:10527,0
DA:10528,0
DA:10532,0
DA:10533,0
DA:10534,0
DA:10537,0
DA:10543,0
DA:10544,0
DA:10545,0
DA:10547,0
DA:10549,0
DA:10550,0
DA:10551,0
DA:10554,0
DA:10556,0
DA:10560,0
DA:10561,0
DA:10562,0
DA:10563,0
DA:10564,0
DA:10566,0
DA:10567,0
DA:10568,0
DA:10569,0
DA:10573,0
DA:10574,0
DA:10575,0
DA:10580,0
DA:10583,0
DA:10584,0
DA:10586,0
DA:10587,0
DA:10591,0
DA:10592,0
DA:10593,0
DA:10594,0
DA:10601,0
DA:10602,0
DA:10603,0
DA:10605,0
DA:10610,0
DA:10611,0
DA:10613,0
DA:10621,0
DA:10622,0
DA:10624,0
DA:10625,0
DA:10626,0
DA:10627,0
DA:10628,0
DA:10632,0
DA:10635,0
DA:10636,0
DA:10637,0
DA:10638,0
DA:10640,0
DA:10642,0
DA:10645,0
DA:10646,0
DA:10647,0
DA:10648,0
DA:10649,0
DA:10650,0
DA:10651,0
DA:10652,0
DA:10654,0
DA:10657,0
DA:10659,0
DA:10660,0
DA:10661,0
DA:10662,0
DA:10663,0
DA:10664,0
DA:10665,0
DA:10666,0
DA:10668,0
DA:10670,0
DA:10671,0
DA:10672,0
DA:10674,0
DA:10675,0
DA:10677,0
DA:10678,0
DA:10679,0
DA:10681,0
DA:10682,0
DA:10683,0
DA:10684,0
DA:10685,0
DA:10686,0
DA:10688,0
DA:10689,0
DA:10690,0
DA:10693,0
DA:10694,0
DA:10695,0
DA:10697,0
DA:10698,0
DA:10699,0
DA:10700,0
DA:10714,0
DA:10716,0
DA:10718,0
DA:10726,0
DA:10729,0
DA:10731,0
DA:10733,0
DA:10735,0
DA:10738,0
DA:10739,0
DA:10741,0
DA:10742,0
DA:10743,0
DA:10744,0
DA:10746,0
DA:10747,0
DA:10749,0
DA:10756,0
DA:10757,0
DA:10758,0
DA:10759,0
DA:10760,0
DA:10762,0
DA:10763,0
DA:10764,0
DA:10765,0
DA:10766,0
DA:10767,0
DA:10769,0
DA:10773,0
DA:10775,0
DA:10777,0
DA:10778,0
DA:10779,0
DA:10780,0
DA:10781,0
DA:10783,0
DA:10784,0
DA:10787,0
DA:10788,0
DA:10789,0
DA:10790,0
DA:10791,0
DA:10792,0
DA:10793,0
DA:10794,0
DA:10796,0
DA:10797,0
DA:10798,0
DA:10800,0
DA:10801,0
DA:10802,0
DA:10803,0
DA:10804,0
DA:10806,0
DA:10807,0
DA:10808,0
DA:10809,0
DA:10810,0
DA:10812,0
DA:10813,0
DA:10814,0
DA:10815,0
DA:10816,0
DA:10818,0
DA:10819,0
DA:10821,0
DA:10822,0
DA:10823,0
DA:10824,0
DA:10825,0
DA:10826,0
DA:10827,0
DA:10828,0
DA:10829,0
DA:10831,0
DA:10832,0
DA:10836,0
DA:10837,0
DA:10838,0
DA:10839,0
DA:10840,0
DA:10841,0
DA:10842,0
DA:10843,0
DA:10845,0
DA:10848,0
DA:10849,0
DA:10851,0
DA:10852,0
DA:10853,0
DA:10855,0
DA:10856,0
DA:10860,0
DA:10861,0
DA:10864,0
DA:10866,0
DA:10867,0
DA:10868,0
DA:10869,0
DA:10873,0
DA:10874,0
DA:10876,0
DA:10878,0
DA:10879,0
DA:10881,0
DA:10885,0
DA:10886,0
DA:10887,0
DA:10889,0
DA:10890,0
DA:10891,0
DA:10892,0
DA:10893,0
DA:10894,0
DA:10895,0
DA:10898,0
DA:10899,0
DA:10901,0
DA:10906,0
DA:10908,0
DA:10909,0
DA:10910,0
DA:10913,0
DA:10916,0
DA:10917,0
DA:10918,0
DA:10919,0
DA:10920,0
DA:10921,0
DA:10922,0
DA:10923,0
DA:10925,0
DA:10926,0
DA:10928,0
DA:10929,0
DA:10930,0
DA:10931,0
DA:10934,0
DA:10936,0
DA:10937,0
DA:10938,0
DA:10939,0
DA:10940,0
DA:10941,0
DA:10942,0
DA:10944,0
DA:10945,0
DA:10946,0
DA:10949,0
DA:10950,0
DA:10951,0
DA:10952,0
DA:10953,0
DA:10955,0
DA:10961,0
DA:10962,0
DA:10965,0
DA:10967,0
DA:10968,0
DA:10970,0
DA:10971,0
DA:10972,0
DA:10974,0
DA:10975,0
DA:10976,0
DA:10977,0
DA:10978,0
DA:10980,0
DA:10981,0
DA:10982,0
DA:10986,0
DA:10987,0
DA:10988,0
DA:10989,0
DA:10990,0
DA:10992,0
DA:10993,0
DA:10994,0
DA:10995,0
DA:11005,0
DA:11006,0
DA:11007,0
DA:11008,0
DA:11009,0
DA:11010,0
DA:11011,0
DA:11012,0
DA:11014,0
DA:11015,0
DA:11016,0
DA:11017,0
DA:11018,0
DA:11020,0
DA:11021,0
DA:11028,0
DA:11032,0
DA:11033,0
DA:11035,0
DA:11036,0
DA:11037,0
DA:11039,0
DA:11041,0
DA:11042,0
DA:11043,0
DA:11045,0
DA:11047,0
DA:11048,0
DA:11049,0
DA:11051,0
DA:11053,0
DA:11054,0
DA:11055,0
DA:11057,0
DA:11058,0
DA:11059,0
DA:11060,0
DA:11062,0
DA:11063,0
DA:11064,0
DA:11065,0
DA:11067,0
DA:11069,0
DA:11070,0
DA:11071,0
DA:11073,0
DA:11075,0
DA:11076,0
DA:11077,0
DA:11079,0
DA:11081,0
DA:11082,0
DA:11083,0
DA:11085,0
DA:11088,0
DA:11090,0
DA:11091,0
DA:11093,0
DA:11095,0
DA:11096,0
DA:11097,0
DA:11099,0
DA:11101,0
DA:11102,0
DA:11103,0
DA:11105,0
DA:11107,0
DA:11109,0
DA:11110,0
DA:11112,0
DA:11113,0
DA:11114,0
DA:11115,0
DA:11118,0
DA:11120,0
DA:11121,0
DA:11122,0
DA:11124,0
DA:11126,0
DA:11128,0
DA:11129,0
DA:11130,0
DA:11131,0
DA:11133,0
DA:11134,0
DA:11138,0
DA:11139,0
DA:11141,0
DA:11143,0
DA:11144,0
DA:11145,0
DA:11147,0
DA:11149,0
DA:11150,0
DA:11151,0
DA:11153,0
DA:11156,0
DA:11157,0
DA:11158,0
DA:11160,0
DA:11162,0
DA:11163,0
DA:11164,0
DA:11166,0
DA:11168,0
DA:11170,0
DA:11171,0
DA:11173,0
DA:11175,0
DA:11176,0
DA:11177,0
DA:11179,0
DA:11181,0
DA:11182,0
DA:11183,0
DA:11185,0
DA:11196,0
DA:11199,0
DA:11202,0
DA:11205,0
DA:11206,0
DA:11207,0
DA:11209,0
DA:11210,0
DA:11211,0
DA:11225,0
DA:11226,0
DA:11227,0
DA:11228,0
DA:11229,0
DA:11230,0
DA:11232,0
DA:11233,0
DA:11234,0
DA:11237,0
DA:11238,0
DA:11240,0
DA:11241,0
DA:11242,0
DA:11243,0
DA:11245,0
DA:11246,0
DA:11248,0
DA:11249,0
DA:11250,0
DA:11253,0
DA:11254,0
DA:11256,0
DA:11258,0
DA:11259,0
DA:11260,0
DA:11262,0
DA:11263,0
DA:11264,0
DA:11266,0
DA:11269,0
DA:11270,0
DA:11271,0
DA:11272,0
DA:11274,0
DA:11275,0
DA:11276,0
DA:11277,0
DA:11279,0
DA:11280,0
DA:11281,0
DA:11282,0
DA:11283,0
DA:11284,0
DA:11286,0
DA:11287,0
DA:11289,0
DA:11290,0
DA:11291,0
DA:11293,0
DA:11294,0
DA:11295,0
DA:11296,0
DA:11299,0
DA:11301,0
DA:11302,0
DA:11303,0
DA:11304,0
DA:11305,0
DA:11306,0
DA:11307,0
DA:11309,0
DA:11310,0
DA:11312,0
DA:11313,0
DA:11314,0
DA:11317,0
DA:11318,0
DA:11319,0
DA:11320,0
DA:11321,0
DA:11323,0
DA:11329,0
DA:11330,0
DA:11334,0
DA:11336,0
DA:11337,0
DA:11338,0
DA:11340,0
DA:11341,0
DA:11342,0
DA:11344,0
DA:11345,0
DA:11346,0
DA:11348,0
DA:11349,0
DA:11353,0
DA:11354,0
DA:11356,0
DA:11357,0
DA:11358,0
DA:11360,0
DA:11361,0
DA:11362,0
DA:11363,0
DA:11371,1
DA:11374,1
DA:11375,1
DA:11376,1
DA:11378,1
DA:11379,1
DA:11380,1
DA:11402,0
DA:11403,0
DA:11404,0
DA:11405,0
DA:11406,0
DA:11407,0
DA:11408,0
DA:11409,0
DA:11411,0
DA:11412,0
DA:11414,0
DA:11415,0
DA:11416,0
DA:11417,0
DA:11418,0
DA:11419,0
DA:11420,0
DA:11422,0
DA:11423,0
DA:11424,0
DA:11425,0
DA:11426,0
DA:11428,0
DA:11430,0
DA:11431,0
DA:11432,0
DA:11433,0
DA:11435,0
DA:11436,0
DA:11437,0
DA:11438,0
DA:11439,0
DA:11440,0
DA:11441,0
DA:11442,0
DA:11443,0
DA:11444,0
DA:11445,0
DA:11446,0
DA:11447,0
DA:11448,0
DA:11449,0
DA:11450,0
DA:11451,0
DA:11452,0
DA:11453,0
DA:11454,0
DA:11455,0
DA:11456,0
DA:11457,0
DA:11458,0
DA:11459,0
DA:11460,0
DA:11461,0
DA:11462,0
DA:11463,0
DA:11464,0
DA:11465,0
DA:11466,0
DA:11467,0
DA:11468,0
DA:11469,0
DA:11470,0
DA:11471,0
DA:11472,0
DA:11473,0
DA:11474,0
DA:11475,0
DA:11476,0
DA:11477,0
DA:11479,0
DA:11482,0
DA:11483,0
DA:11485,0
DA:11488,0
DA:11489,0
DA:11490,0
DA:11492,0
DA:11494,0
DA:11495,0
DA:11496,0
DA:11498,0
DA:11499,0
DA:11500,0
DA:11501,0
DA:11502,0
DA:11503,0
DA:11505,0
DA:11507,0
DA:11508,0
DA:11509,0
DA:11511,0
DA:11513,0
DA:11514,0
DA:11515,0
DA:11517,0
DA:11518,0
DA:11519,0
DA:11520,0
DA:11521,0
DA:11523,0
DA:11524,0
DA:11525,0
DA:11526,0
DA:11528,0
DA:11530,0
DA:11531,0
DA:11532,0
DA:11536,0
DA:11537,0
DA:11539,0
DA:11540,0
DA:11542,0
DA:11544,0
DA:11545,0
DA:11546,0
DA:11547,0
DA:11565,0
DA:11566,0
DA:11567,0
DA:11569,0
DA:11570,0
DA:11571,0
DA:11573,0
DA:11574,0
DA:11575,0
DA:11577,0
DA:11578,0
DA:11580,0
DA:11581,0
DA:11582,0
DA:11584,0
DA:11585,0
DA:11587,0
DA:11588,0
DA:11589,0
DA:11590,0
DA:11592,0
DA:11593,0
DA:11594,0
DA:11612,0
DA:11613,0
DA:11614,0
DA:11615,0
DA:11617,0
DA:11618,0
DA:11619,0
DA:11620,0
DA:11621,0
DA:11623,0
DA:11624,0
DA:11625,0
DA:11626,0
DA:11627,0
DA:11628,0
DA:11629,0
DA:11630,0
DA:11631,0
DA:11632,0
DA:11636,0
DA:11638,0
DA:11639,0
DA:11640,0
DA:11641,0
DA:11643,0
DA:11644,0
DA:11645,0
DA:11646,0
DA:11648,0
DA:11649,0
DA:11650,0
DA:11651,0
DA:11653,0
DA:11654,0
DA:11655,0
DA:11656,0
DA:11658,0
DA:11660,0
DA:11661,0
DA:11662,0
DA:11663,0
DA:11664,0
DA:11665,0
DA:11666,0
DA:11667,0
DA:11668,0
DA:11669,0
DA:11670,0
DA:11671,0
DA:11672,0
DA:11673,0
DA:11674,0
DA:11675,0
DA:11676,0
DA:11677,0
DA:11678,0
DA:11681,0
DA:11684,0
DA:11686,0
DA:11689,0
DA:11691,0
DA:11692,0
DA:11693,0
DA:11694,0
DA:11695,0
DA:11696,0
DA:11699,0
DA:11701,0
DA:11703,0
DA:11706,0
DA:11707,0
DA:11708,0
DA:11709,0
DA:11710,0
DA:11712,0
DA:11714,0
DA:11715,0
DA:11716,0
DA:11717,0
DA:11718,0
DA:11720,0
DA:11721,0
DA:11722,0
DA:11723,0
DA:11724,0
DA:11725,0
DA:11726,0
DA:11728,0
DA:11729,0
DA:11730,0
DA:11731,0
DA:11732,0
DA:11733,0
DA:11734,0
DA:11735,0
DA:11736,0
DA:11737,0
DA:11738,0
DA:11739,0
DA:11740,0
DA:11741,0
DA:11742,0
DA:11743,0
DA:11745,0
DA:11746,0
DA:11748,0
DA:11749,0
DA:11752,0
DA:11753,0
DA:11754,0
DA:11755,0
DA:11756,0
DA:11759,0
DA:11761,0
DA:11762,0
DA:11763,0
DA:11778,0
DA:11780,0
DA:11782,0
DA:11783,0
DA:11784,0
DA:11785,0
DA:11787,0
DA:11789,0
DA:11790,0
DA:11793,0
DA:11794,0
DA:11797,0
DA:11799,0
DA:11800,0
DA:11801,0
DA:11803,0
DA:11804,0
DA:11805,0
DA:11806,0
DA:11807,0
DA:11808,0
DA:11809,0
DA:11810,0
DA:11811,0
DA:11812,0
DA:11813,0
DA:11814,0
DA:11816,0
DA:11818,0
DA:11819,0
DA:11820,0
DA:11821,0
DA:11822,0
DA:11824,0
DA:11826,0
DA:11827,0
DA:11828,0
DA:11829,0
DA:11831,0
DA:11832,0
DA:11833,0
DA:11834,0
DA:11835,0
DA:11836,0
DA:11837,0
DA:11839,0
DA:11841,0
DA:11843,0
DA:11845,0
DA:11847,0
DA:11849,0
DA:11850,0
DA:11851,0
DA:11852,0
DA:11853,0
DA:11854,0
DA:11855,0
DA:11856,0
DA:11857,0
DA:11858,0
DA:11863,0
DA:11864,0
DA:11865,0
DA:11869,0
DA:11870,0
DA:11871,0
DA:11872,0
DA:11874,0
DA:11876,0
DA:11877,0
DA:11878,0
DA:11879,0
DA:11883,0
DA:11884,0
DA:11885,0
DA:11886,0
DA:11887,0
DA:11888,0
DA:11889,0
DA:11890,0
DA:11891,0
DA:11892,0
DA:11893,0
DA:11894,0
DA:11895,0
DA:11896,0
DA:11897,0
DA:11898,0
DA:11899,0
DA:11900,0
DA:11902,0
DA:11903,0
DA:11904,0
DA:11905,0
DA:11906,0
DA:11907,0
DA:11908,0
DA:11909,0
DA:11910,0
DA:11911,0
DA:11912,0
DA:11913,0
DA:11914,0
DA:11915,0
DA:11916,0
DA:11919,0
DA:11920,0
DA:11923,0
DA:11924,0
DA:11925,0
DA:11927,0
DA:11928,0
DA:11929,0
DA:11930,0
DA:11931,0
DA:11933,0
DA:11934,0
DA:11935,0
DA:11937,0
DA:11939,0
DA:11941,0
DA:11942,0
DA:11943,0
DA:11944,0
DA:11945,0
DA:11947,0
DA:11948,0
DA:11949,0
DA:11950,0
DA:11951,0
DA:11952,0
DA:11954,0
DA:11955,0
DA:11957,0
DA:11958,0
DA:11959,0
DA:11960,0
DA:11961,0
DA:11962,0
DA:11963,0
DA:11964,0
DA:11965,0
DA:11966,0
DA:11967,0
DA:11968,0
DA:11969,0
DA:11970,0
DA:11972,0
DA:11973,0
DA:11974,0
DA:11975,0
DA:11977,0
DA:11978,0
DA:11979,0
DA:11980,0
DA:11981,0
DA:11982,0
DA:11983,0
DA:11984,0
DA:11986,0
DA:11987,0
DA:11988,0
DA:11989,0
DA:11990,0
DA:11991,0
DA:11992,0
DA:11993,0
DA:11994,0
DA:11995,0
DA:11996,0
DA:11997,0
DA:11998,0
DA:11999,0
DA:12000,0
DA:12001,0
DA:12002,0
DA:12003,0
DA:12004,0
DA:12006,0
DA:12007,0
DA:12008,0
DA:12009,0
DA:12010,0
DA:12012,0
DA:12013,0
DA:12014,0
DA:12015,0
DA:12016,0
DA:12017,0
DA:12018,0
DA:12019,0
DA:12020,0
DA:12021,0
DA:12022,0
DA:12023,0
DA:12025,0
DA:12026,0
DA:12027,0
DA:12028,0
DA:12029,0
DA:12030,0
DA:12031,0
DA:12032,0
DA:12033,0
DA:12034,0
DA:12035,0
DA:12036,0
DA:12038,0
DA:12039,0
DA:12040,0
DA:12041,0
DA:12042,0
DA:12043,0
DA:12044,0
DA:12045,0
DA:12046,0
DA:12047,0
DA:12048,0
DA:12049,0
DA:12050,0
DA:12051,0
DA:12053,0
DA:12054,0
DA:12055,0
DA:12056,0
DA:12057,0
DA:12058,0
DA:12059,0
DA:12060,0
DA:12061,0
DA:12063,0
DA:12064,0
DA:12065,0
DA:12066,0
DA:12067,0
DA:12068,0
DA:12069,0
DA:12070,0
DA:12071,0
DA:12072,0
DA:12073,0
DA:12074,0
DA:12076,0
DA:12077,0
LF:6368
LH:1276
end_of_record
TN:
SF:/home/Kurbanov/lab3/utils/catch_amalgamated.hpp
FN:10056,10056,_ZNK5Catch7IStream9isConsoleEv
FN:10104,10106,_ZNO5Catch15JsonValueWriter5writeINS_7VersionEEEvRKT_
FN:10104,10106,_ZNO5Catch15JsonValueWriter5writeINS_8TestSpecEEEvRKT_
FN:10104,10106,_ZNO5Catch15JsonValueWriter5writeINSt7__cxx1112basic_stringIcSt11char_traitsIcESaIcEEEEEvRKT_
FN:10104,10106,_ZNO5Catch15JsonValueWriter5writeIPKcEEvRKT_
FN:10104,10106,_ZNO5Catch15JsonValueWriter5writeIiEEvRKT_
FN:10104,10106,_ZNO5Catch15JsonValueWriter5writeIjEEvRKT_
FN:10104,10106,_ZNO5Catch15JsonValueWriter5writeImEEvRKT_
FN:10120,10123,_ZN5Catch15JsonValueWriter9writeImplINS_7VersionEvEEvRKT_b
FN:10120,10123,_ZN5Catch15JsonValueWriter9writeImplINS_8TestSpecEvEEvRKT_b
FN:10120,10123,_ZN5Catch15JsonValueWriter9writeImplIivEEvRKT_b
FN:10120,10123,_ZN5Catch15JsonValueWriter9writeImplIjvEEvRKT_b
FN:10120,10123,_ZN5Catch15JsonValueWriter9writeImplImvEEvRKT_b
FN:10163,10165,_ZN5Catch15JsonArrayWriter5writeINS_9StringRefEEERS0_RKT_
FN:10171,10177,_ZN5Catch15JsonArrayWriter9writeImplINS_9StringRefEEERS0_RKT_
FN:10171,10177,_ZN5Catch15JsonArrayWriter9writeImplIbEERS0_RKT_
FN:10270,10270,_ZNK5Catch14OutputRedirect8isActiveEv
FN:10271,10275,_ZN5Catch14OutputRedirect8activateEv
FN:10276,10280,_ZN5Catch14OutputRedirect10deactivateEv
FN:10400,10407,_ZN5Catch16TestCaseTrackingeqERKNS0_15NameAndLocationES3_
FN:10408,10411,_ZN5Catch16TestCaseTrackingneERKNS0_15NameAndLocationES3_
FN:10425,10427,_ZN5Catch16TestCaseTracking18NameAndLocationRefC2ENS_9StringRefENS_14SourceLineInfoE
FN:10429,10438,_ZN5Catch16TestCaseTrackingeqERKNS0_15NameAndLocationERKNS0_18NameAndLocationRefE
FN:10469,10472,_ZN5Catch16TestCaseTracking8ITrackerC2EONS0_15NameAndLocationEPS1_
FN:10476,10478,_ZNK5Catch16TestCaseTracking8ITracker15nameAndLocationEv
FN:10479,10481,_ZNK5Catch16TestCaseTracking8ITracker6parentEv
FN:10491,10493,_ZNK5Catch16TestCaseTracking8ITracker23isSuccessfullyCompletedEv
FN:10513,10515,_ZNK5Catch16TestCaseTracking8ITracker11hasChildrenEv
FN:10553,10556,_ZN5Catch16TestCaseTracking14TrackerContext10startCycleEv
FN:10560,10560,_ZN5Catch16TestCaseTracking14TrackerContext14currentTrackerEv
FN:10605,10605,_ZNK5Catch16TestCaseTracking14SectionTracker10getFiltersEv
FN:10651,10651,_ZN5Catch6Detail9LockGuardC2ENS0_5MutexE
FN:10816,10835,_ZN5Catch11createShardISt3setIPKNS_14TestCaseHandleESt4lessIS4_ESaIS4_EEEET_RKS9_mm
FN:10816,10835,_ZN5Catch11createShardISt6vectorINS_14TestCaseHandleESaIS2_EEEET_RKS5_mm
FN:10859,10866,_ZN5Catch9SingletonINS_12_GLOBAL__N_111RegistryHubENS_12IRegistryHubENS_19IMutableRegistryHubEE11getInternalEv
FN:10859,10866,_ZN5Catch9SingletonINS_13StringStreamsES1_S1_E11getInternalEv
FN:10869,10871,_ZN5Catch9SingletonINS_12_GLOBAL__N_111RegistryHubENS_12IRegistryHubENS_19IMutableRegistryHubEE3getEv
FN:10872,10874,_ZN5Catch9SingletonINS_12_GLOBAL__N_111RegistryHubENS_12IRegistryHubENS_19IMutableRegistryHubEE10getMutableEv
FN:10872,10874,_ZN5Catch9SingletonINS_13StringStreamsES1_S1_E10getMutableEv
FN:10966,10969,_ZN5Catch9pluraliseC2EmNS_9StringRefE
FN:1112,1118,_ZN5Catch16getResultCaptureEv
FN:11137,11141,_ZN5Catch14TestSpecParser16addCharToPatternEc
FN:11212,11213,_ZN5Catch8TextFlow18AnsiSkippingString14const_iteratorC2ERKNSt7__cxx1112basic_stringIcSt11char_traitsIcESaIcEEENS2_6EndTagE
FN:11226,11229,_ZN5Catch8TextFlow18AnsiSkippingString14const_iteratorC2ERKNSt7__cxx1112basic_stringIcSt11char_traitsIcESaIcEEE
FN:11231,11231,_ZNK5Catch8TextFlow18AnsiSkippingString14const_iteratordeEv
FN:11233,11236,_ZN5Catch8TextFlow18AnsiSkippingString14const_iteratorppEv
FN:11237,11241,_ZN5Catch8TextFlow18AnsiSkippingString14const_iteratorppEi
FN:11242,11245,_ZN5Catch8TextFlow18AnsiSkippingString14const_iteratormmEv
FN:11252,11254,_ZNK5Catch8TextFlow18AnsiSkippingString14const_iteratoreqERKS2_
FN:11255,11257,_ZNK5Catch8TextFlow18AnsiSkippingString14const_iteratorneERKS2_
FN:11258,11260,_ZNK5Catch8TextFlow18AnsiSkippingString14const_iteratorleERKS2_
FN:11262,11265,_ZNK5Catch8TextFlow18AnsiSkippingString14const_iterator9oneBeforeEv
FN:11304,11308,_ZN5Catch8TextFlow6Column14const_iteratorC2ERKS1_NS2_6EndTagE
FN:11336,11339,_ZNK5Catch8TextFlow6Column14const_iteratoreqERKS2_
FN:11340,11342,_ZNK5Catch8TextFlow6Column14const_iteratorneERKS2_
FN:11346,11346,_ZN5Catch8TextFlow6ColumnC2ERKNSt7__cxx1112basic_stringIcSt11char_traitsIcESaIcEEE
FN:11347,11348,_ZN5Catch8TextFlow6ColumnC2EONSt7__cxx1112basic_stringIcSt11char_traitsIcESaIcEEE
FN:11350,11354,_ZNR5Catch8TextFlow6Column5widthEm
FN:11355,11359,_ZNO5Catch8TextFlow6Column5widthEm
FN:11364,11367,_ZNO5Catch8TextFlow6Column6indentEm
FN:11372,11375,_ZNO5Catch8TextFlow6Column13initialIndentEm
FN:11377,11377,_ZNK5Catch8TextFlow6Column5widthEv
FN:11378,11378,_ZNK5Catch8TextFlow6Column5beginEv
FN:11379,11381,_ZNK5Catch8TextFlow6Column3endEv
FN:11419,11421,_ZNK5Catch8TextFlow7Columns8iteratorneERKS2_
FN:11428,11428,_ZNK5Catch8TextFlow7Columns5beginEv
FN:11429,11429,_ZNK5Catch8TextFlow7Columns3endEv
FN:11492,11495,_ZN5CatchorENS_13XmlFormattingES0_
FN:11497,11500,_ZN5CatchanENS_13XmlFormattingES0_
FN:11513,11514,_ZN5Catch9XmlEncodeC2ENS_9StringRefENS0_7ForWhatE
FN:11552,11556,_ZN5Catch9XmlWriter13ScopedElement14writeAttributeINS_8TestSpecEvEERS1_NS_9StringRefERKT_
FN:11552,11556,_ZN5Catch9XmlWriter13ScopedElement14writeAttributeIbvEERS1_NS_9StringRefERKT_
FN:11552,11556,_ZN5Catch9XmlWriter13ScopedElement14writeAttributeIdvEERS1_NS_9StringRefERKT_
FN:11552,11556,_ZN5Catch9XmlWriter13ScopedElement14writeAttributeIivEERS1_NS_9StringRefERKT_
FN:11552,11556,_ZN5Catch9XmlWriter13ScopedElement14writeAttributeIjvEERS1_NS_9StringRefERKT_
FN:11552,11556,_ZN5Catch9XmlWriter13ScopedElement14writeAttributeImvEERS1_NS_9StringRefERKT_
FN:11593,11597,_ZN5Catch9XmlWriter14writeAttributeINS_7VersionEvEERS0_NS_9StringRefERKT_
FN:11593,11597,_ZN5Catch9XmlWriter14writeAttributeINS_8TestSpecEvEERS0_NS_9StringRefERKT_
FN:11593,11597,_ZN5Catch9XmlWriter14writeAttributeIcvEERS0_NS_9StringRefERKT_
FN:11593,11597,_ZN5Catch9XmlWriter14writeAttributeIdvEERS0_NS_9StringRefERKT_
FN:11593,11597,_ZN5Catch9XmlWriter14writeAttributeIivEERS0_NS_9StringRefERKT_
FN:11593,11597,_ZN5Catch9XmlWriter14writeAttributeIjvEERS0_NS_9StringRefERKT_
FN:11593,11597,_ZN5Catch9XmlWriter14writeAttributeIlvEERS0_NS_9StringRefERKT_
FN:11593,11597,_ZN5Catch9XmlWriter14writeAttributeImvEERS0_NS_9StringRefERKT_
FN:11678,11682,_ZN5Catch9MatchExprINSt7__cxx1112basic_stringIcSt11char_traitsIcESaIcEEERKNS_8Matchers11MatcherBaseIS6_EEEC2EOS6_SB_
FN:11684,11688,_ZNK5Catch9MatchExprINSt7__cxx1112basic_stringIcSt11char_traitsIcESaIcEEERKNS_8Matchers11MatcherBaseIS6_EEE29streamReconstructedExpressionERSo
FN:11761,11761,_ZN5Catch8Matchers18MatcherUntypedBaseC2Ev
FN:11997,11997,_ZN5Catch8Matchers18MatcherGenericBaseC2Ev
FN:12291,12293,_ZN5Catch8Matchers14HasSizeMatcherC2Em
FN:12454,12456,_ZN5Catch8Matchers23ExceptionMessageMatcherC2ERKNSt7__cxx1112basic_stringIcSt11char_traitsIcESaIcEEE
FN:12573,12573,_ZN5Catch8Matchers12IsNaNMatcherC2Ev
FN:13322,13324,_ZN5Catch21StreamingReporterBaseC2EONS_14ReporterConfigE
FN:13327,13327,_ZN5Catch21StreamingReporterBase18benchmarkPreparingENS_9StringRefE
FN:13328,13328,_ZN5Catch21StreamingReporterBase17benchmarkStartingERKNS_13BenchmarkInfoE
FN:13329,13329,_ZN5Catch21StreamingReporterBase14benchmarkEndedERKNS_14BenchmarkStatsINSt6chrono8durationIdSt5ratioILl1ELl1000000000EEEEEE
FN:13330,13330,_ZN5Catch21StreamingReporterBase15benchmarkFailedENS_9StringRefE
FN:13332,13332,_ZN5Catch21StreamingReporterBase21fatalErrorEncounteredENS_9StringRefE
FN:13333,13333,_ZN5Catch21StreamingReporterBase19noMatchingTestCasesENS_9StringRefE
FN:13334,13334,_ZN5Catch21StreamingReporterBase21reportInvalidTestSpecENS_9StringRefE
FN:13338,13340,_ZN5Catch21StreamingReporterBase16testCaseStartingERKNS_12TestCaseInfoE
FN:13341,13341,_ZN5Catch21StreamingReporterBase23testCasePartialStartingERKNS_12TestCaseInfoEm
FN:13342,13344,_ZN5Catch21StreamingReporterBase15sectionStartingERKNS_11SectionInfoE
FN:13346,13346,_ZN5Catch21StreamingReporterBase17assertionStartingERKNS_13AssertionInfoE
FN:13347,13347,_ZN5Catch21StreamingReporterBase14assertionEndedERKNS_14AssertionStatsE
FN:13349,13351,_ZN5Catch21StreamingReporterBase12sectionEndedERKNS_12SectionStatsE
FN:13352,13352,_ZN5Catch21StreamingReporterBase20testCasePartialEndedERKNS_13TestCaseStatsEm
FN:13353,13355,_ZN5Catch21StreamingReporterBase13testCaseEndedERKNS_13TestCaseStatsE
FN:13358,13361,_ZN5Catch21StreamingReporterBase8skipTestERKNS_12TestCaseInfoE
FN:13383,13386,_ZN5Catch16AutomakeReporterC2EONS_14ReporterConfigE
FN:13390,13393,_ZN5Catch16AutomakeReporter14getDescriptionB5cxx11Ev
FN:13414,13417,_ZN5Catch15CompactReporterC2EONS_14ReporterConfigE
FN:13552,13552,_ZN5Catch22CumulativeReporterBase4NodeINS_12TestRunStatsENS1_INS_13TestCaseStatsENS0_11SectionNodeEEEEC2ERKS2_
FN:13552,13552,_ZN5Catch22CumulativeReporterBase4NodeINS_13TestCaseStatsENS0_11SectionNodeEEC2ERKS2_
FN:13559,13559,_ZN5Catch22CumulativeReporterBase11SectionNodeC2ERKNS_12SectionStatsE
FN:13580,13582,_ZN5Catch22CumulativeReporterBaseC2EONS_14ReporterConfigE
FN:13585,13585,_ZN5Catch22CumulativeReporterBase18benchmarkPreparingENS_9StringRefE
FN:13586,13586,_ZN5Catch22CumulativeReporterBase17benchmarkStartingERKNS_13BenchmarkInfoE
FN:13588,13588,_ZN5Catch22CumulativeReporterBase15benchmarkFailedENS_9StringRefE
FN:13590,13590,_ZN5Catch22CumulativeReporterBase19noMatchingTestCasesENS_9StringRefE
FN:13591,13591,_ZN5Catch22CumulativeReporterBase21reportInvalidTestSpecENS_9StringRefE
FN:13592,13592,_ZN5Catch22CumulativeReporterBase21fatalErrorEncounteredENS_9StringRefE
FN:13594,13594,_ZN5Catch22CumulativeReporterBase15testRunStartingERKNS_11TestRunInfoE
FN:13596,13596,_ZN5Catch22CumulativeReporterBase16testCaseStartingERKNS_12TestCaseInfoE
FN:13597,13597,_ZN5Catch22CumulativeReporterBase23testCasePartialStartingERKNS_12TestCaseInfoEm
FN:13600,13600,_ZN5Catch22CumulativeReporterBase17assertionStartingERKNS_13AssertionInfoE
FN:13604,13604,_ZN5Catch22CumulativeReporterBase20testCasePartialEndedERKNS_13TestCaseStatsEm
FN:13610,13610,_ZN5Catch22CumulativeReporterBase8skipTestERKNS_12TestCaseInfoE
FN:13718,13718,_ZN5Catch11lineOfCharsC2Ec
FN:13938,13941,_ZN5Catch13MultiReporterC2EPKNS_7IConfigE
FN:14019,14021,_ZNK5Catch15ReporterFactoryINS_11TAPReporterEE6createEONS_14ReporterConfigE
FN:14019,14021,_ZNK5Catch15ReporterFactoryINS_11XmlReporterEE6createEONS_14ReporterConfigE
FN:14019,14021,_ZNK5Catch15ReporterFactoryINS_12JsonReporterEE6createEONS_14ReporterConfigE
FN:14019,14021,_ZNK5Catch15ReporterFactoryINS_13JunitReporterEE6createEONS_14ReporterConfigE
FN:14019,14021,_ZNK5Catch15ReporterFactoryINS_15CompactReporterEE6createEONS_14ReporterConfigE
FN:14019,14021,_ZNK5Catch15ReporterFactoryINS_15ConsoleReporterEE6createEONS_14ReporterConfigE
FN:14019,14021,_ZNK5Catch15ReporterFactoryINS_16AutomakeReporterEE6createEONS_14ReporterConfigE
FN:14019,14021,_ZNK5Catch15ReporterFactoryINS_16TeamCityReporterEE6createEONS_14ReporterConfigE
FN:14019,14021,_ZNK5Catch15ReporterFactoryINS_17SonarQubeReporterEE6createEONS_14ReporterConfigE
FN:14023,14025,_ZNK5Catch15ReporterFactoryINS_11TAPReporterEE14getDescriptionB5cxx11Ev
FN:14023,14025,_ZNK5Catch15ReporterFactoryINS_11XmlReporterEE14getDescriptionB5cxx11Ev
FN:14023,14025,_ZNK5Catch15ReporterFactoryINS_12JsonReporterEE14getDescriptionB5cxx11Ev
FN:14023,14025,_ZNK5Catch15ReporterFactoryINS_13JunitReporterEE14getDescriptionB5cxx11Ev
FN:14023,14025,_ZNK5Catch15ReporterFactoryINS_15CompactReporterEE14getDescriptionB5cxx11Ev
FN:14023,14025,_ZNK5Catch15ReporterFactoryINS_15ConsoleReporterEE14getDescriptionB5cxx11Ev
FN:14023,14025,_ZNK5Catch15ReporterFactoryINS_16AutomakeReporterEE14getDescriptionB5cxx11Ev
FN:14023,14025,_ZNK5Catch15ReporterFactoryINS_16TeamCityReporterEE14getDescriptionB5cxx11Ev
FN:14023,14025,_ZNK5Catch15ReporterFactoryINS_17SonarQubeReporterEE14getDescriptionB5cxx11Ev
FN:14117,14124,_ZN5Catch17SonarQubeReporterC2EONS_14ReporterConfigE
FN:14126,14129,_ZN5Catch17SonarQubeReporter14getDescriptionB5cxx11Ev
FN:14133,14136,_ZN5Catch17SonarQubeReporter22testRunEndedCumulativeEv
FN:14168,14172,_ZN5Catch11TAPReporterC2EONS_14ReporterConfigE
FN:14174,14177,_ZN5Catch11TAPReporter14getDescriptionB5cxx11Ev
FN:14211,14216,_ZN5Catch16TeamCityReporterC2EONS_14ReporterConfigE
FN:14220,14223,_ZN5Catch16TeamCityReporter14getDescriptionB5cxx11Ev
FN:14231,14234,_ZN5Catch16TeamCityReporter15sectionStartingERKNS_11SectionInfoE
FN:1447,1449,_ZN5Catch9Benchmark11keep_memoryEv
FN:1452,1452,_ZN5Catch9Benchmark6Detail17optimizer_barrierEv
FN:1491,1493,_ZN5Catch9Benchmark18invoke_deoptimizedIRZNS0_11Chronometer7measureIRKNS0_6Detail10do_nothingEEEvOT_St17integral_constantIbLb0EEEUliE_JRiEEENSt9enable_ifIXsrSt7is_sameIvDTclfp_spfp0_EEE5valueEvE4typeES9_DpOT0_
FN:1571,1571,_ZN5Catch9Benchmark11Chronometer7measureIRKNS0_6Detail10do_nothingEEEvOT_
FN:1581,1583,_ZN5Catch9Benchmark11Chronometer7measureIRKNS0_6Detail10do_nothingEEEvOT_St17integral_constantIbLb0EE
FN:1582,1582,_ZZN5Catch9Benchmark11Chronometer7measureIRKNS0_6Detail10do_nothingEEEvOT_St17integral_constantIbLb0EEENKUliE_clEi
FN:1586,1592,_ZN5Catch9Benchmark11Chronometer7measureIZNS1_7measureIRKNS0_6Detail10do_nothingEEEvOT_St17integral_constantIbLb0EEEUliE_EEvS9_SA_IbLb1EE
FN:1623,1623,_ZN5Catch9Benchmark6Detail17BenchmarkFunction8callableC2Ev
FN:1629,1629,_ZN5Catch9Benchmark6Detail17BenchmarkFunction5modelINS1_10do_nothingEEC2EOS4_
FN:1632,1634,_ZNK5Catch9Benchmark6Detail17BenchmarkFunction5modelINS1_10do_nothingEE4callENS0_11ChronometerE
FN:1638,1640,_ZNK5Catch9Benchmark6Detail17BenchmarkFunction5modelINS1_10do_nothingEE4callENS0_11ChronometerESt17integral_constantIbLb0EE
FN:2381,2384,_ZN5Catch20ReusableStringStreamlsIA10_cEERS0_RKT_
FN:2381,2384,_ZN5Catch20ReusableStringStreamlsIA12_cEERS0_RKT_
FN:2381,2384,_ZN5Catch20ReusableStringStreamlsIA13_cEERS0_RKT_
FN:2381,2384,_ZN5Catch20ReusableStringStreamlsIA14_cEERS0_RKT_
FN:2381,2384,_ZN5Catch20ReusableStringStreamlsIA15_cEERS0_RKT_
FN:2381,2384,_ZN5Catch20ReusableStringStreamlsIA16_cEERS0_RKT_
FN:2381,2384,_ZN5Catch20ReusableStringStreamlsIA17_cEERS0_RKT_
FN:2381,2384,_ZN5Catch20ReusableStringStreamlsIA18_cEERS0_RKT_
FN:2381,2384,_ZN5Catch20ReusableStringStreamlsIA19_cEERS0_RKT_
FN:2381,2384,_ZN5Catch20ReusableStringStreamlsIA20_cEERS0_RKT_
FN:2381,2384,_ZN5Catch20ReusableStringStreamlsIA21_cEERS0_RKT_
FN:2381,2384,_ZN5Catch20ReusableStringStreamlsIA22_cEERS0_RKT_
FN:2381,2384,_ZN5Catch20ReusableStringStreamlsIA23_cEERS0_RKT_
FN:2381,2384,_ZN5Catch20ReusableStringStreamlsIA25_cEERS0_RKT_
FN:2381,2384,_ZN5Catch20ReusableStringStreamlsIA26_cEERS0_RKT_
FN:2381,2384,_ZN5Catch20ReusableStringStreamlsIA27_cEERS0_RKT_
FN:2381,2384,_ZN5Catch20ReusableStringStreamlsIA2_cEERS0_RKT_
FN:2381,2384,_ZN5Catch20ReusableStringStreamlsIA32_cEERS0_RKT_
FN:2381,2384,_ZN5Catch20ReusableStringStreamlsIA36_cEERS0_RKT_
FN:2381,2384,_ZN5Catch20ReusableStringStreamlsIA37_cEERS0_RKT_
FN:2381,2384,_ZN5Catch20ReusableStringStreamlsIA39_cEERS0_RKT_
FN:2381,2384,_ZN5Catch20ReusableStringStreamlsIA3_cEERS0_RKT_
FN:2381,2384,_ZN5Catch20ReusableStringStreamlsIA40_cEERS0_RKT_
FN:2381,2384,_ZN5Catch20ReusableStringStreamlsIA41_cEERS0_RKT_
FN:2381,2384,_ZN5Catch20ReusableStringStreamlsIA42_cEERS0_RKT_
FN:2381,2384,_ZN5Catch20ReusableStringStreamlsIA44_cEERS0_RKT_
FN:2381,2384,_ZN5Catch20ReusableStringStreamlsIA47_cEERS0_RKT_
FN:2381,2384,_ZN5Catch20ReusableStringStreamlsIA49_cEERS0_RKT_
FN:2381,2384,_ZN5Catch20ReusableStringStreamlsIA4_cEERS0_RKT_
FN:2381,2384,_ZN5Catch20ReusableStringStreamlsIA50_cEERS0_RKT_
FN:2381,2384,_ZN5Catch20ReusableStringStreamlsIA51_cEERS0_RKT_
FN:2381,2384,_ZN5Catch20ReusableStringStreamlsIA52_cEERS0_RKT_
FN:2381,2384,_ZN5Catch20ReusableStringStreamlsIA53_cEERS0_RKT_
FN:2381,2384,_ZN5Catch20ReusableStringStreamlsIA57_cEERS0_RKT_
FN:2381,2384,_ZN5Catch20ReusableStringStreamlsIA59_cEERS0_RKT_
FN:2381,2384,_ZN5Catch20ReusableStringStreamlsIA5_cEERS0_RKT_
FN:2381,2384,_ZN5Catch20ReusableStringStreamlsIA65_cEERS0_RKT_
FN:2381,2384,_ZN5Catch20ReusableStringStreamlsIA66_cEERS0_RKT_
FN:2381,2384,_ZN5Catch20ReusableStringStreamlsIA6_cEERS0_RKT_
FN:2381,2384,_ZN5Catch20ReusableStringStreamlsIA7_cEERS0_RKT_
FN:2381,2384,_ZN5Catch20ReusableStringStreamlsIA9_cEERS0_RKT_
FN:2381,2384,_ZN5Catch20ReusableStringStreamlsIFRSt8ios_baseS3_EEERS0_RKT_
FN:2381,2384,_ZN5Catch20ReusableStringStreamlsINS_12_GLOBAL__N_18DurationEEERS0_RKT_
FN:2381,2384,_ZN5Catch20ReusableStringStreamlsINS_14LazyExpressionEEERS0_RKT_
FN:2381,2384,_ZN5Catch20ReusableStringStreamlsINS_14SourceLineInfoEEERS0_RKT_
FN:2381,2384,_ZN5Catch20ReusableStringStreamlsINS_16TestCaseTracking8ITracker10CycleStateEEERS0_RKT_
FN:2381,2384,_ZN5Catch20ReusableStringStreamlsINS_7VersionEEERS0_RKT_
FN:2381,2384,_ZN5Catch20ReusableStringStreamlsINS_8TestSpec6FilterEEERS0_RKT_
FN:2381,2384,_ZN5Catch20ReusableStringStreamlsINS_8TestSpecEEERS0_RKT_
FN:2381,2384,_ZN5Catch20ReusableStringStreamlsINS_8TextFlow6ColumnEEERS0_RKT_
FN:2381,2384,_ZN5Catch20ReusableStringStreamlsINS_9StringRefEEERS0_RKT_
FN:2381,2384,_ZN5Catch20ReusableStringStreamlsINSt7__cxx1112basic_stringIcSt11char_traitsIcESaIcEEEEERS0_RKT_
FN:2381,2384,_ZN5Catch20ReusableStringStreamlsIPKcEERS0_RKT_
FN:2381,2384,_ZN5Catch20ReusableStringStreamlsISt13_SetprecisionEERS0_RKT_
FN:2381,2384,_ZN5Catch20ReusableStringStreamlsISt5_SetwEERS0_RKT_
FN:2381,2384,_ZN5Catch20ReusableStringStreamlsISt8_SetfillIcEEERS0_RKT_
FN:2381,2384,_ZN5Catch20ReusableStringStreamlsIcEERS0_RKT_
FN:2381,2384,_ZN5Catch20ReusableStringStreamlsIdEERS0_RKT_
FN:2381,2384,_ZN5Catch20ReusableStringStreamlsIeEERS0_RKT_
FN:2381,2384,_ZN5Catch20ReusableStringStreamlsIfEERS0_RKT_
FN:2381,2384,_ZN5Catch20ReusableStringStreamlsIiEERS0_RKT_
FN:2381,2384,_ZN5Catch20ReusableStringStreamlsIjEERS0_RKT_
FN:2381,2384,_ZN5Catch20ReusableStringStreamlsIlEERS0_RKT_
FN:2381,2384,_ZN5Catch20ReusableStringStreamlsImEERS0_RKT_
FN:2381,2384,_ZN5Catch20ReusableStringStreamlsIxEERS0_RKT_
FN:2381,2384,_ZN5Catch20ReusableStringStreamlsIyEERS0_RKT_
FN:2389,2389,_ZN5Catch20ReusableStringStream3getEv
FN:2553,2559,_ZN5Catch11StringMakerINS_14SourceLineInfoEvE7convertIS1_EENSt9enable_ifIX20IsStreamInsertable_vIT_EENSt7__cxx1112basic_stringIcSt11char_traitsIcESaIcEEEE4typeERKS5_
FN:2553,2559,_ZN5Catch11StringMakerIevE7convertIeEENSt9enable_ifIX20IsStreamInsertable_vIT_EENSt7__cxx1112basic_stringIcSt11char_traitsIcESaIcEEEE4typeERKS4_
FN:2580,2586,_ZN5Catch6Detail9stringifyINS_14SourceLineInfoEEENSt7__cxx1112basic_stringIcSt11char_traitsIcESaIcEEERKT_
FN:2580,2586,_ZN5Catch6Detail9stringifyINSt7__cxx1112basic_stringIcSt11char_traitsIcESaIcEEEEES7_RKT_
FN:2580,2586,_ZN5Catch6Detail9stringifyINSt7__cxx1112basic_stringIwSt11char_traitsIwESaIwEEEEENS3_IcS4_IcESaIcEEERKT_
FN:2580,2586,_ZN5Catch6Detail9stringifyIaEENSt7__cxx1112basic_stringIcSt11char_traitsIcESaIcEEERKT_
FN:2580,2586,_ZN5Catch6Detail9stringifyIcEENSt7__cxx1112basic_stringIcSt11char_traitsIcESaIcEEERKT_
FN:2580,2586,_ZN5Catch6Detail9stringifyIdEENSt7__cxx1112basic_stringIcSt11char_traitsIcESaIcEEERKT_
FN:2580,2586,_ZN5Catch6Detail9stringifyIeEENSt7__cxx1112basic_stringIcSt11char_traitsIcESaIcEEERKT_
FN:2580,2586,_ZN5Catch6Detail9stringifyIjEENSt7__cxx1112basic_stringIcSt11char_traitsIcESaIcEEERKT_
FN:2580,2586,_ZN5Catch6Detail9stringifyIxEENSt7__cxx1112basic_stringIcSt11char_traitsIcESaIcEEERKT_
FN:2580,2586,_ZN5Catch6Detail9stringifyIyEENSt7__cxx1112basic_stringIcSt11char_traitsIcESaIcEEERKT_
FN:3145,3146,_ZN5Catch6ApproxC2IevEERKT_
FN:3145,3146,_ZN5Catch6ApproxC2IivEERKT_
FN:3145,3146,_ZN5Catch6ApproxC2IyvEERKT_
FN:3250,3253,_ZN5Catch14SourceLineInfoC2EPKcm
FN:3308,3310,_ZN5Catch14LazyExpressionC2Eb
FN:3314,3316,_ZNK5Catch14LazyExpressioncvbEv
FN:3450,3454,_ZN5CatchlsERSoRKNS_8TestSpec7PatternE
FN:3486,3489,_ZN5CatchlsERSoRKNS_8TestSpec6FilterE
FN:3517,3521,_ZN5CatchlsERSoRKNS_8TestSpecE
FN:3544,3544,_ZN5Catch8OptionalINS_10ColourModeEEC2Ev
FN:3544,3544,_ZN5Catch8OptionalINS_12ReporterSpecEEC2Ev
FN:3544,3544,_ZN5Catch8OptionalINS_12_GLOBAL__N_120bazelShardingOptionsEEC2Ev
FN:3544,3544,_ZN5Catch8OptionalINS_14AssertionStatsEEC2Ev
FN:3544,3544,_ZN5Catch8OptionalINS_14BenchmarkStatsINSt6chrono8durationIdSt5ratioILl1ELl1000000000EEEEEEEC2Ev
FN:3544,3544,_ZN5Catch8OptionalINS_15AssertionResultEEC2Ev
FN:3544,3544,_ZN5Catch8OptionalINSt7__cxx1112basic_stringIcSt11char_traitsIcESaIcEEEEC2Ev
FN:3544,3544,_ZN5Catch8OptionalIjEC2Ev
FN:3545,3545,_ZN5Catch8OptionalINS_10ColourModeEED2Ev
FN:3545,3545,_ZN5Catch8OptionalINS_12ReporterSpecEED2Ev
FN:3545,3545,_ZN5Catch8OptionalINS_12_GLOBAL__N_120bazelShardingOptionsEED2Ev
FN:3545,3545,_ZN5Catch8OptionalINS_14AssertionStatsEED2Ev
FN:3545,3545,_ZN5Catch8OptionalINS_14BenchmarkStatsINSt6chrono8durationIdSt5ratioILl1ELl1000000000EEEEEEED2Ev
FN:3545,3545,_ZN5Catch8OptionalINS_15AssertionResultEED2Ev
FN:3545,3545,_ZN5Catch8OptionalINSt7__cxx1112basic_stringIcSt11char_traitsIcESaIcEEEED2Ev
FN:3545,3545,_ZN5Catch8OptionalIjED2Ev
FN:3547,3548,_ZN5Catch8OptionalINS_14AssertionStatsEEC2ERKS1_
FN:3547,3548,_ZN5Catch8OptionalINS_14BenchmarkStatsINSt6chrono8durationIdSt5ratioILl1ELl1000000000EEEEEEEC2ERKS7_
FN:3549,3550,_ZN5Catch8OptionalINS_10ColourModeEEC2EOS1_
FN:3549,3550,_ZN5Catch8OptionalINS_12ReporterSpecEEC2EOS1_
FN:3549,3550,_ZN5Catch8OptionalINS_12_GLOBAL__N_120bazelShardingOptionsEEC2EOS2_
FN:3549,3550,_ZN5Catch8OptionalINSt7__cxx1112basic_stringIcSt11char_traitsIcESaIcEEEEC2EOS6_
FN:3549,3550,_ZN5Catch8OptionalIjEC2EOj
FN:3557,3561,_ZN5Catch8OptionalINS_15AssertionResultEEaSEOS1_
FN:3557,3561,_ZN5Catch8OptionalINSt7__cxx1112basic_stringIcSt11char_traitsIcESaIcEEEEaSEOS6_
FN:3563,3564,_ZN5Catch8OptionalINS_10ColourModeEEC2ERKS2_
FN:3563,3564,_ZN5Catch8OptionalINS_14AssertionStatsEEC2ERKS2_
FN:3563,3564,_ZN5Catch8OptionalINS_14BenchmarkStatsINSt6chrono8durationIdSt5ratioILl1ELl1000000000EEEEEEEC2ERKS8_
FN:3563,3564,_ZN5Catch8OptionalINSt7__cxx1112basic_stringIcSt11char_traitsIcESaIcEEEEC2ERKS7_
FN:3565,3567,_ZN5Catch8OptionalINS_10ColourModeEEC2EOS2_
FN:3565,3567,_ZN5Catch8OptionalINSt7__cxx1112basic_stringIcSt11char_traitsIcESaIcEEEEC2EOS7_
FN:3569,3575,_ZN5Catch8OptionalINS_10ColourModeEEaSERKS2_
FN:3569,3575,_ZN5Catch8OptionalINSt7__cxx1112basic_stringIcSt11char_traitsIcESaIcEEEEaSERKS7_
FN:3576,3584,_ZN5Catch8OptionalINS_10ColourModeEEaSEOS2_
FN:3586,3589,_ZN5Catch8OptionalINS_10ColourModeEE5resetEv
FN:3586,3589,_ZN5Catch8OptionalINS_12ReporterSpecEE5resetEv
FN:3586,3589,_ZN5Catch8OptionalINS_12_GLOBAL__N_120bazelShardingOptionsEE5resetEv
FN:3586,3589,_ZN5Catch8OptionalINS_14AssertionStatsEE5resetEv
FN:3586,3589,_ZN5Catch8OptionalINS_14BenchmarkStatsINSt6chrono8durationIdSt5ratioILl1ELl1000000000EEEEEEE5resetEv
FN:3586,3589,_ZN5Catch8OptionalINS_15AssertionResultEE5resetEv
FN:3586,3589,_ZN5Catch8OptionalINSt7__cxx1112basic_stringIcSt11char_traitsIcESaIcEEEE5resetEv
FN:3586,3589,_ZN5Catch8OptionalIjE5resetEv
FN:3591,3594,_ZN5Catch8OptionalINS_10ColourModeEEdeEv
FN:3591,3594,_ZN5Catch8OptionalINS_12ReporterSpecEEdeEv
FN:3591,3594,_ZN5Catch8OptionalINSt7__cxx1112basic_stringIcSt11char_traitsIcESaIcEEEEdeEv
FN:3591,3594,_ZN5Catch8OptionalIjEdeEv
FN:3595,3598,_ZNK5Catch8OptionalINS_10ColourModeEEdeEv
FN:3595,3598,_ZNK5Catch8OptionalINS_14AssertionStatsEEdeEv
FN:3595,3598,_ZNK5Catch8OptionalINS_14BenchmarkStatsINSt6chrono8durationIdSt5ratioILl1ELl1000000000EEEEEEEdeEv
FN:3595,3598,_ZNK5Catch8OptionalINS_15AssertionResultEEdeEv
FN:3595,3598,_ZNK5Catch8OptionalINSt7__cxx1112basic_stringIcSt11char_traitsIcESaIcEEEEdeEv
FN:3603,3606,_ZNK5Catch8OptionalINS_12_GLOBAL__N_120bazelShardingOptionsEEptEv
FN:3608,3610,_ZNK5Catch8OptionalINS_10ColourModeEE7valueOrERKS1_
FN:3612,3612,_ZNK5Catch8OptionalINS_10ColourModeEE4someEv
FN:3612,3612,_ZNK5Catch8OptionalINS_12_GLOBAL__N_120bazelShardingOptionsEE4someEv
FN:3612,3612,_ZNK5Catch8OptionalINS_14AssertionStatsEE4someEv
FN:3612,3612,_ZNK5Catch8OptionalINS_14BenchmarkStatsINSt6chrono8durationIdSt5ratioILl1ELl1000000000EEEEEEE4someEv
FN:3612,3612,_ZNK5Catch8OptionalINSt7__cxx1112basic_stringIcSt11char_traitsIcESaIcEEEE4someEv
FN:3613,3613,_ZNK5Catch8OptionalINS_10ColourModeEE4noneEv
FN:3613,3613,_ZNK5Catch8OptionalINSt7__cxx1112basic_stringIcSt11char_traitsIcESaIcEEEE4noneEv
FN:3615,3615,_ZNK5Catch8OptionalINS_10ColourModeEEntEv
FN:3615,3615,_ZNK5Catch8OptionalINS_12ReporterSpecEEntEv
FN:3615,3615,_ZNK5Catch8OptionalIjEntEv
FN:3616,3618,_ZNK5Catch8OptionalINS_10ColourModeEEcvbEv
FN:3616,3618,_ZNK5Catch8OptionalINS_12_GLOBAL__N_120bazelShardingOptionsEEcvbEv
FN:3616,3618,_ZNK5Catch8OptionalINS_14AssertionStatsEEcvbEv
FN:3616,3618,_ZNK5Catch8OptionalINS_14BenchmarkStatsINSt6chrono8durationIdSt5ratioILl1ELl1000000000EEEEEEEcvbEv
FN:3616,3618,_ZNK5Catch8OptionalINSt7__cxx1112basic_stringIcSt11char_traitsIcESaIcEEEEcvbEv
FN:3620,3628,_ZN5CatcheqERKNS_8OptionalINS_10ColourModeEEES4_
FN:3620,3628,_ZN5CatcheqERKNS_8OptionalINSt7__cxx1112basic_stringIcSt11char_traitsIcESaIcEEEEES9_
FN:3711,3711,_ZNK5Catch12ReporterSpec4nameB5cxx11Ev
FN:3713,3715,_ZNK5Catch12ReporterSpec10outputFileB5cxx11Ev
FN:3717,3717,_ZNK5Catch12ReporterSpec10colourModeEv
FN:3719,3721,_ZNK5Catch12ReporterSpec13customOptionsB5cxx11Ev
FN:4015,4018,_ZN5Catch14MessageBuilderC2ENS_9StringRefERKNS_14SourceLineInfoENS_9ResultWas6OfTypeE
FN:4176,4180,_ZN5Catch11SectionInfoC2ERKNS_14SourceLineInfoENSt7__cxx1112basic_stringIcSt11char_traitsIcESaIcEEEPKc
FN:4314,4316,_ZNK5Catch5Clara6Detail11TokenStreamcvbEv
FN:4322,4325,_ZNK5Catch5Clara6Detail11TokenStreamdeEv
FN:4327,4330,_ZNK5Catch5Clara6Detail11TokenStreamptEv
FN:4345,4345,_ZN5Catch5Clara6Detail10ResultBaseC2ENS1_10ResultTypeE
FN:4349,4349,_ZN5Catch5Clara6Detail10ResultBaseC2ERKS2_
FN:4350,4350,_ZN5Catch5Clara6Detail10ResultBaseaSERKS2_
FN:4351,4351,_ZN5Catch5Clara6Detail10ResultBaseC2EOS2_
FN:4362,4365,_ZNKR5Catch5Clara6Detail15ResultValueBaseINS0_15ParseResultTypeEE5valueEv
FN:4362,4365,_ZNKR5Catch5Clara6Detail15ResultValueBaseINS1_10ParseStateEE5valueEv
FN:4366,4369,_ZNO5Catch5Clara6Detail15ResultValueBaseINS1_10ParseStateEE5valueEv
FN:4372,4372,_ZN5Catch5Clara6Detail15ResultValueBaseINS0_15ParseResultTypeEEC2ENS1_10ResultTypeE
FN:4372,4372,_ZN5Catch5Clara6Detail15ResultValueBaseINS1_10ParseStateEEC2ENS1_10ResultTypeE
FN:4374,4378,_ZN5Catch5Clara6Detail15ResultValueBaseINS0_15ParseResultTypeEEC2ERKS4_
FN:4379,4383,_ZN5Catch5Clara6Detail15ResultValueBaseINS1_10ParseStateEEC2EOS4_
FN:4390,4393,_ZN5Catch5Clara6Detail15ResultValueBaseINS0_15ParseResultTypeEEC2ENS1_10ResultTypeEOS3_
FN:4390,4393,_ZN5Catch5Clara6Detail15ResultValueBaseINS1_10ParseStateEEC2ENS1_10ResultTypeEOS3_
FN:4403,4409,_ZN5Catch5Clara6Detail15ResultValueBaseINS1_10ParseStateEEaSEOS4_
FN:4412,4415,_ZN5Catch5Clara6Detail15ResultValueBaseINS0_15ParseResultTypeEED0Ev
FN:4412,4415,_ZN5Catch5Clara6Detail15ResultValueBaseINS0_15ParseResultTypeEED2Ev
FN:4412,4415,_ZN5Catch5Clara6Detail15ResultValueBaseINS1_10ParseStateEED0Ev
FN:4412,4415,_ZN5Catch5Clara6Detail15ResultValueBaseINS1_10ParseStateEED2Ev
FN:4431,4435,_ZN5Catch5Clara6Detail11BasicResultINS1_10ParseStateEEC2INS0_15ParseResultTypeEEERKNS2_IT_EE
FN:4431,4435,_ZN5Catch5Clara6Detail11BasicResultINS1_10ParseStateEEC2IvEERKNS2_IT_EE
FN:4438,4440,_ZN5Catch5Clara6Detail11BasicResultINS0_15ParseResultTypeEE2okIS3_EES4_OT_
FN:4438,4440,_ZN5Catch5Clara6Detail11BasicResultINS1_10ParseStateEE2okIS3_EES4_OT_
FN:4441,4441,_ZN5Catch5Clara6Detail11BasicResultIvE2okEv
FN:4442,4445,_ZN5Catch5Clara6Detail11BasicResultIvE10logicErrorEONSt7__cxx1112basic_stringIcSt11char_traitsIcESaIcEEE
FN:4446,4449,_ZN5Catch5Clara6Detail11BasicResultINS0_15ParseResultTypeEE12runtimeErrorEONSt7__cxx1112basic_stringIcSt11char_traitsIcESaIcEEE
FN:4446,4449,_ZN5Catch5Clara6Detail11BasicResultINS1_10ParseStateEE12runtimeErrorEONSt7__cxx1112basic_stringIcSt11char_traitsIcESaIcEEE
FN:4451,4453,_ZNK5Catch5Clara6Detail11BasicResultINS0_15ParseResultTypeEEcvbEv
FN:4451,4453,_ZNK5Catch5Clara6Detail11BasicResultINS1_10ParseStateEEcvbEv
FN:4451,4453,_ZNK5Catch5Clara6Detail11BasicResultIvEcvbEv
FN:4454,4454,_ZNK5Catch5Clara6Detail11BasicResultINS0_15ParseResultTypeEE4typeEv
FN:4454,4454,_ZNK5Catch5Clara6Detail11BasicResultINS1_10ParseStateEE4typeEv
FN:4454,4454,_ZNK5Catch5Clara6Detail11BasicResultIvE4typeEv
FN:4455,4457,_ZNK5Catch5Clara6Detail11BasicResultINS0_15ParseResultTypeEE12errorMessageB5cxx11Ev
FN:4455,4457,_ZNK5Catch5Clara6Detail11BasicResultINS1_10ParseStateEE12errorMessageB5cxx11Ev
FN:4455,4457,_ZNK5Catch5Clara6Detail11BasicResultIvE12errorMessageB5cxx11Ev
FN:4460,4468,_ZNK5Catch5Clara6Detail11BasicResultINS0_15ParseResultTypeEE9enforceOkEv
FN:4460,4468,_ZNK5Catch5Clara6Detail11BasicResultINS1_10ParseStateEE9enforceOkEv
FN:4460,4468,_ZNK5Catch5Clara6Detail11BasicResultIvE9enforceOkEv
FN:4473,4477,_ZN5Catch5Clara6Detail11BasicResultINS0_15ParseResultTypeEEC2ENS1_10ResultTypeEONSt7__cxx1112basic_stringIcSt11char_traitsIcESaIcEEE
FN:4473,4477,_ZN5Catch5Clara6Detail11BasicResultINS1_10ParseStateEEC2ENS1_10ResultTypeEONSt7__cxx1112basic_stringIcSt11char_traitsIcESaIcEEE
FN:4473,4477,_ZN5Catch5Clara6Detail11BasicResultIvEC2ENS1_10ResultTypeEONSt7__cxx1112basic_stringIcSt11char_traitsIcESaIcEEE
FN:4488,4488,_ZNK5Catch5Clara6Detail10ParseState4typeEv
FN:4489,4491,_ZNKR5Catch5Clara6Detail10ParseState15remainingTokensEv
FN:4492,4494,_ZNO5Catch5Clara6Detail10ParseState15remainingTokensEv
FN:4511,4521,_ZN5Catch5Clara6Detail11convertIntoIdEENS1_11BasicResultINS0_15ParseResultTypeEEERKNSt7__cxx1112basic_stringIcSt11char_traitsIcESaIcEEERT_
FN:4511,4521,_ZN5Catch5Clara6Detail11convertIntoIiEENS1_11BasicResultINS0_15ParseResultTypeEEERKNSt7__cxx1112basic_stringIcSt11char_traitsIcESaIcEEERT_
FN:4511,4521,_ZN5Catch5Clara6Detail11convertIntoIjEENS1_11BasicResultINS0_15ParseResultTypeEEERKNSt7__cxx1112basic_stringIcSt11char_traitsIcESaIcEEERT_
FN:4511,4521,_ZN5Catch5Clara6Detail11convertIntoIlEENS1_11BasicResultINS0_15ParseResultTypeEEERKNSt7__cxx1112basic_stringIcSt11char_traitsIcESaIcEEERT_
FN:4540,4540,_ZN5Catch5Clara6Detail8BoundRefD0Ev
FN:4540,4540,_ZN5Catch5Clara6Detail8BoundRefD2Ev
FN:4556,4556,_ZN5Catch5Clara6Detail13BoundValueRefINSt7__cxx1112basic_stringIcSt11char_traitsIcESaIcEEEEC2ERS8_
FN:4556,4556,_ZN5Catch5Clara6Detail13BoundValueRefIdEC2ERd
FN:4556,4556,_ZN5Catch5Clara6Detail13BoundValueRefIjEC2ERj
FN:4556,4556,_ZN5Catch5Clara6Detail13BoundValueRefIlEC2ERl
FN:4558,4560,_ZN5Catch5Clara6Detail13BoundValueRefINSt7__cxx1112basic_stringIcSt11char_traitsIcESaIcEEEE8setValueERKS8_
FN:4558,4560,_ZN5Catch5Clara6Detail13BoundValueRefIdE8setValueERKNSt7__cxx1112basic_stringIcSt11char_traitsIcESaIcEEE
FN:4558,4560,_ZN5Catch5Clara6Detail13BoundValueRefIjE8setValueERKNSt7__cxx1112basic_stringIcSt11char_traitsIcESaIcEEE
FN:4558,4560,_ZN5Catch5Clara6Detail13BoundValueRefIlE8setValueERKNSt7__cxx1112basic_stringIcSt11char_traitsIcESaIcEEE
FN:4567,4567,_ZN5Catch5Clara6Detail13BoundValueRefISt6vectorINSt7__cxx1112basic_stringIcSt11char_traitsIcESaIcEEESaIS9_EEEC2ERSB_
FN:4569,4569,_ZNK5Catch5Clara6Detail13BoundValueRefISt6vectorINSt7__cxx1112basic_stringIcSt11char_traitsIcESaIcEEESaIS9_EEE11isContainerEv
FN:4571,4578,_ZN5Catch5Clara6Detail13BoundValueRefISt6vectorINSt7__cxx1112basic_stringIcSt11char_traitsIcESaIcEEESaIS9_EEE8setValueERKS9_
FN:4584,4584,_ZN5Catch5Clara6Detail12BoundFlagRefC2ERb
FN:4595,4598,_ZN5Catch5Clara6Detail13LambdaInvokerINS1_11BasicResultINS0_15ParseResultTypeEEEE6invokeIZNS0_4HelpC4ERbEUlbE_bEES5_RKT_RKT0_
FN:4595,4598,_ZN5Catch5Clara6Detail13LambdaInvokerINS1_11BasicResultINS0_15ParseResultTypeEEEE6invokeIZNS_21makeCommandLineParserERNS_10ConfigDataEEUlRKNSt7__cxx1112basic_stringIcSt11char_traitsIcESaIcEEEE0_SF_EES5_RKT_RKT0_
FN:4595,4598,_ZN5Catch5Clara6Detail13LambdaInvokerINS1_11BasicResultINS0_15ParseResultTypeEEEE6invokeIZNS_21makeCommandLineParserERNS_10ConfigDataEEUlRKNSt7__cxx1112basic_stringIcSt11char_traitsIcESaIcEEEE1_SF_EES5_RKT_RKT0_
FN:4595,4598,_ZN5Catch5Clara6Detail13LambdaInvokerINS1_11BasicResultINS0_15ParseResultTypeEEEE6invokeIZNS_21makeCommandLineParserERNS_10ConfigDataEEUlRKNSt7__cxx1112basic_stringIcSt11char_traitsIcESaIcEEEE2_SF_EES5_RKT_RKT0_
FN:4595,4598,_ZN5Catch5Clara6Detail13LambdaInvokerINS1_11BasicResultINS0_15ParseResultTypeEEEE6invokeIZNS_21makeCommandLineParserERNS_10ConfigDataEEUlRKNSt7__cxx1112basic_stringIcSt11char_traitsIcESaIcEEEE3_SF_EES5_RKT_RKT0_
FN:4595,4598,_ZN5Catch5Clara6Detail13LambdaInvokerINS1_11BasicResultINS0_15ParseResultTypeEEEE6invokeIZNS_21makeCommandLineParserERNS_10ConfigDataEEUlRKNSt7__cxx1112basic_stringIcSt11char_traitsIcESaIcEEEE4_SF_EES5_RKT_RKT0_
FN:4595,4598,_ZN5Catch5Clara6Detail13LambdaInvokerINS1_11BasicResultINS0_15ParseResultTypeEEEE6invokeIZNS_21makeCommandLineParserERNS_10ConfigDataEEUlRKNSt7__cxx1112basic_stringIcSt11char_traitsIcESaIcEEEE5_SF_EES5_RKT_RKT0_
FN:4595,4598,_ZN5Catch5Clara6Detail13LambdaInvokerINS1_11BasicResultINS0_15ParseResultTypeEEEE6invokeIZNS_21makeCommandLineParserERNS_10ConfigDataEEUlRKNSt7__cxx1112basic_stringIcSt11char_traitsIcESaIcEEEE6_SF_EES5_RKT_RKT0_
FN:4595,4598,_ZN5Catch5Clara6Detail13LambdaInvokerINS1_11BasicResultINS0_15ParseResultTypeEEEE6invokeIZNS_21makeCommandLineParserERNS_10ConfigDataEEUlRKNSt7__cxx1112basic_stringIcSt11char_traitsIcESaIcEEEE7_SF_EES5_RKT_RKT0_
FN:4595,4598,_ZN5Catch5Clara6Detail13LambdaInvokerINS1_11BasicResultINS0_15ParseResultTypeEEEE6invokeIZNS_21makeCommandLineParserERNS_10ConfigDataEEUlRKNSt7__cxx1112basic_stringIcSt11char_traitsIcESaIcEEEE8_SF_EES5_RKT_RKT0_
FN:4595,4598,_ZN5Catch5Clara6Detail13LambdaInvokerINS1_11BasicResultINS0_15ParseResultTypeEEEE6invokeIZNS_21makeCommandLineParserERNS_10ConfigDataEEUlRKNSt7__cxx1112basic_stringIcSt11char_traitsIcESaIcEEEE_SF_EES5_RKT_RKT0_
FN:4603,4607,_ZN5Catch5Clara6Detail13LambdaInvokerIvE6invokeIZNS_21makeCommandLineParserERNS_10ConfigDataEEUlbE0_bEENS1_11BasicResultINS0_15ParseResultTypeEEERKT_RKT0_
FN:4603,4607,_ZN5Catch5Clara6Detail13LambdaInvokerIvE6invokeIZNS_21makeCommandLineParserERNS_10ConfigDataEEUlbE_bEENS1_11BasicResultINS0_15ParseResultTypeEEERKT_RKT0_
FN:4603,4607,_ZN5Catch5Clara6Detail13LambdaInvokerIvE6invokeIZNS_21makeCommandLineParserERNS_10ConfigDataEEUliE_iEENS1_11BasicResultINS0_15ParseResultTypeEEERKT_RKT0_
FN:4611,4618,_ZN5Catch5Clara6Detail12invokeLambdaINSt7__cxx1112basic_stringIcSt11char_traitsIcESaIcEEEZNS_21makeCommandLineParserERNS_10ConfigDataEEUlRKS8_E0_EENS1_11BasicResultINS0_15ParseResultTypeEEERKT0_SC_
FN:4611,4618,_ZN5Catch5Clara6Detail12invokeLambdaINSt7__cxx1112basic_stringIcSt11char_traitsIcESaIcEEEZNS_21makeCommandLineParserERNS_10ConfigDataEEUlRKS8_E1_EENS1_11BasicResultINS0_15ParseResultTypeEEERKT0_SC_
FN:4611,4618,_ZN5Catch5Clara6Detail12invokeLambdaINSt7__cxx1112basic_stringIcSt11char_traitsIcESaIcEEEZNS_21makeCommandLineParserERNS_10ConfigDataEEUlRKS8_E2_EENS1_11BasicResultINS0_15ParseResultTypeEEERKT0_SC_
FN:4611,4618,_ZN5Catch5Clara6Detail12invokeLambdaINSt7__cxx1112basic_stringIcSt11char_traitsIcESaIcEEEZNS_21makeCommandLineParserERNS_10ConfigDataEEUlRKS8_E3_EENS1_11BasicResultINS0_15ParseResultTypeEEERKT0_SC_
FN:4611,4618,_ZN5Catch5Clara6Detail12invokeLambdaINSt7__cxx1112basic_stringIcSt11char_traitsIcESaIcEEEZNS_21makeCommandLineParserERNS_10ConfigDataEEUlRKS8_E4_EENS1_11BasicResultINS0_15ParseResultTypeEEERKT0_SC_
FN:4611,4618,_ZN5Catch5Clara6Detail12invokeLambdaINSt7__cxx1112basic_stringIcSt11char_traitsIcESaIcEEEZNS_21makeCommandLineParserERNS_10ConfigDataEEUlRKS8_E5_EENS1_11BasicResultINS0_15ParseResultTypeEEERKT0_SC_
FN:4611,4618,_ZN5Catch5Clara6Detail12invokeLambdaINSt7__cxx1112basic_stringIcSt11char_traitsIcESaIcEEEZNS_21makeCommandLineParserERNS_10ConfigDataEEUlRKS8_E6_EENS1_11BasicResultINS0_15ParseResultTypeEEERKT0_SC_
FN:4611,4618,_ZN5Catch5Clara6Detail12invokeLambdaINSt7__cxx1112basic_stringIcSt11char_traitsIcESaIcEEEZNS_21makeCommandLineParserERNS_10ConfigDataEEUlRKS8_E7_EENS1_11BasicResultINS0_15ParseResultTypeEEERKT0_SC_
FN:4611,4618,_ZN5Catch5Clara6Detail12invokeLambdaINSt7__cxx1112basic_stringIcSt11char_traitsIcESaIcEEEZNS_21makeCommandLineParserERNS_10ConfigDataEEUlRKS8_E8_EENS1_11BasicResultINS0_15ParseResultTypeEEERKT0_SC_
FN:4611,4618,_ZN5Catch5Clara6Detail12invokeLambdaINSt7__cxx1112basic_stringIcSt11char_traitsIcESaIcEEEZNS_21makeCommandLineParserERNS_10ConfigDataEEUlRKS8_E_EENS1_11BasicResultINS0_15ParseResultTypeEEERKT0_SC_
FN:4611,4618,_ZN5Catch5Clara6Detail12invokeLambdaIbZNS_21makeCommandLineParserERNS_10ConfigDataEEUlbE0_EENS1_11BasicResultINS0_15ParseResultTypeEEERKT0_RKNSt7__cxx1112basic_stringIcSt11char_traitsIcESaIcEEE
FN:4611,4618,_ZN5Catch5Clara6Detail12invokeLambdaIiZNS_21makeCommandLineParserERNS_10ConfigDataEEUliE_EENS1_11BasicResultINS0_15ParseResultTypeEEERKT0_RKNSt7__cxx1112basic_stringIcSt11char_traitsIcESaIcEEE
FN:4626,4626,_ZN5Catch5Clara6Detail11BoundLambdaIZNS_21makeCommandLineParserERNS_10ConfigDataEEUlRKNSt7__cxx1112basic_stringIcSt11char_traitsIcESaIcEEEE0_EC2ERKSD_
FN:4626,4626,_ZN5Catch5Clara6Detail11BoundLambdaIZNS_21makeCommandLineParserERNS_10ConfigDataEEUlRKNSt7__cxx1112basic_stringIcSt11char_traitsIcESaIcEEEE1_EC2ERKSD_
FN:4626,4626,_ZN5Catch5Clara6Detail11BoundLambdaIZNS_21makeCommandLineParserERNS_10ConfigDataEEUlRKNSt7__cxx1112basic_stringIcSt11char_traitsIcESaIcEEEE2_EC2ERKSD_
FN:4626,4626,_ZN5Catch5Clara6Detail11BoundLambdaIZNS_21makeCommandLineParserERNS_10ConfigDataEEUlRKNSt7__cxx1112basic_stringIcSt11char_traitsIcESaIcEEEE3_EC2ERKSD_
FN:4626,4626,_ZN5Catch5Clara6Detail11BoundLambdaIZNS_21makeCommandLineParserERNS_10ConfigDataEEUlRKNSt7__cxx1112basic_stringIcSt11char_traitsIcESaIcEEEE4_EC2ERKSD_
FN:4626,4626,_ZN5Catch5Clara6Detail11BoundLambdaIZNS_21makeCommandLineParserERNS_10ConfigDataEEUlRKNSt7__cxx1112basic_stringIcSt11char_traitsIcESaIcEEEE5_EC2ERKSD_
FN:4626,4626,_ZN5Catch5Clara6Detail11BoundLambdaIZNS_21makeCommandLineParserERNS_10ConfigDataEEUlRKNSt7__cxx1112basic_stringIcSt11char_traitsIcESaIcEEEE6_EC2ERKSD_
FN:4626,4626,_ZN5Catch5Clara6Detail11BoundLambdaIZNS_21makeCommandLineParserERNS_10ConfigDataEEUlRKNSt7__cxx1112basic_stringIcSt11char_traitsIcESaIcEEEE7_EC2ERKSD_
FN:4626,4626,_ZN5Catch5Clara6Detail11BoundLambdaIZNS_21makeCommandLineParserERNS_10ConfigDataEEUlRKNSt7__cxx1112basic_stringIcSt11char_traitsIcESaIcEEEE8_EC2ERKSD_
FN:4626,4626,_ZN5Catch5Clara6Detail11BoundLambdaIZNS_21makeCommandLineParserERNS_10ConfigDataEEUlRKNSt7__cxx1112basic_stringIcSt11char_traitsIcESaIcEEEE_EC2ERKSD_
FN:4626,4626,_ZN5Catch5Clara6Detail11BoundLambdaIZNS_21makeCommandLineParserERNS_10ConfigDataEEUlbE0_EC2ERKS5_
FN:4626,4626,_ZN5Catch5Clara6Detail11BoundLambdaIZNS_21makeCommandLineParserERNS_10ConfigDataEEUliE_EC2ERKS5_
FN:4628,4632,_ZN5Catch5Clara6Detail11BoundLambdaIZNS_21makeCommandLineParserERNS_10ConfigDataEEUlRKNSt7__cxx1112basic_stringIcSt11char_traitsIcESaIcEEEE0_E8setValueESC_
FN:4628,4632,_ZN5Catch5Clara6Detail11BoundLambdaIZNS_21makeCommandLineParserERNS_10ConfigDataEEUlRKNSt7__cxx1112basic_stringIcSt11char_traitsIcESaIcEEEE1_E8setValueESC_
FN:4628,4632,_ZN5Catch5Clara6Detail11BoundLambdaIZNS_21makeCommandLineParserERNS_10ConfigDataEEUlRKNSt7__cxx1112basic_stringIcSt11char_traitsIcESaIcEEEE2_E8setValueESC_
FN:4628,4632,_ZN5Catch5Clara6Detail11BoundLambdaIZNS_21makeCommandLineParserERNS_10ConfigDataEEUlRKNSt7__cxx1112basic_stringIcSt11char_traitsIcESaIcEEEE3_E8setValueESC_
FN:4628,4632,_ZN5Catch5Clara6Detail11BoundLambdaIZNS_21makeCommandLineParserERNS_10ConfigDataEEUlRKNSt7__cxx1112basic_stringIcSt11char_traitsIcESaIcEEEE4_E8setValueESC_
FN:4628,4632,_ZN5Catch5Clara6Detail11BoundLambdaIZNS_21makeCommandLineParserERNS_10ConfigDataEEUlRKNSt7__cxx1112basic_stringIcSt11char_traitsIcESaIcEEEE5_E8setValueESC_
FN:4628,4632,_ZN5Catch5Clara6Detail11BoundLambdaIZNS_21makeCommandLineParserERNS_10ConfigDataEEUlRKNSt7__cxx1112basic_stringIcSt11char_traitsIcESaIcEEEE6_E8setValueESC_
FN:4628,4632,_ZN5Catch5Clara6Detail11BoundLambdaIZNS_21makeCommandLineParserERNS_10ConfigDataEEUlRKNSt7__cxx1112basic_stringIcSt11char_traitsIcESaIcEEEE7_E8setValueESC_
FN:4628,4632,_ZN5Catch5Clara6Detail11BoundLambdaIZNS_21makeCommandLineParserERNS_10ConfigDataEEUlRKNSt7__cxx1112basic_stringIcSt11char_traitsIcESaIcEEEE8_E8setValueESC_
FN:4628,4632,_ZN5Catch5Clara6Detail11BoundLambdaIZNS_21makeCommandLineParserERNS_10ConfigDataEEUlRKNSt7__cxx1112basic_stringIcSt11char_traitsIcESaIcEEEE_E8setValueESC_
FN:4628,4632,_ZN5Catch5Clara6Detail11BoundLambdaIZNS_21makeCommandLineParserERNS_10ConfigDataEEUlbE0_E8setValueERKNSt7__cxx1112basic_stringIcSt11char_traitsIcESaIcEEE
FN:4628,4632,_ZN5Catch5Clara6Detail11BoundLambdaIZNS_21makeCommandLineParserERNS_10ConfigDataEEUliE_E8setValueERKNSt7__cxx1112basic_stringIcSt11char_traitsIcESaIcEEE
FN:4636,4636,_ZN5Catch5Clara6Detail15BoundManyLambdaIZNS_21makeCommandLineParserERNS_10ConfigDataEEUlRKNSt7__cxx1112basic_stringIcSt11char_traitsIcESaIcEEEE6_EC2ERKSD_
FN:4636,4636,_ZN5Catch5Clara6Detail15BoundManyLambdaIZNS_21makeCommandLineParserERNS_10ConfigDataEEUlRKNSt7__cxx1112basic_stringIcSt11char_traitsIcESaIcEEEE_EC2ERKSD_
FN:4637,4637,_ZNK5Catch5Clara6Detail15BoundManyLambdaIZNS_21makeCommandLineParserERNS_10ConfigDataEEUlRKNSt7__cxx1112basic_stringIcSt11char_traitsIcESaIcEEEE6_E11isContainerEv
FN:4637,4637,_ZNK5Catch5Clara6Detail15BoundManyLambdaIZNS_21makeCommandLineParserERNS_10ConfigDataEEUlRKNSt7__cxx1112basic_stringIcSt11char_traitsIcESaIcEEEE_E11isContainerEv
FN:4651,4652,_ZN5Catch5Clara6Detail15BoundFlagLambdaIZNS0_4HelpC4ERbEUlbE_EC2ERKS5_
FN:4651,4652,_ZN5Catch5Clara6Detail15BoundFlagLambdaIZNS_21makeCommandLineParserERNS_10ConfigDataEEUlbE_EC2ERKS5_
FN:4654,4657,_ZN5Catch5Clara6Detail15BoundFlagLambdaIZNS0_4HelpC4ERbEUlbE_E7setFlagEb
FN:4654,4657,_ZN5Catch5Clara6Detail15BoundFlagLambdaIZNS_21makeCommandLineParserERNS_10ConfigDataEEUlbE_E7setFlagEb
FN:4664,4664,_ZN5Catch5Clara6Detail10ParserBaseD0Ev
FN:4664,4664,_ZN5Catch5Clara6Detail10ParserBaseD2Ev
FN:4665,4665,_ZNK5Catch5Clara6Detail10ParserBase8validateEv
FN:4690,4691,_ZN5Catch5Clara6Detail13ParserRefImplINS0_3OptEEC2ERKSt10shared_ptrINS1_8BoundRefEE
FN:4695,4699,_ZN5Catch5Clara6Detail13ParserRefImplINS0_3OptEEC2IZNS_21makeCommandLineParserERNS_10ConfigDataEEUlRKNSt7__cxx1112basic_stringIcSt11char_traitsIcESaIcEEEE6_EENS0_13accept_many_tERKT_NS_9StringRefE
FN:4695,4699,_ZN5Catch5Clara6Detail13ParserRefImplINS0_3OptEEC2IZNS_21makeCommandLineParserERNS_10ConfigDataEEUlRKNSt7__cxx1112basic_stringIcSt11char_traitsIcESaIcEEEE_EENS0_13accept_many_tERKT_NS_9StringRefE
FN:4704,4706,_ZN5Catch5Clara6Detail13ParserRefImplINS0_3ArgEEC2ISt6vectorINSt7__cxx1112basic_stringIcSt11char_traitsIcESaIcEEESaISC_EEvEERT_NS_9StringRefE
FN:4704,4706,_ZN5Catch5Clara6Detail13ParserRefImplINS0_3OptEEC2INSt7__cxx1112basic_stringIcSt11char_traitsIcESaIcEEEvEERT_NS_9StringRefE
FN:4704,4706,_ZN5Catch5Clara6Detail13ParserRefImplINS0_3OptEEC2ISt6vectorINSt7__cxx1112basic_stringIcSt11char_traitsIcESaIcEEESaISC_EEvEERT_NS_9StringRefE
FN:4704,4706,_ZN5Catch5Clara6Detail13ParserRefImplINS0_3OptEEC2IdvEERT_NS_9StringRefE
FN:4704,4706,_ZN5Catch5Clara6Detail13ParserRefImplINS0_3OptEEC2IjvEERT_NS_9StringRefE
FN:4704,4706,_ZN5Catch5Clara6Detail13ParserRefImplINS0_3OptEEC2IlvEERT_NS_9StringRefE
FN:4711,4713,_ZN5Catch5Clara6Detail13ParserRefImplINS0_3OptEEC2IZNS_21makeCommandLineParserERNS_10ConfigDataEEUlRKNSt7__cxx1112basic_stringIcSt11char_traitsIcESaIcEEEE0_vEERKT_NS_9StringRefE
FN:4711,4713,_ZN5Catch5Clara6Detail13ParserRefImplINS0_3OptEEC2IZNS_21makeCommandLineParserERNS_10ConfigDataEEUlRKNSt7__cxx1112basic_stringIcSt11char_traitsIcESaIcEEEE1_vEERKT_NS_9StringRefE
FN:4711,4713,_ZN5Catch5Clara6Detail13ParserRefImplINS0_3OptEEC2IZNS_21makeCommandLineParserERNS_10ConfigDataEEUlRKNSt7__cxx1112basic_stringIcSt11char_traitsIcESaIcEEEE2_vEERKT_NS_9StringRefE
FN:4711,4713,_ZN5Catch5Clara6Detail13ParserRefImplINS0_3OptEEC2IZNS_21makeCommandLineParserERNS_10ConfigDataEEUlRKNSt7__cxx1112basic_stringIcSt11char_traitsIcESaIcEEEE3_vEERKT_NS_9StringRefE
FN:4711,4713,_ZN5Catch5Clara6Detail13ParserRefImplINS0_3OptEEC2IZNS_21makeCommandLineParserERNS_10ConfigDataEEUlRKNSt7__cxx1112basic_stringIcSt11char_traitsIcESaIcEEEE4_vEERKT_NS_9StringRefE
FN:4711,4713,_ZN5Catch5Clara6Detail13ParserRefImplINS0_3OptEEC2IZNS_21makeCommandLineParserERNS_10ConfigDataEEUlRKNSt7__cxx1112basic_stringIcSt11char_traitsIcESaIcEEEE5_vEERKT_NS_9StringRefE
FN:4711,4713,_ZN5Catch5Clara6Detail13ParserRefImplINS0_3OptEEC2IZNS_21makeCommandLineParserERNS_10ConfigDataEEUlRKNSt7__cxx1112basic_stringIcSt11char_traitsIcESaIcEEEE7_vEERKT_NS_9StringRefE
FN:4711,4713,_ZN5Catch5Clara6Detail13ParserRefImplINS0_3OptEEC2IZNS_21makeCommandLineParserERNS_10ConfigDataEEUlRKNSt7__cxx1112basic_stringIcSt11char_traitsIcESaIcEEEE8_vEERKT_NS_9StringRefE
FN:4711,4713,_ZN5Catch5Clara6Detail13ParserRefImplINS0_3OptEEC2IZNS_21makeCommandLineParserERNS_10ConfigDataEEUlbE0_vEERKT_NS_9StringRefE
FN:4711,4713,_ZN5Catch5Clara6Detail13ParserRefImplINS0_3OptEEC2IZNS_21makeCommandLineParserERNS_10ConfigDataEEUliE_vEERKT_NS_9StringRefE
FN:4715,4718,_ZNR5Catch5Clara6Detail13ParserRefImplINS0_3OptEEclENS_9StringRefE
FN:4719,4722,_ZNO5Catch5Clara6Detail13ParserRefImplINS0_3ArgEEclENS_9StringRefE
FN:4719,4722,_ZNO5Catch5Clara6Detail13ParserRefImplINS0_3OptEEclENS_9StringRefE
FN:4724,4727,_ZN5Catch5Clara6Detail13ParserRefImplINS0_3OptEE8optionalEv
FN:4734,4736,_ZNK5Catch5Clara6Detail13ParserRefImplINS0_3ArgEE10isOptionalEv
FN:4738,4743,_ZNK5Catch5Clara6Detail13ParserRefImplINS0_3ArgEE11cardinalityEv
FN:4738,4743,_ZNK5Catch5Clara6Detail13ParserRefImplINS0_3OptEE11cardinalityEv
FN:4745,4745,_ZNK5Catch5Clara6Detail13ParserRefImplINS0_3ArgEE4hintEv
FN:4769,4771,_ZN5Catch5Clara3OptC2IZNS0_4HelpC4ERbEUlbE_EERKT_
FN:4769,4771,_ZN5Catch5Clara3OptC2IZNS_21makeCommandLineParserERNS_10ConfigDataEEUlbE_EERKT_
FN:4778,4779,_ZN5Catch5Clara3OptC2IZNS_21makeCommandLineParserERNS_10ConfigDataEEUlRKNSt7__cxx1112basic_stringIcSt11char_traitsIcESaIcEEEE0_vEERKT_NS_9StringRefE
FN:4778,4779,_ZN5Catch5Clara3OptC2IZNS_21makeCommandLineParserERNS_10ConfigDataEEUlRKNSt7__cxx1112basic_stringIcSt11char_traitsIcESaIcEEEE1_vEERKT_NS_9StringRefE
FN:4778,4779,_ZN5Catch5Clara3OptC2IZNS_21makeCommandLineParserERNS_10ConfigDataEEUlRKNSt7__cxx1112basic_stringIcSt11char_traitsIcESaIcEEEE2_vEERKT_NS_9StringRefE
FN:4778,4779,_ZN5Catch5Clara3OptC2IZNS_21makeCommandLineParserERNS_10ConfigDataEEUlRKNSt7__cxx1112basic_stringIcSt11char_traitsIcESaIcEEEE3_vEERKT_NS_9StringRefE
FN:4778,4779,_ZN5Catch5Clara3OptC2IZNS_21makeCommandLineParserERNS_10ConfigDataEEUlRKNSt7__cxx1112basic_stringIcSt11char_traitsIcESaIcEEEE4_vEERKT_NS_9StringRefE
FN:4778,4779,_ZN5Catch5Clara3OptC2IZNS_21makeCommandLineParserERNS_10ConfigDataEEUlRKNSt7__cxx1112basic_stringIcSt11char_traitsIcESaIcEEEE5_vEERKT_NS_9StringRefE
FN:4778,4779,_ZN5Catch5Clara3OptC2IZNS_21makeCommandLineParserERNS_10ConfigDataEEUlRKNSt7__cxx1112basic_stringIcSt11char_traitsIcESaIcEEEE7_vEERKT_NS_9StringRefE
FN:4778,4779,_ZN5Catch5Clara3OptC2IZNS_21makeCommandLineParserERNS_10ConfigDataEEUlRKNSt7__cxx1112basic_stringIcSt11char_traitsIcESaIcEEEE8_vEERKT_NS_9StringRefE
FN:4778,4779,_ZN5Catch5Clara3OptC2IZNS_21makeCommandLineParserERNS_10ConfigDataEEUlbE0_vEERKT_NS_9StringRefE
FN:4778,4779,_ZN5Catch5Clara3OptC2IZNS_21makeCommandLineParserERNS_10ConfigDataEEUliE_vEERKT_NS_9StringRefE
FN:4782,4783,_ZN5Catch5Clara3OptC2IZNS_21makeCommandLineParserERNS_10ConfigDataEEUlRKNSt7__cxx1112basic_stringIcSt11char_traitsIcESaIcEEEE6_EENS0_13accept_many_tERKT_NS_9StringRefE
FN:4782,4783,_ZN5Catch5Clara3OptC2IZNS_21makeCommandLineParserERNS_10ConfigDataEEUlRKNSt7__cxx1112basic_stringIcSt11char_traitsIcESaIcEEEE_EENS0_13accept_many_tERKT_NS_9StringRefE
FN:4788,4789,_ZN5Catch5Clara3OptC2INSt7__cxx1112basic_stringIcSt11char_traitsIcESaIcEEEvEERT_NS_9StringRefE
FN:4788,4789,_ZN5Catch5Clara3OptC2ISt6vectorINSt7__cxx1112basic_stringIcSt11char_traitsIcESaIcEEESaIS9_EEvEERT_NS_9StringRefE
FN:4788,4789,_ZN5Catch5Clara3OptC2IdvEERT_NS_9StringRefE
FN:4788,4789,_ZN5Catch5Clara3OptC2IjvEERT_NS_9StringRefE
FN:4788,4789,_ZN5Catch5Clara3OptC2IlvEERT_NS_9StringRefE
FN:4791,4794,_ZNR5Catch5Clara3OptixENS_9StringRefE
FN:4795,4798,_ZNO5Catch5Clara3OptixENS_9StringRefE
FN:4833,4833,_ZNK5Catch5Clara7ExeName4nameB5cxx11Ev
FN:4846,4849,_ZN5Catch5Clara6ParseroRERKNS0_7ExeNameE
FN:4851,4854,_ZN5Catch5Clara6ParseroRERKNS0_3ArgE
FN:4856,4859,_ZN5Catch5ClaraoRERNS0_6ParserERKNS0_3OptE
FN:4860,4863,_ZN5Catch5ClaraoRERNS0_6ParserEONS0_3OptE
FN:4875,4878,_ZN5Catch5ClaraorINS0_3ArgEEENS0_6ParserEOS3_OT_
FN:4875,4878,_ZN5Catch5ClaraorINS0_3OptEEENS0_6ParserEOS3_OT_
FN:4875,4878,_ZN5Catch5ClaraorIRKNS0_4HelpEEENS0_6ParserEOS5_OT_
FN:4875,4878,_ZN5Catch5ClaraorIRKNS0_7ExeNameEEENS0_6ParserEOS5_OT_
FN:4884,4888,_ZN5Catch5ClaralsERSoRKNS0_6ParserE
FN:4911,4911,_ZNK5Catch5Clara4Args7exeNameEv
FN:4927,4929,_ZNK5Catch5Clara6Detail20ComposableParserImplINS0_7ExeNameEEorINS0_4HelpEEENS0_6ParserERKT_
FN:4982,4989,_ZN5Catch7Session3runIcEEiiPKPKT_
FN:5020,5023,_ZN5Catch8TagAliasC2ERKNSt7__cxx1112basic_stringIcSt11char_traitsIcESaIcEEENS_14SourceLineInfoE
FN:5352,5352,_ZNK5Catch20ITransientExpression18isBinaryExpressionEv
FN:5353,5353,_ZNK5Catch20ITransientExpression9getResultEv
FN:5357,5360,_ZN5Catch20ITransientExpressionC2Ebb
FN:5365,5368,_ZN5CatchlsERSoRKNS_20ITransientExpressionE
FN:579,581,_ZNK5Catch7Context16getResultCaptureEv
FN:582,582,_ZNK5Catch7Context9getConfigEv
FN:583,585,_ZN5Catch7Context16setResultCaptureEPNS_14IResultCaptureE
FN:586,586,_ZN5Catch7Context9setConfigEPKNS_7IConfigE
FN:591,593,_ZN5Catch17getCurrentContextEv
FN:6266,6279,_ZN5Catch6Detail11UnreachableEv
FN:7209,7211,_ZN5Catch3TagC2ENS_9StringRefE
FN:723,723,_ZN5Catch9StringRefC2Ev
FN:727,730,_ZN5Catch9StringRefC2EPKcm
FN:7284,7285,_ZN5Catch14TestCaseHandleC2EPNS_12TestCaseInfoEPNS_12ITestInvokerE
FN:7287,7289,_ZNK5Catch14TestCaseHandle15prepareTestCaseEv
FN:7291,7293,_ZNK5Catch14TestCaseHandle16tearDownTestCaseEv
FN:7295,7297,_ZNK5Catch14TestCaseHandle6invokeEv
FN:7299,7301,_ZNK5Catch14TestCaseHandle15getTestCaseInfoEv
FN:732,735,_ZN5Catch9StringRefC2ERKNSt7__cxx1112basic_stringIcSt11char_traitsIcESaIcEEE
FN:7324,7324,_ZN5Catch11TestRunInfoC2ENS_9StringRefE
FN:737,739,_ZNK5Catch9StringRefcvNSt7__cxx1112basic_stringIcSt11char_traitsIcESaIcEEEEv
FN:742,745,_ZNK5Catch9StringRefeqES0_
FN:750,753,_ZNK5Catch9StringRefixEm
FN:7519,7521,_ZN5Catch18GeneratorExceptionC2EPKc
FN:7565,7565,_ZN5Catch10Generators20GeneratorUntypedBaseC2Ev
FN:758,760,_ZNK5Catch9StringRef5emptyEv
FN:761,763,_ZNK5Catch9StringRef4sizeEv
FN:7635,7637,_ZNK5Catch10Generators10IGeneratorIeE13stringifyImplB5cxx11Ev
FN:768,775,_ZNK5Catch9StringRef6substrEmm
FN:778,780,_ZNK5Catch9StringRef4dataEv
FN:782,782,_ZNK5Catch9StringRef5beginEv
FN:783,783,_ZNK5Catch9StringRef3endEv
FN:800,802,_ZN5Catchli3_srEPKcm
FN:8102,8104,_ZN5Catch11SimplePcg323minEv
FN:8110,8110,_ZN5Catch11SimplePcg32C2Ev
FN:8246,8258,_ZN5Catch6Detail12extendedMultEmm
FN:8280,8294,_ZN5Catch6Detail12fillBitsFromIjSt13random_deviceEENSt9enable_ifIXgestNT0_11result_typeEstT_ES6_E4typeERS4_
FN:8299,8318,_ZN5Catch6Detail12fillBitsFromImNS_11SimplePcg32EEENSt9enable_ifIXltstNT0_11result_typeEstT_ES6_E4typeERS4_
FN:8351,8358,_ZN5Catch6Detail23transposeToNaturalOrderImmEENSt9enable_ifIXsrSt11is_unsignedIT_E5valueET0_E4typeES6_
FN:840,842,_ZN5Catch4isOkENS_9ResultWas6OfTypeE
FN:8401,8405,_ZN5Catch28uniform_integer_distributionImE15computeDistanceEmm
FN:8407,8412,_ZN5Catch28uniform_integer_distributionImE25computeRejectionThresholdEm
FN:8414,8417,_ZN5Catch28uniform_integer_distributionImE11transposeToEm
FN:8418,8421,_ZN5Catch28uniform_integer_distributionImE13transposeBackEm
FN:8426,8431,_ZN5Catch28uniform_integer_distributionImEC2Emm
FN:8434,8450,_ZN5Catch28uniform_integer_distributionImEclINS_11SimplePcg32EEEmRT_
FN:861,863,_ZN5Catch11isFalseTestEi
FN:864,866,_ZN5Catch21shouldSuppressFailureEi
FN:8729,8729,_ZNK5Catch10Generators23RandomFloatingGeneratorIeE3getEv
FN:891,893,_ZN5Catch6Detail10unique_ptrINS_10Generators20GeneratorUntypedBaseEEC2EDn
FN:891,893,_ZN5Catch6Detail10unique_ptrINS_14IEventListenerEEC2EDn
FN:891,893,_ZN5Catch6Detail10unique_ptrINS_16IReporterFactoryEEC2EDn
FN:891,893,_ZN5Catch6Detail10unique_ptrINS_16TestCaseTracking8ITrackerEEC2EDn
FN:891,893,_ZN5Catch6Detail10unique_ptrINS_22CumulativeReporterBase11SectionNodeEEC2EDn
FN:891,893,_ZN5Catch6Detail10unique_ptrINS_22CumulativeReporterBase4NodeINS_12TestRunStatsENS3_INS_13TestCaseStatsENS2_11SectionNodeEEEEEEC2EDn
FN:891,893,_ZN5Catch6Detail10unique_ptrINS_6ConfigEEC2EDn
FN:894,896,_ZN5Catch6Detail10unique_ptrINS0_12_GLOBAL__N_110CerrStreamEEC2EPS3_
FN:894,896,_ZN5Catch6Detail10unique_ptrINS0_12_GLOBAL__N_110CoutStreamEEC2EPS3_
FN:894,896,_ZN5Catch6Detail10unique_ptrINS0_12_GLOBAL__N_110FileStreamEEC2EPS3_
FN:894,896,_ZN5Catch6Detail10unique_ptrINS0_12_GLOBAL__N_113StreamBufImplINS2_17OutputDebugWriterELm256EEEEC2EPS5_
FN:894,896,_ZN5Catch6Detail10unique_ptrINS0_12_GLOBAL__N_114DebugOutStreamEEC2EPS3_
FN:894,896,_ZN5Catch6Detail10unique_ptrINS0_8EnumInfoEEC2EPS2_
FN:894,896,_ZN5Catch6Detail10unique_ptrINS_10Generators12_GLOBAL__N_116GeneratorTrackerEEC2EPS4_
FN:894,896,_ZN5Catch6Detail10unique_ptrINS_10Generators23RandomFloatingGeneratorIeE5PImplEEC2EPS5_
FN:894,896,_ZN5Catch6Detail10unique_ptrINS_11TAPReporterEEC2EPS2_
FN:894,896,_ZN5Catch6Detail10unique_ptrINS_11XmlReporterEEC2EPS2_
FN:894,896,_ZN5Catch6Detail10unique_ptrINS_12JsonReporterEEC2EPS2_
FN:894,896,_ZN5Catch6Detail10unique_ptrINS_12TablePrinterEEC2EPS2_
FN:894,896,_ZN5Catch6Detail10unique_ptrINS_12TestCaseInfoEEC2EPS2_
FN:894,896,_ZN5Catch6Detail10unique_ptrINS_12_GLOBAL__N_112NoColourImplEEC2EPS3_
FN:894,896,_ZN5Catch6Detail10unique_ptrINS_12_GLOBAL__N_112NoopRedirectEEC2EPS3_
FN:894,896,_ZN5Catch6Detail10unique_ptrINS_12_GLOBAL__N_114ANSIColourImplEEC2EPS3_
FN:894,896,_ZN5Catch6Detail10unique_ptrINS_12_GLOBAL__N_114StreamRedirectEEC2EPS3_
FN:894,896,_ZN5Catch6Detail10unique_ptrINS_12_GLOBAL__N_121TestInvokerAsFunctionEEC2EPS3_
FN:894,896,_ZN5Catch6Detail10unique_ptrINS_13JunitReporterEEC2EPS2_
FN:894,896,_ZN5Catch6Detail10unique_ptrINS_13MultiReporterEEC2EPS2_
FN:894,896,_ZN5Catch6Detail10unique_ptrINS_15CompactReporterEEC2EPS2_
FN:894,896,_ZN5Catch6Detail10unique_ptrINS_15ConsoleReporterEEC2EPS2_
FN:894,896,_ZN5Catch6Detail10unique_ptrINS_15ReporterFactoryINS_11TAPReporterEEEEC2EPS4_
FN:894,896,_ZN5Catch6Detail10unique_ptrINS_15ReporterFactoryINS_11XmlReporterEEEEC2EPS4_
FN:894,896,_ZN5Catch6Detail10unique_ptrINS_15ReporterFactoryINS_12JsonReporterEEEEC2EPS4_
FN:894,896,_ZN5Catch6Detail10unique_ptrINS_15ReporterFactoryINS_13JunitReporterEEEEC2EPS4_
FN:894,896,_ZN5Catch6Detail10unique_ptrINS_15ReporterFactoryINS_15CompactReporterEEEEC2EPS4_
FN:894,896,_ZN5Catch6Detail10unique_ptrINS_15ReporterFactoryINS_15ConsoleReporterEEEEC2EPS4_
FN:894,896,_ZN5Catch6Detail10unique_ptrINS_15ReporterFactoryINS_16AutomakeReporterEEEEC2EPS4_
FN:894,896,_ZN5Catch6Detail10unique_ptrINS_15ReporterFactoryINS_16TeamCityReporterEEEEC2EPS4_
FN:894,896,_ZN5Catch6Detail10unique_ptrINS_15ReporterFactoryINS_17SonarQubeReporterEEEEC2EPS4_
FN:894,896,_ZN5Catch6Detail10unique_ptrINS_16AutomakeReporterEEC2EPS2_
FN:894,896,_ZN5Catch6Detail10unique_ptrINS_16ReporterRegistry20ReporterRegistryImplEEC2EPS3_
FN:894,896,_ZN5Catch6Detail10unique_ptrINS_16TeamCityReporterEEC2EPS2_
FN:894,896,_ZN5Catch6Detail10unique_ptrINS_16TestCaseTracking14SectionTrackerEEC2EPS3_
FN:894,896,_ZN5Catch6Detail10unique_ptrINS_17SonarQubeReporterEEC2EPS2_
FN:894,896,_ZN5Catch6Detail10unique_ptrINS_22CumulativeReporterBase11SectionNodeEEC2EPS3_
FN:894,896,_ZN5Catch6Detail10unique_ptrINS_22CumulativeReporterBase4NodeINS_12TestRunStatsENS3_INS_13TestCaseStatsENS2_11SectionNodeEEEEEEC2EPS8_
FN:894,896,_ZN5Catch6Detail10unique_ptrINS_22CumulativeReporterBase4NodeINS_13TestCaseStatsENS2_11SectionNodeEEEEC2EPS6_
FN:894,896,_ZN5Catch6Detail10unique_ptrINS_6ConfigEEC2EPS2_
FN:894,896,_ZN5Catch6Detail10unique_ptrINS_8TestSpec10TagPatternEEC2EPS3_
FN:894,896,_ZN5Catch6Detail10unique_ptrINS_8TestSpec11NamePatternEEC2EPS3_
FN:894,896,_ZN5Catch6Detail10unique_ptrINS_9Benchmark6Detail17BenchmarkFunction8callableEEC2EPS5_
FN:894,896,_ZN5Catch6Detail10unique_ptrINSt7__cxx1119basic_ostringstreamIcSt11char_traitsIcESaIcEEEEC2EPS7_
FN:8953,8953,_ZN5Catch14AssertionStatsC2ERKS0_
FN:899,901,_ZN5Catch6Detail10unique_ptrIKNS_20IExceptionTranslatorEEC2IS2_vEEONS1_IT_EE
FN:899,901,_ZN5Catch6Detail10unique_ptrINS_10ColourImplEEC2INS_12_GLOBAL__N_112NoColourImplEvEEONS1_IT_EE
FN:899,901,_ZN5Catch6Detail10unique_ptrINS_10ColourImplEEC2INS_12_GLOBAL__N_114ANSIColourImplEvEEONS1_IT_EE
FN:899,901,_ZN5Catch6Detail10unique_ptrINS_12ITestInvokerEEC2INS_12_GLOBAL__N_121TestInvokerAsFunctionEvEEONS1_IT_EE
FN:899,901,_ZN5Catch6Detail10unique_ptrINS_14IEventListenerEEC2INS_11TAPReporterEvEEONS1_IT_EE
FN:899,901,_ZN5Catch6Detail10unique_ptrINS_14IEventListenerEEC2INS_11XmlReporterEvEEONS1_IT_EE
FN:899,901,_ZN5Catch6Detail10unique_ptrINS_14IEventListenerEEC2INS_12JsonReporterEvEEONS1_IT_EE
FN:899,901,_ZN5Catch6Detail10unique_ptrINS_14IEventListenerEEC2INS_13JunitReporterEvEEONS1_IT_EE
FN:899,901,_ZN5Catch6Detail10unique_ptrINS_14IEventListenerEEC2INS_13MultiReporterEvEEONS1_IT_EE
FN:899,901,_ZN5Catch6Detail10unique_ptrINS_14IEventListenerEEC2INS_15CompactReporterEvEEONS1_IT_EE
FN:899,901,_ZN5Catch6Detail10unique_ptrINS_14IEventListenerEEC2INS_15ConsoleReporterEvEEONS1_IT_EE
FN:899,901,_ZN5Catch6Detail10unique_ptrINS_14IEventListenerEEC2INS_16AutomakeReporterEvEEONS1_IT_EE
FN:899,901,_ZN5Catch6Detail10unique_ptrINS_14IEventListenerEEC2INS_16TeamCityReporterEvEEONS1_IT_EE
FN:899,901,_ZN5Catch6Detail10unique_ptrINS_14IEventListenerEEC2INS_17SonarQubeReporterEvEEONS1_IT_EE
FN:899,901,_ZN5Catch6Detail10unique_ptrINS_14OutputRedirectEEC2INS_12_GLOBAL__N_112NoopRedirectEvEEONS1_IT_EE
FN:899,901,_ZN5Catch6Detail10unique_ptrINS_14OutputRedirectEEC2INS_12_GLOBAL__N_114StreamRedirectEvEEONS1_IT_EE
FN:899,901,_ZN5Catch6Detail10unique_ptrINS_16TestCaseTracking8ITrackerEEC2INS2_14SectionTrackerEvEEONS1_IT_EE
FN:899,901,_ZN5Catch6Detail10unique_ptrINS_16TestCaseTracking8ITrackerEEC2INS_10Generators12_GLOBAL__N_116GeneratorTrackerEvEEONS1_IT_EE
FN:899,901,_ZN5Catch6Detail10unique_ptrINS_7IStreamEEC2INS0_12_GLOBAL__N_110CerrStreamEvEEONS1_IT_EE
FN:899,901,_ZN5Catch6Detail10unique_ptrINS_7IStreamEEC2INS0_12_GLOBAL__N_110CoutStreamEvEEONS1_IT_EE
FN:899,901,_ZN5Catch6Detail10unique_ptrINS_7IStreamEEC2INS0_12_GLOBAL__N_110FileStreamEvEEONS1_IT_EE
FN:899,901,_ZN5Catch6Detail10unique_ptrINS_7IStreamEEC2INS0_12_GLOBAL__N_114DebugOutStreamEvEEONS1_IT_EE
FN:899,901,_ZN5Catch6Detail10unique_ptrINS_8TestSpec7PatternEEC2INS2_10TagPatternEvEEONS1_IT_EE
FN:899,901,_ZN5Catch6Detail10unique_ptrINS_8TestSpec7PatternEEC2INS2_11NamePatternEvEEONS1_IT_EE
FN:9036,9036,_ZN5Catch14IEventListenerC2EPKNS_7IConfigE
FN:904,908,_ZN5Catch6Detail10unique_ptrINS_16IReporterFactoryEEaSINS_15ReporterFactoryINS_11TAPReporterEEEvEERS3_ONS1_IT_EE
FN:904,908,_ZN5Catch6Detail10unique_ptrINS_16IReporterFactoryEEaSINS_15ReporterFactoryINS_11XmlReporterEEEvEERS3_ONS1_IT_EE
FN:904,908,_ZN5Catch6Detail10unique_ptrINS_16IReporterFactoryEEaSINS_15ReporterFactoryINS_12JsonReporterEEEvEERS3_ONS1_IT_EE
FN:904,908,_ZN5Catch6Detail10unique_ptrINS_16IReporterFactoryEEaSINS_15ReporterFactoryINS_13JunitReporterEEEvEERS3_ONS1_IT_EE
FN:904,908,_ZN5Catch6Detail10unique_ptrINS_16IReporterFactoryEEaSINS_15ReporterFactoryINS_15CompactReporterEEEvEERS3_ONS1_IT_EE
FN:904,908,_ZN5Catch6Detail10unique_ptrINS_16IReporterFactoryEEaSINS_15ReporterFactoryINS_15ConsoleReporterEEEvEERS3_ONS1_IT_EE
FN:904,908,_ZN5Catch6Detail10unique_ptrINS_16IReporterFactoryEEaSINS_15ReporterFactoryINS_16AutomakeReporterEEEvEERS3_ONS1_IT_EE
FN:904,908,_ZN5Catch6Detail10unique_ptrINS_16IReporterFactoryEEaSINS_15ReporterFactoryINS_16TeamCityReporterEEEvEERS3_ONS1_IT_EE
FN:904,908,_ZN5Catch6Detail10unique_ptrINS_16IReporterFactoryEEaSINS_15ReporterFactoryINS_17SonarQubeReporterEEEvEERS3_ONS1_IT_EE
FN:904,908,_ZN5Catch6Detail10unique_ptrINS_16TestCaseTracking8ITrackerEEaSINS2_14SectionTrackerEvEERS4_ONS1_IT_EE
FN:9043,9045,_ZNK5Catch14IEventListener14getPreferencesEv
FN:913,916,_ZN5Catch6Detail10unique_ptrIKNS_20IExceptionTranslatorEEC2EOS4_
FN:913,916,_ZN5Catch6Detail10unique_ptrINS0_8EnumInfoEEC2EOS3_
FN:913,916,_ZN5Catch6Detail10unique_ptrINS_12ITestInvokerEEC2EOS3_
FN:913,916,_ZN5Catch6Detail10unique_ptrINS_12TestCaseInfoEEC2EOS3_
FN:913,916,_ZN5Catch6Detail10unique_ptrINS_14IEventListenerEEC2EOS3_
FN:913,916,_ZN5Catch6Detail10unique_ptrINS_16IReporterFactoryEEC2EOS3_
FN:913,916,_ZN5Catch6Detail10unique_ptrINS_16TestCaseTracking8ITrackerEEC2EOS4_
FN:913,916,_ZN5Catch6Detail10unique_ptrINS_20EventListenerFactoryEEC2EOS3_
FN:913,916,_ZN5Catch6Detail10unique_ptrINS_22CumulativeReporterBase11SectionNodeEEC2EOS4_
FN:913,916,_ZN5Catch6Detail10unique_ptrINS_22CumulativeReporterBase4NodeINS_13TestCaseStatsENS2_11SectionNodeEEEEC2EOS7_
FN:913,916,_ZN5Catch6Detail10unique_ptrINS_7IStreamEEC2EOS3_
FN:913,916,_ZN5Catch6Detail10unique_ptrINS_8TestSpec7PatternEEC2EOS4_
FN:913,916,_ZN5Catch6Detail10unique_ptrINSt7__cxx1119basic_ostringstreamIcSt11char_traitsIcESaIcEEEEC2EOS8_
FN:917,921,_ZN5Catch6Detail10unique_ptrINS_10Generators20GeneratorUntypedBaseEEaSEOS4_
FN:917,921,_ZN5Catch6Detail10unique_ptrINS_14IEventListenerEEaSEOS3_
FN:917,921,_ZN5Catch6Detail10unique_ptrINS_22CumulativeReporterBase11SectionNodeEEaSEOS4_
FN:917,921,_ZN5Catch6Detail10unique_ptrINS_22CumulativeReporterBase4NodeINS_12TestRunStatsENS3_INS_13TestCaseStatsENS2_11SectionNodeEEEEEEaSEOS9_
FN:917,921,_ZN5Catch6Detail10unique_ptrINS_6ConfigEEaSEOS3_
FN:923,925,_ZN5Catch6Detail10unique_ptrIKNS_20IExceptionTranslatorEED2Ev
FN:923,925,_ZN5Catch6Detail10unique_ptrINS0_12_GLOBAL__N_110CerrStreamEED2Ev
FN:923,925,_ZN5Catch6Detail10unique_ptrINS0_12_GLOBAL__N_110CoutStreamEED2Ev
FN:923,925,_ZN5Catch6Detail10unique_ptrINS0_12_GLOBAL__N_110FileStreamEED2Ev
FN:923,925,_ZN5Catch6Detail10unique_ptrINS0_12_GLOBAL__N_113StreamBufImplINS2_17OutputDebugWriterELm256EEEED2Ev
FN:923,925,_ZN5Catch6Detail10unique_ptrINS0_12_GLOBAL__N_114DebugOutStreamEED2Ev
FN:923,925,_ZN5Catch6Detail10unique_ptrINS0_8EnumInfoEED2Ev
FN:923,925,_ZN5Catch6Detail10unique_ptrINS_10ColourImplEED2Ev
FN:923,925,_ZN5Catch6Detail10unique_ptrINS_10Generators12_GLOBAL__N_116GeneratorTrackerEED2Ev
FN:923,925,_ZN5Catch6Detail10unique_ptrINS_10Generators20GeneratorUntypedBaseEED2Ev
FN:923,925,_ZN5Catch6Detail10unique_ptrINS_10Generators23RandomFloatingGeneratorIeE5PImplEED2Ev
FN:923,925,_ZN5Catch6Detail10unique_ptrINS_11TAPReporterEED2Ev
FN:923,925,_ZN5Catch6Detail10unique_ptrINS_11XmlReporterEED2Ev
FN:923,925,_ZN5Catch6Detail10unique_ptrINS_12ITestInvokerEED2Ev
FN:923,925,_ZN5Catch6Detail10unique_ptrINS_12JsonReporterEED2Ev
FN:923,925,_ZN5Catch6Detail10unique_ptrINS_12TablePrinterEED2Ev
FN:923,925,_ZN5Catch6Detail10unique_ptrINS_12TestCaseInfoEED2Ev
FN:923,925,_ZN5Catch6Detail10unique_ptrINS_12_GLOBAL__N_112NoColourImplEED2Ev
FN:923,925,_ZN5Catch6Detail10unique_ptrINS_12_GLOBAL__N_112NoopRedirectEED2Ev
FN:923,925,_ZN5Catch6Detail10unique_ptrINS_12_GLOBAL__N_114ANSIColourImplEED2Ev
FN:923,925,_ZN5Catch6Detail10unique_ptrINS_12_GLOBAL__N_114StreamRedirectEED2Ev
FN:923,925,_ZN5Catch6Detail10unique_ptrINS_12_GLOBAL__N_121TestInvokerAsFunctionEED2Ev
FN:923,925,_ZN5Catch6Detail10unique_ptrINS_13JunitReporterEED2Ev
FN:923,925,_ZN5Catch6Detail10unique_ptrINS_13MultiReporterEED2Ev
FN:923,925,_ZN5Catch6Detail10unique_ptrINS_14IEventListenerEED2Ev
FN:923,925,_ZN5Catch6Detail10unique_ptrINS_14OutputRedirectEED2Ev
FN:923,925,_ZN5Catch6Detail10unique_ptrINS_15CompactReporterEED2Ev
FN:923,925,_ZN5Catch6Detail10unique_ptrINS_15ConsoleReporterEED2Ev
FN:923,925,_ZN5Catch6Detail10unique_ptrINS_15ReporterFactoryINS_11TAPReporterEEEED2Ev
FN:923,925,_ZN5Catch6Detail10unique_ptrINS_15ReporterFactoryINS_11XmlReporterEEEED2Ev
FN:923,925,_ZN5Catch6Detail10unique_ptrINS_15ReporterFactoryINS_12JsonReporterEEEED2Ev
FN:923,925,_ZN5Catch6Detail10unique_ptrINS_15ReporterFactoryINS_13JunitReporterEEEED2Ev
FN:923,925,_ZN5Catch6Detail10unique_ptrINS_15ReporterFactoryINS_15CompactReporterEEEED2Ev
FN:923,925,_ZN5Catch6Detail10unique_ptrINS_15ReporterFactoryINS_15ConsoleReporterEEEED2Ev
FN:923,925,_ZN5Catch6Detail10unique_ptrINS_15ReporterFactoryINS_16AutomakeReporterEEEED2Ev
FN:923,925,_ZN5Catch6Detail10unique_ptrINS_15ReporterFactoryINS_16TeamCityReporterEEEED2Ev
FN:923,925,_ZN5Catch6Detail10unique_ptrINS_15ReporterFactoryINS_17SonarQubeReporterEEEED2Ev
FN:923,925,_ZN5Catch6Detail10unique_ptrINS_16AutomakeReporterEED2Ev
FN:923,925,_ZN5Catch6Detail10unique_ptrINS_16IReporterFactoryEED2Ev
FN:923,925,_ZN5Catch6Detail10unique_ptrINS_16ReporterRegistry20ReporterRegistryImplEED2Ev
FN:923,925,_ZN5Catch6Detail10unique_ptrINS_16TeamCityReporterEED2Ev
FN:923,925,_ZN5Catch6Detail10unique_ptrINS_16TestCaseTracking14SectionTrackerEED2Ev
FN:923,925,_ZN5Catch6Detail10unique_ptrINS_16TestCaseTracking8ITrackerEED2Ev
FN:923,925,_ZN5Catch6Detail10unique_ptrINS_17SonarQubeReporterEED2Ev
FN:923,925,_ZN5Catch6Detail10unique_ptrINS_20EventListenerFactoryEED2Ev
FN:923,925,_ZN5Catch6Detail10unique_ptrINS_22CumulativeReporterBase11SectionNodeEED2Ev
FN:923,925,_ZN5Catch6Detail10unique_ptrINS_22CumulativeReporterBase4NodeINS_12TestRunStatsENS3_INS_13TestCaseStatsENS2_11SectionNodeEEEEEED2Ev
FN:923,925,_ZN5Catch6Detail10unique_ptrINS_22CumulativeReporterBase4NodeINS_13TestCaseStatsENS2_11SectionNodeEEEED2Ev
FN:923,925,_ZN5Catch6Detail10unique_ptrINS_6ConfigEED2Ev
FN:923,925,_ZN5Catch6Detail10unique_ptrINS_7IStreamEED2Ev
FN:923,925,_ZN5Catch6Detail10unique_ptrINS_8TestSpec10TagPatternEED2Ev
FN:923,925,_ZN5Catch6Detail10unique_ptrINS_8TestSpec11NamePatternEED2Ev
FN:923,925,_ZN5Catch6Detail10unique_ptrINS_8TestSpec7PatternEED2Ev
FN:923,925,_ZN5Catch6Detail10unique_ptrINSt7__cxx1119basic_ostringstreamIcSt11char_traitsIcESaIcEEEED2Ev
FN:927,930,_ZN5Catch6Detail10unique_ptrINS0_8EnumInfoEEdeEv
FN:927,930,_ZN5Catch6Detail10unique_ptrINS_10ColourImplEEdeEv
FN:927,930,_ZN5Catch6Detail10unique_ptrINS_12TablePrinterEEdeEv
FN:927,930,_ZN5Catch6Detail10unique_ptrINS_14IEventListenerEEdeEv
FN:927,930,_ZN5Catch6Detail10unique_ptrINS_14OutputRedirectEEdeEv
FN:927,930,_ZN5Catch6Detail10unique_ptrINS_16TestCaseTracking8ITrackerEEdeEv
FN:927,930,_ZN5Catch6Detail10unique_ptrINS_22CumulativeReporterBase4NodeINS_12TestRunStatsENS3_INS_13TestCaseStatsENS2_11SectionNodeEEEEEEdeEv
FN:927,930,_ZN5Catch6Detail10unique_ptrINS_6ConfigEEdeEv
FN:931,934,_ZNK5Catch6Detail10unique_ptrINS_16TestCaseTracking8ITrackerEEdeEv
FN:931,934,_ZNK5Catch6Detail10unique_ptrINS_22CumulativeReporterBase11SectionNodeEEdeEv
FN:931,934,_ZNK5Catch6Detail10unique_ptrINS_22CumulativeReporterBase4NodeINS_13TestCaseStatsENS2_11SectionNodeEEEEdeEv
FN:931,934,_ZNK5Catch6Detail10unique_ptrINS_8TestSpec7PatternEEdeEv
FN:935,938,_ZN5Catch6Detail10unique_ptrINS0_8EnumInfoEEptEv
FN:935,938,_ZN5Catch6Detail10unique_ptrINS_10ColourImplEEptEv
FN:935,938,_ZN5Catch6Detail10unique_ptrINS_10Generators20GeneratorUntypedBaseEEptEv
FN:935,938,_ZN5Catch6Detail10unique_ptrINS_10Generators23RandomFloatingGeneratorIeE5PImplEEptEv
FN:935,938,_ZN5Catch6Detail10unique_ptrINS_12TablePrinterEEptEv
FN:935,938,_ZN5Catch6Detail10unique_ptrINS_13MultiReporterEEptEv
FN:935,938,_ZN5Catch6Detail10unique_ptrINS_14IEventListenerEEptEv
FN:935,938,_ZN5Catch6Detail10unique_ptrINS_14OutputRedirectEEptEv
FN:935,938,_ZN5Catch6Detail10unique_ptrINS_16ReporterRegistry20ReporterRegistryImplEEptEv
FN:935,938,_ZN5Catch6Detail10unique_ptrINS_22CumulativeReporterBase4NodeINS_12TestRunStatsENS3_INS_13TestCaseStatsENS2_11SectionNodeEEEEEEptEv
FN:935,938,_ZN5Catch6Detail10unique_ptrINS_22CumulativeReporterBase4NodeINS_13TestCaseStatsENS2_11SectionNodeEEEEptEv
FN:935,938,_ZN5Catch6Detail10unique_ptrINS_6ConfigEEptEv
FN:935,938,_ZN5Catch6Detail10unique_ptrINS_7IStreamEEptEv
FN:9357,9357,_ZN5Catch10ColourImplC2EPNS_7IStreamE
FN:939,942,_ZNK5Catch6Detail10unique_ptrIKNS_20IExceptionTranslatorEEptEv
FN:939,942,_ZNK5Catch6Detail10unique_ptrINS_16IReporterFactoryEEptEv
FN:939,942,_ZNK5Catch6Detail10unique_ptrINS_16ReporterRegistry20ReporterRegistryImplEEptEv
FN:939,942,_ZNK5Catch6Detail10unique_ptrINS_16TestCaseTracking8ITrackerEEptEv
FN:939,942,_ZNK5Catch6Detail10unique_ptrINS_20EventListenerFactoryEEptEv
FN:939,942,_ZNK5Catch6Detail10unique_ptrINS_22CumulativeReporterBase11SectionNodeEEptEv
FN:939,942,_ZNK5Catch6Detail10unique_ptrINS_22CumulativeReporterBase4NodeINS_13TestCaseStatsENS2_11SectionNodeEEEEptEv
FN:939,942,_ZNK5Catch6Detail10unique_ptrINS_8TestSpec7PatternEEptEv
FN:9401,9405,_ZN5CatchlsERSoONS_10ColourImpl11ColourGuardE
FN:944,944,_ZN5Catch6Detail10unique_ptrINS0_12_GLOBAL__N_113StreamBufImplINS2_17OutputDebugWriterELm256EEEE3getEv
FN:944,944,_ZN5Catch6Detail10unique_ptrINS_10ColourImplEE3getEv
FN:944,944,_ZN5Catch6Detail10unique_ptrINS_10Generators12_GLOBAL__N_116GeneratorTrackerEE3getEv
FN:944,944,_ZN5Catch6Detail10unique_ptrINS_12ITestInvokerEE3getEv
FN:944,944,_ZN5Catch6Detail10unique_ptrINS_12TestCaseInfoEE3getEv
FN:944,944,_ZN5Catch6Detail10unique_ptrINS_14IEventListenerEE3getEv
FN:944,944,_ZN5Catch6Detail10unique_ptrINS_16TestCaseTracking14SectionTrackerEE3getEv
FN:944,944,_ZN5Catch6Detail10unique_ptrINS_16TestCaseTracking8ITrackerEE3getEv
FN:944,944,_ZN5Catch6Detail10unique_ptrINS_22CumulativeReporterBase11SectionNodeEE3getEv
FN:944,944,_ZN5Catch6Detail10unique_ptrINS_6ConfigEE3getEv
FN:944,944,_ZN5Catch6Detail10unique_ptrINS_7IStreamEE3getEv
FN:944,944,_ZN5Catch6Detail10unique_ptrINSt7__cxx1119basic_ostringstreamIcSt11char_traitsIcESaIcEEEE3getEv
FN:945,945,_ZNK5Catch6Detail10unique_ptrINS_22CumulativeReporterBase4NodeINS_13TestCaseStatsENS2_11SectionNodeEEEE3getEv
FN:947,950,_ZN5Catch6Detail10unique_ptrINS_10Generators20GeneratorUntypedBaseEE5resetEPS3_
FN:947,950,_ZN5Catch6Detail10unique_ptrINS_14IEventListenerEE5resetEPS2_
FN:947,950,_ZN5Catch6Detail10unique_ptrINS_16IReporterFactoryEE5resetEPS2_
FN:947,950,_ZN5Catch6Detail10unique_ptrINS_16TestCaseTracking8ITrackerEE5resetEPS3_
FN:947,950,_ZN5Catch6Detail10unique_ptrINS_22CumulativeReporterBase11SectionNodeEE5resetEPS3_
FN:947,950,_ZN5Catch6Detail10unique_ptrINS_22CumulativeReporterBase4NodeINS_12TestRunStatsENS3_INS_13TestCaseStatsENS2_11SectionNodeEEEEEE5resetEPS8_
FN:947,950,_ZN5Catch6Detail10unique_ptrINS_6ConfigEE5resetEPS2_
FN:952,956,_ZN5Catch6Detail10unique_ptrINS0_12_GLOBAL__N_110CerrStreamEE7releaseEv
FN:952,956,_ZN5Catch6Detail10unique_ptrINS0_12_GLOBAL__N_110CoutStreamEE7releaseEv
FN:952,956,_ZN5Catch6Detail10unique_ptrINS0_12_GLOBAL__N_110FileStreamEE7releaseEv
FN:952,956,_ZN5Catch6Detail10unique_ptrINS0_12_GLOBAL__N_114DebugOutStreamEE7releaseEv
FN:952,956,_ZN5Catch6Detail10unique_ptrINS_10Generators12_GLOBAL__N_116GeneratorTrackerEE7releaseEv
FN:952,956,_ZN5Catch6Detail10unique_ptrINS_10Generators20GeneratorUntypedBaseEE7releaseEv
FN:952,956,_ZN5Catch6Detail10unique_ptrINS_11TAPReporterEE7releaseEv
FN:952,956,_ZN5Catch6Detail10unique_ptrINS_11XmlReporterEE7releaseEv
FN:952,956,_ZN5Catch6Detail10unique_ptrINS_12JsonReporterEE7releaseEv
FN:952,956,_ZN5Catch6Detail10unique_ptrINS_12_GLOBAL__N_112NoColourImplEE7releaseEv
FN:952,956,_ZN5Catch6Detail10unique_ptrINS_12_GLOBAL__N_112NoopRedirectEE7releaseEv
FN:952,956,_ZN5Catch6Detail10unique_ptrINS_12_GLOBAL__N_114ANSIColourImplEE7releaseEv
FN:952,956,_ZN5Catch6Detail10unique_ptrINS_12_GLOBAL__N_114StreamRedirectEE7releaseEv
FN:952,956,_ZN5Catch6Detail10unique_ptrINS_12_GLOBAL__N_121TestInvokerAsFunctionEE7releaseEv
FN:952,956,_ZN5Catch6Detail10unique_ptrINS_13JunitReporterEE7releaseEv
FN:952,956,_ZN5Catch6Detail10unique_ptrINS_13MultiReporterEE7releaseEv
FN:952,956,_ZN5Catch6Detail10unique_ptrINS_14IEventListenerEE7releaseEv
FN:952,956,_ZN5Catch6Detail10unique_ptrINS_15CompactReporterEE7releaseEv
FN:952,956,_ZN5Catch6Detail10unique_ptrINS_15ConsoleReporterEE7releaseEv
FN:952,956,_ZN5Catch6Detail10unique_ptrINS_15ReporterFactoryINS_11TAPReporterEEEE7releaseEv
FN:952,956,_ZN5Catch6Detail10unique_ptrINS_15ReporterFactoryINS_11XmlReporterEEEE7releaseEv
FN:952,956,_ZN5Catch6Detail10unique_ptrINS_15ReporterFactoryINS_12JsonReporterEEEE7releaseEv
FN:952,956,_ZN5Catch6Detail10unique_ptrINS_15ReporterFactoryINS_13JunitReporterEEEE7releaseEv
FN:952,956,_ZN5Catch6Detail10unique_ptrINS_15ReporterFactoryINS_15CompactReporterEEEE7releaseEv
FN:952,956,_ZN5Catch6Detail10unique_ptrINS_15ReporterFactoryINS_15ConsoleReporterEEEE7releaseEv
FN:952,956,_ZN5Catch6Detail10unique_ptrINS_15ReporterFactoryINS_16AutomakeReporterEEEE7releaseEv
FN:952,956,_ZN5Catch6Detail10unique_ptrINS_15ReporterFactoryINS_16TeamCityReporterEEEE7releaseEv
FN:952,956,_ZN5Catch6Detail10unique_ptrINS_15ReporterFactoryINS_17SonarQubeReporterEEEE7releaseEv
FN:952,956,_ZN5Catch6Detail10unique_ptrINS_16AutomakeReporterEE7releaseEv
FN:952,956,_ZN5Catch6Detail10unique_ptrINS_16TeamCityReporterEE7releaseEv
FN:952,956,_ZN5Catch6Detail10unique_ptrINS_16TestCaseTracking14SectionTrackerEE7releaseEv
FN:952,956,_ZN5Catch6Detail10unique_ptrINS_17SonarQubeReporterEE7releaseEv
FN:952,956,_ZN5Catch6Detail10unique_ptrINS_20IExceptionTranslatorEE7releaseEv
FN:952,956,_ZN5Catch6Detail10unique_ptrINS_22CumulativeReporterBase11SectionNodeEE7releaseEv
FN:952,956,_ZN5Catch6Detail10unique_ptrINS_22CumulativeReporterBase4NodeINS_12TestRunStatsENS3_INS_13TestCaseStatsENS2_11SectionNodeEEEEEE7releaseEv
FN:952,956,_ZN5Catch6Detail10unique_ptrINS_6ConfigEE7releaseEv
FN:952,956,_ZN5Catch6Detail10unique_ptrINS_8TestSpec10TagPatternEE7releaseEv
FN:952,956,_ZN5Catch6Detail10unique_ptrINS_8TestSpec11NamePatternEE7releaseEv
FN:958,960,_ZNK5Catch6Detail10unique_ptrINS_10Generators20GeneratorUntypedBaseEEcvbEv
FN:958,960,_ZNK5Catch6Detail10unique_ptrINS_14IEventListenerEEcvbEv
FN:958,960,_ZNK5Catch6Detail10unique_ptrINS_22CumulativeReporterBase11SectionNodeEEcvbEv
FN:958,960,_ZNK5Catch6Detail10unique_ptrINS_22CumulativeReporterBase4NodeINS_12TestRunStatsENS3_INS_13TestCaseStatsENS2_11SectionNodeEEEEEEcvbEv
FN:958,960,_ZNK5Catch6Detail10unique_ptrINS_6ConfigEEcvbEv
FN:958,960,_ZNK5Catch6Detail10unique_ptrINS_7IStreamEEcvbEv
FN:9610,9612,_ZN5Catch15throw_exceptionINS_18GeneratorExceptionEEEvRKT_
FN:9610,9612,_ZN5Catch15throw_exceptionINS_9Benchmark6Detail20optimized_away_errorEEEvRKT_
FN:9610,9612,_ZN5Catch15throw_exceptionISt11logic_errorEEvRKT_
FN:9610,9612,_ZN5Catch15throw_exceptionISt12domain_errorEEvRKT_
FN:9610,9612,_ZN5Catch15throw_exceptionISt13runtime_errorEEvRKT_
FN:974,976,_ZN5Catch6Detail11make_uniqueINS0_12_GLOBAL__N_110CerrStreamEJEEENS0_10unique_ptrIT_EEDpOT0_
FN:974,976,_ZN5Catch6Detail11make_uniqueINS0_12_GLOBAL__N_110CoutStreamEJEEENS0_10unique_ptrIT_EEDpOT0_
FN:974,976,_ZN5Catch6Detail11make_uniqueINS0_12_GLOBAL__N_110FileStreamEJRKNSt7__cxx1112basic_stringIcSt11char_traitsIcESaIcEEEEEENS0_10unique_ptrIT_EEDpOT0_
FN:974,976,_ZN5Catch6Detail11make_uniqueINS0_12_GLOBAL__N_113StreamBufImplINS2_17OutputDebugWriterELm256EEEJEEENS0_10unique_ptrIT_EEDpOT0_
FN:974,976,_ZN5Catch6Detail11make_uniqueINS0_12_GLOBAL__N_114DebugOutStreamEJEEENS0_10unique_ptrIT_EEDpOT0_
FN:974,976,_ZN5Catch6Detail11make_uniqueINS0_8EnumInfoEJEEENS0_10unique_ptrIT_EEDpOT0_
FN:974,976,_ZN5Catch6Detail11make_uniqueINS_10Generators12_GLOBAL__N_116GeneratorTrackerEJNS_16TestCaseTracking15NameAndLocationERNS5_14TrackerContextEPNS5_8ITrackerEEEENS0_10unique_ptrIT_EEDpOT0_
FN:974,976,_ZN5Catch6Detail11make_uniqueINS_10Generators23RandomFloatingGeneratorIeE5PImplEJReS6_RjEEENS0_10unique_ptrIT_EEDpOT0_
FN:974,976,_ZN5Catch6Detail11make_uniqueINS_11TAPReporterEJNS_14ReporterConfigEEEENS0_10unique_ptrIT_EEDpOT0_
FN:974,976,_ZN5Catch6Detail11make_uniqueINS_11XmlReporterEJNS_14ReporterConfigEEEENS0_10unique_ptrIT_EEDpOT0_
FN:974,976,_ZN5Catch6Detail11make_uniqueINS_12JsonReporterEJNS_14ReporterConfigEEEENS0_10unique_ptrIT_EEDpOT0_
FN:974,976,_ZN5Catch6Detail11make_uniqueINS_12TablePrinterEJRSoSt6vectorINS_10ColumnInfoESaIS5_EEEEENS0_10unique_ptrIT_EEDpOT0_
FN:974,976,_ZN5Catch6Detail11make_uniqueINS_12TestCaseInfoEJRNS_9StringRefERKNS_11NameAndTagsERKNS_14SourceLineInfoEEEENS0_10unique_ptrIT_EEDpOT0_
FN:974,976,_ZN5Catch6Detail11make_uniqueINS_12_GLOBAL__N_112NoColourImplEJRPNS_7IStreamEEEENS0_10unique_ptrIT_EEDpOT0_
FN:974,976,_ZN5Catch6Detail11make_uniqueINS_12_GLOBAL__N_112NoopRedirectEJEEENS0_10unique_ptrIT_EEDpOT0_
FN:974,976,_ZN5Catch6Detail11make_uniqueINS_12_GLOBAL__N_114ANSIColourImplEJRPNS_7IStreamEEEENS0_10unique_ptrIT_EEDpOT0_
FN:974,976,_ZN5Catch6Detail11make_uniqueINS_12_GLOBAL__N_114StreamRedirectEJEEENS0_10unique_ptrIT_EEDpOT0_
FN:974,976,_ZN5Catch6Detail11make_uniqueINS_12_GLOBAL__N_121TestInvokerAsFunctionEJRPFvvEEEENS0_10unique_ptrIT_EEDpOT0_
FN:974,976,_ZN5Catch6Detail11make_uniqueINS_13JunitReporterEJNS_14ReporterConfigEEEENS0_10unique_ptrIT_EEDpOT0_
FN:974,976,_ZN5Catch6Detail11make_uniqueINS_13MultiReporterEJRPKNS_6ConfigEEEENS0_10unique_ptrIT_EEDpOT0_
FN:974,976,_ZN5Catch6Detail11make_uniqueINS_15CompactReporterEJNS_14ReporterConfigEEEENS0_10unique_ptrIT_EEDpOT0_
FN:974,976,_ZN5Catch6Detail11make_uniqueINS_15ConsoleReporterEJNS_14ReporterConfigEEEENS0_10unique_ptrIT_EEDpOT0_
FN:974,976,_ZN5Catch6Detail11make_uniqueINS_15ReporterFactoryINS_11TAPReporterEEEJEEENS0_10unique_ptrIT_EEDpOT0_
FN:974,976,_ZN5Catch6Detail11make_uniqueINS_15ReporterFactoryINS_11XmlReporterEEEJEEENS0_10unique_ptrIT_EEDpOT0_
FN:974,976,_ZN5Catch6Detail11make_uniqueINS_15ReporterFactoryINS_12JsonReporterEEEJEEENS0_10unique_ptrIT_EEDpOT0_
FN:974,976,_ZN5Catch6Detail11make_uniqueINS_15ReporterFactoryINS_13JunitReporterEEEJEEENS0_10unique_ptrIT_EEDpOT0_
FN:974,976,_ZN5Catch6Detail11make_uniqueINS_15ReporterFactoryINS_15CompactReporterEEEJEEENS0_10unique_ptrIT_EEDpOT0_
FN:974,976,_ZN5Catch6Detail11make_uniqueINS_15ReporterFactoryINS_15ConsoleReporterEEEJEEENS0_10unique_ptrIT_EEDpOT0_
FN:974,976,_ZN5Catch6Detail11make_uniqueINS_15ReporterFactoryINS_16AutomakeReporterEEEJEEENS0_10unique_ptrIT_EEDpOT0_
FN:974,976,_ZN5Catch6Detail11make_uniqueINS_15ReporterFactoryINS_16TeamCityReporterEEEJEEENS0_10unique_ptrIT_EEDpOT0_
FN:974,976,_ZN5Catch6Detail11make_uniqueINS_15ReporterFactoryINS_17SonarQubeReporterEEEJEEENS0_10unique_ptrIT_EEDpOT0_
FN:974,976,_ZN5Catch6Detail11make_uniqueINS_16AutomakeReporterEJNS_14ReporterConfigEEEENS0_10unique_ptrIT_EEDpOT0_
FN:974,976,_ZN5Catch6Detail11make_uniqueINS_16ReporterRegistry20ReporterRegistryImplEJEEENS0_10unique_ptrIT_EEDpOT0_
FN:974,976,_ZN5Catch6Detail11make_uniqueINS_16TeamCityReporterEJNS_14ReporterConfigEEEENS0_10unique_ptrIT_EEDpOT0_
FN:974,976,_ZN5Catch6Detail11make_uniqueINS_16TestCaseTracking14SectionTrackerEJNS2_15NameAndLocationERNS2_14TrackerContextEDnEEENS0_10unique_ptrIT_EEDpOT0_
FN:974,976,_ZN5Catch6Detail11make_uniqueINS_16TestCaseTracking14SectionTrackerEJNS2_15NameAndLocationERNS2_14TrackerContextEPNS2_8ITrackerEEEENS0_10unique_ptrIT_EEDpOT0_
FN:974,976,_ZN5Catch6Detail11make_uniqueINS_17SonarQubeReporterEJNS_14ReporterConfigEEEENS0_10unique_ptrIT_EEDpOT0_
FN:974,976,_ZN5Catch6Detail11make_uniqueINS_22CumulativeReporterBase11SectionNodeEJRNS_12SectionStatsEEEENS0_10unique_ptrIT_EEDpOT0_
FN:974,976,_ZN5Catch6Detail11make_uniqueINS_22CumulativeReporterBase4NodeINS_12TestRunStatsENS3_INS_13TestCaseStatsENS2_11SectionNodeEEEEEJRKS4_EEENS0_10unique_ptrIT_EEDpOT0_
FN:974,976,_ZN5Catch6Detail11make_uniqueINS_22CumulativeReporterBase4NodeINS_13TestCaseStatsENS2_11SectionNodeEEEJRKS4_EEENS0_10unique_ptrIT_EEDpOT0_
FN:974,976,_ZN5Catch6Detail11make_uniqueINS_6ConfigEJRNS_10ConfigDataEEEENS0_10unique_ptrIT_EEDpOT0_
FN:974,976,_ZN5Catch6Detail11make_uniqueINS_8TestSpec10TagPatternEJRA2_KcRNSt7__cxx1112basic_stringIcSt11char_traitsIcESaIcEEEEEENS0_10unique_ptrIT_EEDpOT0_
FN:974,976,_ZN5Catch6Detail11make_uniqueINS_8TestSpec10TagPatternEJRNSt7__cxx1112basic_stringIcSt11char_traitsIcESaIcEEESA_EEENS0_10unique_ptrIT_EEDpOT0_
FN:974,976,_ZN5Catch6Detail11make_uniqueINS_8TestSpec11NamePatternEJRNSt7__cxx1112basic_stringIcSt11char_traitsIcESaIcEEESA_EEENS0_10unique_ptrIT_EEDpOT0_
FN:974,976,_ZN5Catch6Detail11make_uniqueINSt7__cxx1119basic_ostringstreamIcSt11char_traitsIcESaIcEEEJEEENS0_10unique_ptrIT_EEDpOT0_
FN:9748,9752,_ZN5Catch21FatalConditionHandler6engageEv
FN:9754,9758,_ZN5Catch21FatalConditionHandler9disengageEv
FN:9765,9768,_ZN5Catch26FatalConditionHandlerGuardC2EPNS_21FatalConditionHandlerE
FN:9769,9771,_ZN5Catch26FatalConditionHandlerGuardD2Ev
FN:9830,9869,_ZN5Catch11ulpDistanceIdEEmT_S1_
FN:9830,9869,_ZN5Catch11ulpDistanceIfEEmT_S1_
FNDA:0,_ZNK5Catch7IStream9isConsoleEv
FNDA:0,_ZNO5Catch15JsonValueWriter5writeINS_7VersionEEEvRKT_
FNDA:0,_ZNO5Catch15JsonValueWriter5writeINS_8TestSpecEEEvRKT_
FNDA:0,_ZNO5Catch15JsonValueWriter5writeINSt7__cxx1112basic_stringIcSt11char_traitsIcESaIcEEEEEvRKT_
FNDA:0,_ZNO5Catch15JsonValueWriter5writeIPKcEEvRKT_
FNDA:0,_ZNO5Catch15JsonValueWriter5writeIiEEvRKT_
FNDA:0,_ZNO5Catch15JsonValueWriter5writeIjEEvRKT_
FNDA:0,_ZNO5Catch15JsonValueWriter5writeImEEvRKT_
FNDA:0,_ZN5Catch15JsonValueWriter9writeImplINS_7VersionEvEEvRKT_b
FNDA:0,_ZN5Catch15JsonValueWriter9writeImplINS_8TestSpecEvEEvRKT_b
FNDA:0,_ZN5Catch15JsonValueWriter9writeImplIivEEvRKT_b
FNDA:0,_ZN5Catch15JsonValueWriter9writeImplIjvEEvRKT_b
FNDA:0,_ZN5Catch15JsonValueWriter9writeImplImvEEvRKT_b
FNDA:0,_ZN5Catch15JsonArrayWriter5writeINS_9StringRefEEERS0_RKT_
FNDA:0,_ZN5Catch15JsonArrayWriter9writeImplINS_9StringRefEEERS0_RKT_
FNDA:0,_ZN5Catch15JsonArrayWriter9writeImplIbEERS0_RKT_
FNDA:310,_ZNK5Catch14OutputRedirect8isActiveEv
FNDA:310,_ZN5Catch14OutputRedirect8activateEv
FNDA:310,_ZN5Catch14OutputRedirect10deactivateEv
FNDA:0,_ZN5Catch16TestCaseTrackingeqERKNS0_15NameAndLocationES3_
FNDA:0,_ZN5Catch16TestCaseTrackingneERKNS0_15NameAndLocationES3_
FNDA:447,_ZN5Catch16TestCaseTracking18NameAndLocationRefC2ENS_9StringRefENS_14SourceLineInfoE
FNDA:258,_ZN5Catch16TestCaseTrackingeqERKNS0_15NameAndLocationERKNS0_18NameAndLocationRefE
FNDA:307,_ZN5Catch16TestCaseTracking8ITrackerC2EONS0_15NameAndLocationEPS1_
FNDA:1076,_ZNK5Catch16TestCaseTracking8ITracker15nameAndLocationEv
FNDA:0,_ZNK5Catch16TestCaseTracking8ITracker6parentEv
FNDA:168,_ZNK5Catch16TestCaseTracking8ITracker23isSuccessfullyCompletedEv
FNDA:0,_ZNK5Catch16TestCaseTracking8ITracker11hasChildrenEv
FNDA:168,_ZN5Catch16TestCaseTracking14TrackerContext10startCycleEv
FNDA:686,_ZN5Catch16TestCaseTracking14TrackerContext14currentTrackerEv
FNDA:0,_ZNK5Catch16TestCaseTracking14SectionTracker10getFiltersEv
FNDA:2,_ZN5Catch6Detail9LockGuardC2ENS0_5MutexE
FNDA:1,_ZN5Catch11createShardISt3setIPKNS_14TestCaseHandleESt4lessIS4_ESaIS4_EEEET_RKS9_mm
FNDA:0,_ZN5Catch11createShardISt6vectorINS_14TestCaseHandleESaIS2_EEEET_RKS5_mm
FNDA:123,_ZN5Catch9SingletonINS_12_GLOBAL__N_111RegistryHubENS_12IRegistryHubENS_19IMutableRegistryHubEE11getInternalEv
FNDA:2,_ZN5Catch9SingletonINS_13StringStreamsES1_S1_E11getInternalEv
FNDA:5,_ZN5Catch9SingletonINS_12_GLOBAL__N_111RegistryHubENS_12IRegistryHubENS_19IMutableRegistryHubEE3getEv
FNDA:118,_ZN5Catch9SingletonINS_12_GLOBAL__N_111RegistryHubENS_12IRegistryHubENS_19IMutableRegistryHubEE10getMutableEv
FNDA:2,_ZN5Catch9SingletonINS_13StringStreamsES1_S1_E10getMutableEv
FNDA:2,_ZN5Catch9pluraliseC2EmNS_9StringRefE
FNDA:995,_ZN5Catch16getResultCaptureEv
FNDA:0,_ZN5Catch14TestSpecParser16addCharToPatternEc
FNDA:0,_ZN5Catch8TextFlow18AnsiSkippingString14const_iteratorC2ERKNSt7__cxx1112basic_stringIcSt11char_traitsIcESaIcEEENS2_6EndTagE
FNDA:0,_ZN5Catch8TextFlow18AnsiSkippingString14const_iteratorC2ERKNSt7__cxx1112basic_stringIcSt11char_traitsIcESaIcEEE
FNDA:0,_ZNK5Catch8TextFlow18AnsiSkippingString14const_iteratordeEv
FNDA:0,_ZN5Catch8TextFlow18AnsiSkippingString14const_iteratorppEv
FNDA:0,_ZN5Catch8TextFlow18AnsiSkippingString14const_iteratorppEi
FNDA:0,_ZN5Catch8TextFlow18AnsiSkippingString14const_iteratormmEv
FNDA:0,_ZNK5Catch8TextFlow18AnsiSkippingString14const_iteratoreqERKS2_
FNDA:0,_ZNK5Catch8TextFlow18AnsiSkippingString14const_iteratorneERKS2_
FNDA:0,_ZNK5Catch8TextFlow18AnsiSkippingString14const_iteratorleERKS2_
FNDA:0,_ZNK5Catch8TextFlow18AnsiSkippingString14const_iterator9oneBeforeEv
FNDA:0,_ZN5Catch8TextFlow6Column14const_iteratorC2ERKS1_NS2_6EndTagE
FNDA:0,_ZNK5Catch8TextFlow6Column14const_iteratoreqERKS2_
FNDA:0,_ZNK5Catch8TextFlow6Column14const_iteratorneERKS2_
FNDA:0,_ZN5Catch8TextFlow6ColumnC2ERKNSt7__cxx1112basic_stringIcSt11char_traitsIcESaIcEEE
FNDA:0,_ZN5Catch8TextFlow6ColumnC2EONSt7__cxx1112basic_stringIcSt11char_traitsIcESaIcEEE
FNDA:0,_ZNR5Catch8TextFlow6Column5widthEm
FNDA:0,_ZNO5Catch8TextFlow6Column5widthEm
FNDA:0,_ZNO5Catch8TextFlow6Column6indentEm
FNDA:0,_ZNO5Catch8TextFlow6Column13initialIndentEm
FNDA:0,_ZNK5Catch8TextFlow6Column5widthEv
FNDA:0,_ZNK5Catch8TextFlow6Column5beginEv
FNDA:0,_ZNK5Catch8TextFlow6Column3endEv
FNDA:0,_ZNK5Catch8TextFlow7Columns8iteratorneERKS2_
FNDA:0,_ZNK5Catch8TextFlow7Columns5beginEv
FNDA:0,_ZNK5Catch8TextFlow7Columns3endEv
FNDA:0,_ZN5CatchorENS_13XmlFormattingES0_
FNDA:0,_ZN5CatchanENS_13XmlFormattingES0_
FNDA:0,_ZN5Catch9XmlEncodeC2ENS_9StringRefENS0_7ForWhatE
FNDA:0,_ZN5Catch9XmlWriter13ScopedElement14writeAttributeINS_8TestSpecEvEERS1_NS_9StringRefERKT_
FNDA:0,_ZN5Catch9XmlWriter13ScopedElement14writeAttributeIbvEERS1_NS_9StringRefERKT_
FNDA:0,_ZN5Catch9XmlWriter13ScopedElement14writeAttributeIdvEERS1_NS_9StringRefERKT_
FNDA:0,_ZN5Catch9XmlWriter13ScopedElement14writeAttributeIivEERS1_NS_9StringRefERKT_
FNDA:0,_ZN5Catch9XmlWriter13ScopedElement14writeAttributeIjvEERS1_NS_9StringRefERKT_
FNDA:0,_ZN5Catch9XmlWriter13ScopedElement14writeAttributeImvEERS1_NS_9StringRefERKT_
FNDA:0,_ZN5Catch9XmlWriter14writeAttributeINS_7VersionEvEERS0_NS_9StringRefERKT_
FNDA:0,_ZN5Catch9XmlWriter14writeAttributeINS_8TestSpecEvEERS0_NS_9StringRefERKT_
FNDA:0,_ZN5Catch9XmlWriter14writeAttributeIcvEERS0_NS_9StringRefERKT_
FNDA:0,_ZN5Catch9XmlWriter14writeAttributeIdvEERS0_NS_9StringRefERKT_
FNDA:0,_ZN5Catch9XmlWriter14writeAttributeIivEERS0_NS_9StringRefERKT_
FNDA:0,_ZN5Catch9XmlWriter14writeAttributeIjvEERS0_NS_9StringRefERKT_
FNDA:0,_ZN5Catch9XmlWriter14writeAttributeIlvEERS0_NS_9StringRefERKT_
FNDA:0,_ZN5Catch9XmlWriter14writeAttributeImvEERS0_NS_9StringRefERKT_
FNDA:0,_ZN5Catch9MatchExprINSt7__cxx1112basic_stringIcSt11char_traitsIcESaIcEEERKNS_8Matchers11MatcherBaseIS6_EEEC2EOS6_SB_
FNDA:0,_ZNK5Catch9MatchExprINSt7__cxx1112basic_stringIcSt11char_traitsIcESaIcEEERKNS_8Matchers11MatcherBaseIS6_EEE29streamReconstructedExpressionERSo
FNDA:0,_ZN5Catch8Matchers18MatcherUntypedBaseC2Ev
FNDA:0,_ZN5Catch8Matchers18MatcherGenericBaseC2Ev
FNDA:0,_ZN5Catch8Matchers14HasSizeMatcherC2Em
FNDA:0,_ZN5Catch8Matchers23ExceptionMessageMatcherC2ERKNSt7__cxx1112basic_stringIcSt11char_traitsIcESaIcEEE
FNDA:0,_ZN5Catch8Matchers12IsNaNMatcherC2Ev
FNDA:1,_ZN5Catch21StreamingReporterBaseC2EONS_14ReporterConfigE
FNDA:0,_ZN5Catch21StreamingReporterBase18benchmarkPreparingENS_9StringRefE
FNDA:0,_ZN5Catch21StreamingReporterBase17benchmarkStartingERKNS_13BenchmarkInfoE
FNDA:0,_ZN5Catch21StreamingReporterBase14benchmarkEndedERKNS_14BenchmarkStatsINSt6chrono8durationIdSt5ratioILl1ELl1000000000EEEEEE
FNDA:0,_ZN5Catch21StreamingReporterBase15benchmarkFailedENS_9StringRefE
FNDA:0,_ZN5Catch21StreamingReporterBase21fatalErrorEncounteredENS_9StringRefE
FNDA:0,_ZN5Catch21StreamingReporterBase19noMatchingTestCasesENS_9StringRefE
FNDA:0,_ZN5Catch21StreamingReporterBase21reportInvalidTestSpecENS_9StringRefE
FNDA:118,_ZN5Catch21StreamingReporterBase16testCaseStartingERKNS_12TestCaseInfoE
FNDA:168,_ZN5Catch21StreamingReporterBase23testCasePartialStartingERKNS_12TestCaseInfoEm
FNDA:239,_ZN5Catch21StreamingReporterBase15sectionStartingERKNS_11SectionInfoE
FNDA:0,_ZN5Catch21StreamingReporterBase17assertionStartingERKNS_13AssertionInfoE
FNDA:0,_ZN5Catch21StreamingReporterBase14assertionEndedERKNS_14AssertionStatsE
FNDA:239,_ZN5Catch21StreamingReporterBase12sectionEndedERKNS_12SectionStatsE
FNDA:168,_ZN5Catch21StreamingReporterBase20testCasePartialEndedERKNS_13TestCaseStatsEm
FNDA:118,_ZN5Catch21StreamingReporterBase13testCaseEndedERKNS_13TestCaseStatsE
FNDA:0,_ZN5Catch21StreamingReporterBase8skipTestERKNS_12TestCaseInfoE
FNDA:0,_ZN5Catch16AutomakeReporterC2EONS_14ReporterConfigE
FNDA:0,_ZN5Catch16AutomakeReporter14getDescriptionB5cxx11Ev
FNDA:0,_ZN5Catch15CompactReporterC2EONS_14ReporterConfigE
FNDA:0,_ZN5Catch22CumulativeReporterBase4NodeINS_12TestRunStatsENS1_INS_13TestCaseStatsENS0_11SectionNodeEEEEC2ERKS2_
FNDA:0,_ZN5Catch22CumulativeReporterBase4NodeINS_13TestCaseStatsENS0_11SectionNodeEEC2ERKS2_
FNDA:0,_ZN5Catch22CumulativeReporterBase11SectionNodeC2ERKNS_12SectionStatsE
FNDA:0,_ZN5Catch22CumulativeReporterBaseC2EONS_14ReporterConfigE
FNDA:0,_ZN5Catch22CumulativeReporterBase18benchmarkPreparingENS_9StringRefE
FNDA:0,_ZN5Catch22CumulativeReporterBase17benchmarkStartingERKNS_13BenchmarkInfoE
FNDA:0,_ZN5Catch22CumulativeReporterBase15benchmarkFailedENS_9StringRefE
FNDA:0,_ZN5Catch22CumulativeReporterBase19noMatchingTestCasesENS_9StringRefE
FNDA:0,_ZN5Catch22CumulativeReporterBase21reportInvalidTestSpecENS_9StringRefE
FNDA:0,_ZN5Catch22CumulativeReporterBase21fatalErrorEncounteredENS_9StringRefE
FNDA:0,_ZN5Catch22CumulativeReporterBase15testRunStartingERKNS_11TestRunInfoE
FNDA:0,_ZN5Catch22CumulativeReporterBase16testCaseStartingERKNS_12TestCaseInfoE
FNDA:0,_ZN5Catch22CumulativeReporterBase23testCasePartialStartingERKNS_12TestCaseInfoEm
FNDA:0,_ZN5Catch22CumulativeReporterBase17assertionStartingERKNS_13AssertionInfoE
FNDA:0,_ZN5Catch22CumulativeReporterBase20testCasePartialEndedERKNS_13TestCaseStatsEm
FNDA:0,_ZN5Catch22CumulativeReporterBase8skipTestERKNS_12TestCaseInfoE
FNDA:0,_ZN5Catch11lineOfCharsC2Ec
FNDA:0,_ZN5Catch13MultiReporterC2EPKNS_7IConfigE
FNDA:0,_ZNK5Catch15ReporterFactoryINS_11TAPReporterEE6createEONS_14ReporterConfigE
FNDA:0,_ZNK5Catch15ReporterFactoryINS_11XmlReporterEE6createEONS_14ReporterConfigE
FNDA:0,_ZNK5Catch15ReporterFactoryINS_12JsonReporterEE6createEONS_14ReporterConfigE
FNDA:0,_ZNK5Catch15ReporterFactoryINS_13JunitReporterEE6createEONS_14ReporterConfigE
FNDA:0,_ZNK5Catch15ReporterFactoryINS_15CompactReporterEE6createEONS_14ReporterConfigE
FNDA:1,_ZNK5Catch15ReporterFactoryINS_15ConsoleReporterEE6createEONS_14ReporterConfigE
FNDA:0,_ZNK5Catch15ReporterFactoryINS_16AutomakeReporterEE6createEONS_14ReporterConfigE
FNDA:0,_ZNK5Catch15ReporterFactoryINS_16TeamCityReporterEE6createEONS_14ReporterConfigE
FNDA:0,_ZNK5Catch15ReporterFactoryINS_17SonarQubeReporterEE6createEONS_14ReporterConfigE
FNDA:0,_ZNK5Catch15ReporterFactoryINS_11TAPReporterEE14getDescriptionB5cxx11Ev
FNDA:0,_ZNK5Catch15ReporterFactoryINS_11XmlReporterEE14getDescriptionB5cxx11Ev
FNDA:0,_ZNK5Catch15ReporterFactoryINS_12JsonReporterEE14getDescriptionB5cxx11Ev
FNDA:0,_ZNK5Catch15ReporterFactoryINS_13JunitReporterEE14getDescriptionB5cxx11Ev
FNDA:0,_ZNK5Catch15ReporterFactoryINS_15CompactReporterEE14getDescriptionB5cxx11Ev
FNDA:0,_ZNK5Catch15ReporterFactoryINS_15ConsoleReporterEE14getDescriptionB5cxx11Ev
FNDA:0,_ZNK5Catch15ReporterFactoryINS_16AutomakeReporterEE14getDescriptionB5cxx11Ev
FNDA:0,_ZNK5Catch15ReporterFactoryINS_16TeamCityReporterEE14getDescriptionB5cxx11Ev
FNDA:0,_ZNK5Catch15ReporterFactoryINS_17SonarQubeReporterEE14getDescriptionB5cxx11Ev
FNDA:0,_ZN5Catch17SonarQubeReporterC2EONS_14ReporterConfigE
FNDA:0,_ZN5Catch17SonarQubeReporter14getDescriptionB5cxx11Ev
FNDA:0,_ZN5Catch17SonarQubeReporter22testRunEndedCumulativeEv
FNDA:0,_ZN5Catch11TAPReporterC2EONS_14ReporterConfigE
FNDA:0,_ZN5Catch11TAPReporter14getDescriptionB5cxx11Ev
FNDA:0,_ZN5Catch16TeamCityReporterC2EONS_14ReporterConfigE
FNDA:0,_ZN5Catch16TeamCityReporter14getDescriptionB5cxx11Ev
FNDA:0,_ZN5Catch16TeamCityReporter15sectionStartingERKNS_11SectionInfoE
FNDA:0,_ZN5Catch9Benchmark11keep_memoryEv
FNDA:0,_ZN5Catch9Benchmark6Detail17optimizer_barrierEv
FNDA:0,_ZN5Catch9Benchmark18invoke_deoptimizedIRZNS0_11Chronometer7measureIRKNS0_6Detail10do_nothingEEEvOT_St17integral_constantIbLb0EEEUliE_JRiEEENSt9enable_ifIXsrSt7is_sameIvDTclfp_spfp0_EEE5valueEvE4typeES9_DpOT0_
FNDA:0,_ZN5Catch9Benchmark11Chronometer7measureIRKNS0_6Detail10do_nothingEEEvOT_
FNDA:0,_ZN5Catch9Benchmark11Chronometer7measureIRKNS0_6Detail10do_nothingEEEvOT_St17integral_constantIbLb0EE
FNDA:0,_ZZN5Catch9Benchmark11Chronometer7measureIRKNS0_6Detail10do_nothingEEEvOT_St17integral_constantIbLb0EEENKUliE_clEi
FNDA:0,_ZN5Catch9Benchmark11Chronometer7measureIZNS1_7measureIRKNS0_6Detail10do_nothingEEEvOT_St17integral_constantIbLb0EEEUliE_EEvS9_SA_IbLb1EE
FNDA:0,_ZN5Catch9Benchmark6Detail17BenchmarkFunction8callableC2Ev
FNDA:0,_ZN5Catch9Benchmark6Detail17BenchmarkFunction5modelINS1_10do_nothingEEC2EOS4_
FNDA:0,_ZNK5Catch9Benchmark6Detail17BenchmarkFunction5modelINS1_10do_nothingEE4callENS0_11ChronometerE
FNDA:0,_ZNK5Catch9Benchmark6Detail17BenchmarkFunction5modelINS1_10do_nothingEE4callENS0_11ChronometerESt17integral_constantIbLb0EE
FNDA:0,_ZN5Catch20ReusableStringStreamlsIA10_cEERS0_RKT_
FNDA:0,_ZN5Catch20ReusableStringStreamlsIA12_cEERS0_RKT_
FNDA:0,_ZN5Catch20ReusableStringStreamlsIA13_cEERS0_RKT_
FNDA:0,_ZN5Catch20ReusableStringStreamlsIA14_cEERS0_RKT_
FNDA:0,_ZN5Catch20ReusableStringStreamlsIA15_cEERS0_RKT_
FNDA:0,_ZN5Catch20ReusableStringStreamlsIA16_cEERS0_RKT_
FNDA:0,_ZN5Catch20ReusableStringStreamlsIA17_cEERS0_RKT_
FNDA:0,_ZN5Catch20ReusableStringStreamlsIA18_cEERS0_RKT_
FNDA:0,_ZN5Catch20ReusableStringStreamlsIA19_cEERS0_RKT_
FNDA:0,_ZN5Catch20ReusableStringStreamlsIA20_cEERS0_RKT_
FNDA:0,_ZN5Catch20ReusableStringStreamlsIA21_cEERS0_RKT_
FNDA:0,_ZN5Catch20ReusableStringStreamlsIA22_cEERS0_RKT_
FNDA:0,_ZN5Catch20ReusableStringStreamlsIA23_cEERS0_RKT_
FNDA:0,_ZN5Catch20ReusableStringStreamlsIA25_cEERS0_RKT_
FNDA:0,_ZN5Catch20ReusableStringStreamlsIA26_cEERS0_RKT_
FNDA:0,_ZN5Catch20ReusableStringStreamlsIA27_cEERS0_RKT_
FNDA:0,_ZN5Catch20ReusableStringStreamlsIA2_cEERS0_RKT_
FNDA:0,_ZN5Catch20ReusableStringStreamlsIA32_cEERS0_RKT_
FNDA:0,_ZN5Catch20ReusableStringStreamlsIA36_cEERS0_RKT_
FNDA:0,_ZN5Catch20ReusableStringStreamlsIA37_cEERS0_RKT_
FNDA:0,_ZN5Catch20ReusableStringStreamlsIA39_cEERS0_RKT_
FNDA:0,_ZN5Catch20ReusableStringStreamlsIA3_cEERS0_RKT_
FNDA:0,_ZN5Catch20ReusableStringStreamlsIA40_cEERS0_RKT_
FNDA:0,_ZN5Catch20ReusableStringStreamlsIA41_cEERS0_RKT_
FNDA:0,_ZN5Catch20ReusableStringStreamlsIA42_cEERS0_RKT_
FNDA:0,_ZN5Catch20ReusableStringStreamlsIA44_cEERS0_RKT_
FNDA:0,_ZN5Catch20ReusableStringStreamlsIA47_cEERS0_RKT_
FNDA:0,_ZN5Catch20ReusableStringStreamlsIA49_cEERS0_RKT_
FNDA:0,_ZN5Catch20ReusableStringStreamlsIA4_cEERS0_RKT_
FNDA:0,_ZN5Catch20ReusableStringStreamlsIA50_cEERS0_RKT_
FNDA:0,_ZN5Catch20ReusableStringStreamlsIA51_cEERS0_RKT_
FNDA:0,_ZN5Catch20ReusableStringStreamlsIA52_cEERS0_RKT_
FNDA:0,_ZN5Catch20ReusableStringStreamlsIA53_cEERS0_RKT_
FNDA:0,_ZN5Catch20ReusableStringStreamlsIA57_cEERS0_RKT_
FNDA:0,_ZN5Catch20ReusableStringStreamlsIA59_cEERS0_RKT_
FNDA:0,_ZN5Catch20ReusableStringStreamlsIA5_cEERS0_RKT_
FNDA:0,_ZN5Catch20ReusableStringStreamlsIA65_cEERS0_RKT_
FNDA:0,_ZN5Catch20ReusableStringStreamlsIA66_cEERS0_RKT_
FNDA:0,_ZN5Catch20ReusableStringStreamlsIA6_cEERS0_RKT_
FNDA:0,_ZN5Catch20ReusableStringStreamlsIA7_cEERS0_RKT_
FNDA:0,_ZN5Catch20ReusableStringStreamlsIA9_cEERS0_RKT_
FNDA:0,_ZN5Catch20ReusableStringStreamlsIFRSt8ios_baseS3_EEERS0_RKT_
FNDA:0,_ZN5Catch20ReusableStringStreamlsINS_12_GLOBAL__N_18DurationEEERS0_RKT_
FNDA:0,_ZN5Catch20ReusableStringStreamlsINS_14LazyExpressionEEERS0_RKT_
FNDA:0,_ZN5Catch20ReusableStringStreamlsINS_14SourceLineInfoEEERS0_RKT_
FNDA:0,_ZN5Catch20ReusableStringStreamlsINS_16TestCaseTracking8ITracker10CycleStateEEERS0_RKT_
FNDA:0,_ZN5Catch20ReusableStringStreamlsINS_7VersionEEERS0_RKT_
FNDA:0,_ZN5Catch20ReusableStringStreamlsINS_8TestSpec6FilterEEERS0_RKT_
FNDA:0,_ZN5Catch20ReusableStringStreamlsINS_8TestSpecEEERS0_RKT_
FNDA:0,_ZN5Catch20ReusableStringStreamlsINS_8TextFlow6ColumnEEERS0_RKT_
FNDA:0,_ZN5Catch20ReusableStringStreamlsINS_9StringRefEEERS0_RKT_
FNDA:0,_ZN5Catch20ReusableStringStreamlsINSt7__cxx1112basic_stringIcSt11char_traitsIcESaIcEEEEERS0_RKT_
FNDA:0,_ZN5Catch20ReusableStringStreamlsIPKcEERS0_RKT_
FNDA:0,_ZN5Catch20ReusableStringStreamlsISt13_SetprecisionEERS0_RKT_
FNDA:0,_ZN5Catch20ReusableStringStreamlsISt5_SetwEERS0_RKT_
FNDA:0,_ZN5Catch20ReusableStringStreamlsISt8_SetfillIcEEERS0_RKT_
FNDA:0,_ZN5Catch20ReusableStringStreamlsIcEERS0_RKT_
FNDA:0,_ZN5Catch20ReusableStringStreamlsIdEERS0_RKT_
FNDA:0,_ZN5Catch20ReusableStringStreamlsIeEERS0_RKT_
FNDA:0,_ZN5Catch20ReusableStringStreamlsIfEERS0_RKT_
FNDA:0,_ZN5Catch20ReusableStringStreamlsIiEERS0_RKT_
FNDA:0,_ZN5Catch20ReusableStringStreamlsIjEERS0_RKT_
FNDA:0,_ZN5Catch20ReusableStringStreamlsIlEERS0_RKT_
FNDA:0,_ZN5Catch20ReusableStringStreamlsImEERS0_RKT_
FNDA:0,_ZN5Catch20ReusableStringStreamlsIxEERS0_RKT_
FNDA:0,_ZN5Catch20ReusableStringStreamlsIyEERS0_RKT_
FNDA:0,_ZN5Catch20ReusableStringStream3getEv
FNDA:0,_ZN5Catch11StringMakerINS_14SourceLineInfoEvE7convertIS1_EENSt9enable_ifIX20IsStreamInsertable_vIT_EENSt7__cxx1112basic_stringIcSt11char_traitsIcESaIcEEEE4typeERKS5_
FNDA:0,_ZN5Catch11StringMakerIevE7convertIeEENSt9enable_ifIX20IsStreamInsertable_vIT_EENSt7__cxx1112basic_stringIcSt11char_traitsIcESaIcEEEE4typeERKS4_
FNDA:0,_ZN5Catch6Detail9stringifyINS_14SourceLineInfoEEENSt7__cxx1112basic_stringIcSt11char_traitsIcESaIcEEERKT_
FNDA:0,_ZN5Catch6Detail9stringifyINSt7__cxx1112basic_stringIcSt11char_traitsIcESaIcEEEEES7_RKT_
FNDA:0,_ZN5Catch6Detail9stringifyINSt7__cxx1112basic_stringIwSt11char_traitsIwESaIwEEEEENS3_IcS4_IcESaIcEEERKT_
FNDA:0,_ZN5Catch6Detail9stringifyIaEENSt7__cxx1112basic_stringIcSt11char_traitsIcESaIcEEERKT_
FNDA:0,_ZN5Catch6Detail9stringifyIcEENSt7__cxx1112basic_stringIcSt11char_traitsIcESaIcEEERKT_
FNDA:0,_ZN5Catch6Detail9stringifyIdEENSt7__cxx1112basic_stringIcSt11char_traitsIcESaIcEEERKT_
FNDA:0,_ZN5Catch6Detail9stringifyIeEENSt7__cxx1112basic_stringIcSt11char_traitsIcESaIcEEERKT_
FNDA:0,_ZN5Catch6Detail9stringifyIjEENSt7__cxx1112basic_stringIcSt11char_traitsIcESaIcEEERKT_
FNDA:0,_ZN5Catch6Detail9stringifyIxEENSt7__cxx1112basic_stringIcSt11char_traitsIcESaIcEEERKT_
FNDA:0,_ZN5Catch6Detail9stringifyIyEENSt7__cxx1112basic_stringIcSt11char_traitsIcESaIcEEERKT_
FNDA:0,_ZN5Catch6ApproxC2IevEERKT_
FNDA:0,_ZN5Catch6ApproxC2IivEERKT_
FNDA:0,_ZN5Catch6ApproxC2IyvEERKT_
FNDA:0,_ZN5Catch14SourceLineInfoC2EPKcm
FNDA:30,_ZN5Catch14LazyExpressionC2Eb
FNDA:0,_ZNK5Catch14LazyExpressioncvbEv
FNDA:0,_ZN5CatchlsERSoRKNS_8TestSpec7PatternE
FNDA:0,_ZN5CatchlsERSoRKNS_8TestSpec6FilterE
FNDA:0,_ZN5CatchlsERSoRKNS_8TestSpecE
FNDA:1,_ZN5Catch8OptionalINS_10ColourModeEEC2Ev
FNDA:0,_ZN5Catch8OptionalINS_12ReporterSpecEEC2Ev
FNDA:0,_ZN5Catch8OptionalINS_12_GLOBAL__N_120bazelShardingOptionsEEC2Ev
FNDA:0,_ZN5Catch8OptionalINS_14AssertionStatsEEC2Ev
FNDA:0,_ZN5Catch8OptionalINS_14BenchmarkStatsINSt6chrono8durationIdSt5ratioILl1ELl1000000000EEEEEEEC2Ev
FNDA:1,_ZN5Catch8OptionalINS_15AssertionResultEEC2Ev
FNDA:1,_ZN5Catch8OptionalINSt7__cxx1112basic_stringIcSt11char_traitsIcESaIcEEEEC2Ev
FNDA:0,_ZN5Catch8OptionalIjEC2Ev
FNDA:5,_ZN5Catch8OptionalINS_10ColourModeEED2Ev
FNDA:1,_ZN5Catch8OptionalINS_12ReporterSpecEED2Ev
FNDA:0,_ZN5Catch8OptionalINS_12_GLOBAL__N_120bazelShardingOptionsEED2Ev
FNDA:0,_ZN5Catch8OptionalINS_14AssertionStatsEED2Ev
FNDA:0,_ZN5Catch8OptionalINS_14BenchmarkStatsINSt6chrono8durationIdSt5ratioILl1ELl1000000000EEEEEEED2Ev
FNDA:1,_ZN5Catch8OptionalINS_15AssertionResultEED2Ev
FNDA:5,_ZN5Catch8OptionalINSt7__cxx1112basic_stringIcSt11char_traitsIcESaIcEEEED2Ev
FNDA:0,_ZN5Catch8OptionalIjED2Ev
FNDA:0,_ZN5Catch8OptionalINS_14AssertionStatsEEC2ERKS1_
FNDA:0,_ZN5Catch8OptionalINS_14BenchmarkStatsINSt6chrono8durationIdSt5ratioILl1ELl1000000000EEEEEEEC2ERKS7_
FNDA:0,_ZN5Catch8OptionalINS_10ColourModeEEC2EOS1_
FNDA:1,_ZN5Catch8OptionalINS_12ReporterSpecEEC2EOS1_
FNDA:0,_ZN5Catch8OptionalINS_12_GLOBAL__N_120bazelShardingOptionsEEC2EOS2_
FNDA:0,_ZN5Catch8OptionalINSt7__cxx1112basic_stringIcSt11char_traitsIcESaIcEEEEC2EOS6_
FNDA:0,_ZN5Catch8OptionalIjEC2EOj
FNDA:0,_ZN5Catch8OptionalINS_15AssertionResultEEaSEOS1_
FNDA:0,_ZN5Catch8OptionalINSt7__cxx1112basic_stringIcSt11char_traitsIcESaIcEEEEaSEOS6_
FNDA:0,_ZN5Catch8OptionalINS_10ColourModeEEC2ERKS2_
FNDA:0,_ZN5Catch8OptionalINS_14AssertionStatsEEC2ERKS2_
FNDA:0,_ZN5Catch8OptionalINS_14BenchmarkStatsINSt6chrono8durationIdSt5ratioILl1ELl1000000000EEEEEEEC2ERKS8_
FNDA:0,_ZN5Catch8OptionalINSt7__cxx1112basic_stringIcSt11char_traitsIcESaIcEEEEC2ERKS7_
FNDA:4,_ZN5Catch8OptionalINS_10ColourModeEEC2EOS2_
FNDA:4,_ZN5Catch8OptionalINSt7__cxx1112basic_stringIcSt11char_traitsIcESaIcEEEEC2EOS7_
FNDA:0,_ZN5Catch8OptionalINS_10ColourModeEEaSERKS2_
FNDA:0,_ZN5Catch8OptionalINSt7__cxx1112basic_stringIcSt11char_traitsIcESaIcEEEEaSERKS7_
FNDA:0,_ZN5Catch8OptionalINS_10ColourModeEEaSEOS2_
FNDA:5,_ZN5Catch8OptionalINS_10ColourModeEE5resetEv
FNDA:1,_ZN5Catch8OptionalINS_12ReporterSpecEE5resetEv
FNDA:0,_ZN5Catch8OptionalINS_12_GLOBAL__N_120bazelShardingOptionsEE5resetEv
FNDA:0,_ZN5Catch8OptionalINS_14AssertionStatsEE5resetEv
FNDA:0,_ZN5Catch8OptionalINS_14BenchmarkStatsINSt6chrono8durationIdSt5ratioILl1ELl1000000000EEEEEEE5resetEv
FNDA:1,_ZN5Catch8OptionalINS_15AssertionResultEE5resetEv
FNDA:5,_ZN5Catch8OptionalINSt7__cxx1112basic_stringIcSt11char_traitsIcESaIcEEEE5resetEv
FNDA:0,_ZN5Catch8OptionalIjE5resetEv
FNDA:0,_ZN5Catch8OptionalINS_10ColourModeEEdeEv
FNDA:1,_ZN5Catch8OptionalINS_12ReporterSpecEEdeEv
FNDA:0,_ZN5Catch8OptionalINSt7__cxx1112basic_stringIcSt11char_traitsIcESaIcEEEEdeEv
FNDA:0,_ZN5Catch8OptionalIjEdeEv
FNDA:0,_ZNK5Catch8OptionalINS_10ColourModeEEdeEv
FNDA:0,_ZNK5Catch8OptionalINS_14AssertionStatsEEdeEv
FNDA:0,_ZNK5Catch8OptionalINS_14BenchmarkStatsINSt6chrono8durationIdSt5ratioILl1ELl1000000000EEEEEEEdeEv
FNDA:0,_ZNK5Catch8OptionalINS_15AssertionResultEEdeEv
FNDA:0,_ZNK5Catch8OptionalINSt7__cxx1112basic_stringIcSt11char_traitsIcESaIcEEEEdeEv
FNDA:0,_ZNK5Catch8OptionalINS_12_GLOBAL__N_120bazelShardingOptionsEEptEv
FNDA:1,_ZNK5Catch8OptionalINS_10ColourModeEE7valueOrERKS1_
FNDA:4,_ZNK5Catch8OptionalINS_10ColourModeEE4someEv
FNDA:0,_ZNK5Catch8OptionalINS_12_GLOBAL__N_120bazelShardingOptionsEE4someEv
FNDA:0,_ZNK5Catch8OptionalINS_14AssertionStatsEE4someEv
FNDA:0,_ZNK5Catch8OptionalINS_14BenchmarkStatsINSt6chrono8durationIdSt5ratioILl1ELl1000000000EEEEEEE4someEv
FNDA:5,_ZNK5Catch8OptionalINSt7__cxx1112basic_stringIcSt11char_traitsIcESaIcEEEE4someEv
FNDA:0,_ZNK5Catch8OptionalINS_10ColourModeEE4noneEv
FNDA:1,_ZNK5Catch8OptionalINSt7__cxx1112basic_stringIcSt11char_traitsIcESaIcEEEE4noneEv
FNDA:0,_ZNK5Catch8OptionalINS_10ColourModeEEntEv
FNDA:1,_ZNK5Catch8OptionalINS_12ReporterSpecEEntEv
FNDA:0,_ZNK5Catch8OptionalIjEntEv
FNDA:4,_ZNK5Catch8OptionalINS_10ColourModeEEcvbEv
FNDA:0,_ZNK5Catch8OptionalINS_12_GLOBAL__N_120bazelShardingOptionsEEcvbEv
FNDA:0,_ZNK5Catch8OptionalINS_14AssertionStatsEEcvbEv
FNDA:0,_ZNK5Catch8OptionalINS_14BenchmarkStatsINSt6chrono8durationIdSt5ratioILl1ELl1000000000EEEEEEEcvbEv
FNDA:5,_ZNK5Catch8OptionalINSt7__cxx1112basic_stringIcSt11char_traitsIcESaIcEEEEcvbEv
FNDA:0,_ZN5CatcheqERKNS_8OptionalINS_10ColourModeEEES4_
FNDA:0,_ZN5CatcheqERKNS_8OptionalINSt7__cxx1112basic_stringIcSt11char_traitsIcESaIcEEEEES9_
FNDA:1,_ZNK5Catch12ReporterSpec4nameB5cxx11Ev
FNDA:2,_ZNK5Catch12ReporterSpec10outputFileB5cxx11Ev
FNDA:1,_ZNK5Catch12ReporterSpec10colourModeEv
FNDA:1,_ZNK5Catch12ReporterSpec13customOptionsB5cxx11Ev
FNDA:0,_ZN5Catch14MessageBuilderC2ENS_9StringRefERKNS_14SourceLineInfoENS_9ResultWas6OfTypeE
FNDA:518,_ZN5Catch11SectionInfoC2ERKNS_14SourceLineInfoENSt7__cxx1112basic_stringIcSt11char_traitsIcESaIcEEEPKc
FNDA:1,_ZNK5Catch5Clara6Detail11TokenStreamcvbEv
FNDA:0,_ZNK5Catch5Clara6Detail11TokenStreamdeEv
FNDA:0,_ZNK5Catch5Clara6Detail11TokenStreamptEv
FNDA:2,_ZN5Catch5Clara6Detail10ResultBaseC2ENS1_10ResultTypeE
FNDA:1,_ZN5Catch5Clara6Detail10ResultBaseC2ERKS2_
FNDA:0,_ZN5Catch5Clara6Detail10ResultBaseaSERKS2_
FNDA:0,_ZN5Catch5Clara6Detail10ResultBaseC2EOS2_
FNDA:0,_ZNKR5Catch5Clara6Detail15ResultValueBaseINS0_15ParseResultTypeEE5valueEv
FNDA:1,_ZNKR5Catch5Clara6Detail15ResultValueBaseINS1_10ParseStateEE5valueEv
FNDA:0,_ZNO5Catch5Clara6Detail15ResultValueBaseINS1_10ParseStateEE5valueEv
FNDA:0,_ZN5Catch5Clara6Detail15ResultValueBaseINS0_15ParseResultTypeEEC2ENS1_10ResultTypeE
FNDA:0,_ZN5Catch5Clara6Detail15ResultValueBaseINS1_10ParseStateEEC2ENS1_10ResultTypeE
FNDA:0,_ZN5Catch5Clara6Detail15ResultValueBaseINS0_15ParseResultTypeEEC2ERKS4_
FNDA:1,_ZN5Catch5Clara6Detail15ResultValueBaseINS1_10ParseStateEEC2EOS4_
FNDA:1,_ZN5Catch5Clara6Detail15ResultValueBaseINS0_15ParseResultTypeEEC2ENS1_10ResultTypeEOS3_
FNDA:1,_ZN5Catch5Clara6Detail15ResultValueBaseINS1_10ParseStateEEC2ENS1_10ResultTypeEOS3_
FNDA:0,_ZN5Catch5Clara6Detail15ResultValueBaseINS1_10ParseStateEEaSEOS4_
FNDA:0,_ZN5Catch5Clara6Detail15ResultValueBaseINS0_15ParseResultTypeEED0Ev
FNDA:1,_ZN5Catch5Clara6Detail15ResultValueBaseINS0_15ParseResultTypeEED2Ev
FNDA:0,_ZN5Catch5Clara6Detail15ResultValueBaseINS1_10ParseStateEED0Ev
FNDA:2,_ZN5Catch5Clara6Detail15ResultValueBaseINS1_10ParseStateEED2Ev
FNDA:0,_ZN5Catch5Clara6Detail11BasicResultINS1_10ParseStateEEC2INS0_15ParseResultTypeEEERKNS2_IT_EE
FNDA:0,_ZN5Catch5Clara6Detail11BasicResultINS1_10ParseStateEEC2IvEERKNS2_IT_EE
FNDA:1,_ZN5Catch5Clara6Detail11BasicResultINS0_15ParseResultTypeEE2okIS3_EES4_OT_
FNDA:1,_ZN5Catch5Clara6Detail11BasicResultINS1_10ParseStateEE2okIS3_EES4_OT_
FNDA:0,_ZN5Catch5Clara6Detail11BasicResultIvE2okEv
FNDA:0,_ZN5Catch5Clara6Detail11BasicResultIvE10logicErrorEONSt7__cxx1112basic_stringIcSt11char_traitsIcESaIcEEE
FNDA:0,_ZN5Catch5Clara6Detail11BasicResultINS0_15ParseResultTypeEE12runtimeErrorEONSt7__cxx1112basic_stringIcSt11char_traitsIcESaIcEEE
FNDA:0,_ZN5Catch5Clara6Detail11BasicResultINS1_10ParseStateEE12runtimeErrorEONSt7__cxx1112basic_stringIcSt11char_traitsIcESaIcEEE
FNDA:0,_ZNK5Catch5Clara6Detail11BasicResultINS0_15ParseResultTypeEEcvbEv
FNDA:1,_ZNK5Catch5Clara6Detail11BasicResultINS1_10ParseStateEEcvbEv
FNDA:0,_ZNK5Catch5Clara6Detail11BasicResultIvEcvbEv
FNDA:0,_ZNK5Catch5Clara6Detail11BasicResultINS0_15ParseResultTypeEE4typeEv
FNDA:0,_ZNK5Catch5Clara6Detail11BasicResultINS1_10ParseStateEE4typeEv
FNDA:0,_ZNK5Catch5Clara6Detail11BasicResultIvE4typeEv
FNDA:0,_ZNK5Catch5Clara6Detail11BasicResultINS0_15ParseResultTypeEE12errorMessageB5cxx11Ev
FNDA:0,_ZNK5Catch5Clara6Detail11BasicResultINS1_10ParseStateEE12errorMessageB5cxx11Ev
FNDA:0,_ZNK5Catch5Clara6Detail11BasicResultIvE12errorMessageB5cxx11Ev
FNDA:0,_ZNK5Catch5Clara6Detail11BasicResultINS0_15ParseResultTypeEE9enforceOkEv
FNDA:1,_ZNK5Catch5Clara6Detail11BasicResultINS1_10ParseStateEE9enforceOkEv
FNDA:0,_ZNK5Catch5Clara6Detail11BasicResultIvE9enforceOkEv
FNDA:0,_ZN5Catch5Clara6Detail11BasicResultINS0_15ParseResultTypeEEC2ENS1_10ResultTypeEONSt7__cxx1112basic_stringIcSt11char_traitsIcESaIcEEE
FNDA:0,_ZN5Catch5Clara6Detail11BasicResultINS1_10ParseStateEEC2ENS1_10ResultTypeEONSt7__cxx1112basic_stringIcSt11char_traitsIcESaIcEEE
FNDA:0,_ZN5Catch5Clara6Detail11BasicResultIvEC2ENS1_10ResultTypeEONSt7__cxx1112basic_stringIcSt11char_traitsIcESaIcEEE
FNDA:0,_ZNK5Catch5Clara6Detail10ParseState4typeEv
FNDA:1,_ZNKR5Catch5Clara6Detail10ParseState15remainingTokensEv
FNDA:0,_ZNO5Catch5Clara6Detail10ParseState15remainingTokensEv
FNDA:0,_ZN5Catch5Clara6Detail11convertIntoIdEENS1_11BasicResultINS0_15ParseResultTypeEEERKNSt7__cxx1112basic_stringIcSt11char_traitsIcESaIcEEERT_
FNDA:0,_ZN5Catch5Clara6Detail11convertIntoIiEENS1_11BasicResultINS0_15ParseResultTypeEEERKNSt7__cxx1112basic_stringIcSt11char_traitsIcESaIcEEERT_
FNDA:0,_ZN5Catch5Clara6Detail11convertIntoIjEENS1_11BasicResultINS0_15ParseResultTypeEEERKNSt7__cxx1112basic_stringIcSt11char_traitsIcESaIcEEERT_
FNDA:0,_ZN5Catch5Clara6Detail11convertIntoIlEENS1_11BasicResultINS0_15ParseResultTypeEEERKNSt7__cxx1112basic_stringIcSt11char_traitsIcESaIcEEERT_
FNDA:0,_ZN5Catch5Clara6Detail8BoundRefD0Ev
FNDA:38,_ZN5Catch5Clara6Detail8BoundRefD2Ev
FNDA:4,_ZN5Catch5Clara6Detail13BoundValueRefINSt7__cxx1112basic_stringIcSt11char_traitsIcESaIcEEEEC2ERS8_
FNDA:2,_ZN5Catch5Clara6Detail13BoundValueRefIdEC2ERd
FNDA:2,_ZN5Catch5Clara6Detail13BoundValueRefIjEC2ERj
FNDA:1,_ZN5Catch5Clara6Detail13BoundValueRefIlEC2ERl
FNDA:1,_ZN5Catch5Clara6Detail13BoundValueRefINSt7__cxx1112basic_stringIcSt11char_traitsIcESaIcEEEE8setValueERKS8_
FNDA:0,_ZN5Catch5Clara6Detail13BoundValueRefIdE8setValueERKNSt7__cxx1112basic_stringIcSt11char_traitsIcESaIcEEE
FNDA:0,_ZN5Catch5Clara6Detail13BoundValueRefIjE8setValueERKNSt7__cxx1112basic_stringIcSt11char_traitsIcESaIcEEE
FNDA:0,_ZN5Catch5Clara6Detail13BoundValueRefIlE8setValueERKNSt7__cxx1112basic_stringIcSt11char_traitsIcESaIcEEE
FNDA:2,_ZN5Catch5Clara6Detail13BoundValueRefISt6vectorINSt7__cxx1112basic_stringIcSt11char_traitsIcESaIcEEESaIS9_EEEC2ERSB_
FNDA:0,_ZNK5Catch5Clara6Detail13BoundValueRefISt6vectorINSt7__cxx1112basic_stringIcSt11char_traitsIcESaIcEEESaIS9_EEE11isContainerEv
FNDA:0,_ZN5Catch5Clara6Detail13BoundValueRefISt6vectorINSt7__cxx1112basic_stringIcSt11char_traitsIcESaIcEEESaIS9_EEE8setValueERKS9_
FNDA:13,_ZN5Catch5Clara6Detail12BoundFlagRefC2ERb
FNDA:0,_ZN5Catch5Clara6Detail13LambdaInvokerINS1_11BasicResultINS0_15ParseResultTypeEEEE6invokeIZNS0_4HelpC4ERbEUlbE_bEES5_RKT_RKT0_
FNDA:0,_ZN5Catch5Clara6Detail13LambdaInvokerINS1_11BasicResultINS0_15ParseResultTypeEEEE6invokeIZNS_21makeCommandLineParserERNS_10ConfigDataEEUlRKNSt7__cxx1112basic_stringIcSt11char_traitsIcESaIcEEEE0_SF_EES5_RKT_RKT0_
FNDA:0,_ZN5Catch5Clara6Detail13LambdaInvokerINS1_11BasicResultINS0_15ParseResultTypeEEEE6invokeIZNS_21makeCommandLineParserERNS_10ConfigDataEEUlRKNSt7__cxx1112basic_stringIcSt11char_traitsIcESaIcEEEE1_SF_EES5_RKT_RKT0_
FNDA:0,_ZN5Catch5Clara6Detail13LambdaInvokerINS1_11BasicResultINS0_15ParseResultTypeEEEE6invokeIZNS_21makeCommandLineParserERNS_10ConfigDataEEUlRKNSt7__cxx1112basic_stringIcSt11char_traitsIcESaIcEEEE2_SF_EES5_RKT_RKT0_
FNDA:0,_ZN5Catch5Clara6Detail13LambdaInvokerINS1_11BasicResultINS0_15ParseResultTypeEEEE6invokeIZNS_21makeCommandLineParserERNS_10ConfigDataEEUlRKNSt7__cxx1112basic_stringIcSt11char_traitsIcESaIcEEEE3_SF_EES5_RKT_RKT0_
FNDA:0,_ZN5Catch5Clara6Detail13LambdaInvokerINS1_11BasicResultINS0_15ParseResultTypeEEEE6invokeIZNS_21makeCommandLineParserERNS_10ConfigDataEEUlRKNSt7__cxx1112basic_stringIcSt11char_traitsIcESaIcEEEE4_SF_EES5_RKT_RKT0_
FNDA:0,_ZN5Catch5Clara6Detail13LambdaInvokerINS1_11BasicResultINS0_15ParseResultTypeEEEE6invokeIZNS_21makeCommandLineParserERNS_10ConfigDataEEUlRKNSt7__cxx1112basic_stringIcSt11char_traitsIcESaIcEEEE5_SF_EES5_RKT_RKT0_
FNDA:0,_ZN5Catch5Clara6Detail13LambdaInvokerINS1_11BasicResultINS0_15ParseResultTypeEEEE6invokeIZNS_21makeCommandLineParserERNS_10ConfigDataEEUlRKNSt7__cxx1112basic_stringIcSt11char_traitsIcESaIcEEEE6_SF_EES5_RKT_RKT0_
FNDA:0,_ZN5Catch5Clara6Detail13LambdaInvokerINS1_11BasicResultINS0_15ParseResultTypeEEEE6invokeIZNS_21makeCommandLineParserERNS_10ConfigDataEEUlRKNSt7__cxx1112basic_stringIcSt11char_traitsIcESaIcEEEE7_SF_EES5_RKT_RKT0_
FNDA:0,_ZN5Catch5Clara6Detail13LambdaInvokerINS1_11BasicResultINS0_15ParseResultTypeEEEE6invokeIZNS_21makeCommandLineParserERNS_10ConfigDataEEUlRKNSt7__cxx1112basic_stringIcSt11char_traitsIcESaIcEEEE8_SF_EES5_RKT_RKT0_
FNDA:0,_ZN5Catch5Clara6Detail13LambdaInvokerINS1_11BasicResultINS0_15ParseResultTypeEEEE6invokeIZNS_21makeCommandLineParserERNS_10ConfigDataEEUlRKNSt7__cxx1112basic_stringIcSt11char_traitsIcESaIcEEEE_SF_EES5_RKT_RKT0_
FNDA:0,_ZN5Catch5Clara6Detail13LambdaInvokerIvE6invokeIZNS_21makeCommandLineParserERNS_10ConfigDataEEUlbE0_bEENS1_11BasicResultINS0_15ParseResultTypeEEERKT_RKT0_
FNDA:0,_ZN5Catch5Clara6Detail13LambdaInvokerIvE6invokeIZNS_21makeCommandLineParserERNS_10ConfigDataEEUlbE_bEENS1_11BasicResultINS0_15ParseResultTypeEEERKT_RKT0_
FNDA:0,_ZN5Catch5Clara6Detail13LambdaInvokerIvE6invokeIZNS_21makeCommandLineParserERNS_10ConfigDataEEUliE_iEENS1_11BasicResultINS0_15ParseResultTypeEEERKT_RKT0_
FNDA:0,_ZN5Catch5Clara6Detail12invokeLambdaINSt7__cxx1112basic_stringIcSt11char_traitsIcESaIcEEEZNS_21makeCommandLineParserERNS_10ConfigDataEEUlRKS8_E0_EENS1_11BasicResultINS0_15ParseResultTypeEEERKT0_SC_
FNDA:0,_ZN5Catch5Clara6Detail12invokeLambdaINSt7__cxx1112basic_stringIcSt11char_traitsIcESaIcEEEZNS_21makeCommandLineParserERNS_10ConfigDataEEUlRKS8_E1_EENS1_11BasicResultINS0_15ParseResultTypeEEERKT0_SC_
FNDA:0,_ZN5Catch5Clara6Detail12invokeLambdaINSt7__cxx1112basic_stringIcSt11char_traitsIcESaIcEEEZNS_21makeCommandLineParserERNS_10ConfigDataEEUlRKS8_E2_EENS1_11BasicResultINS0_15ParseResultTypeEEERKT0_SC_
FNDA:0,_ZN5Catch5Clara6Detail12invokeLambdaINSt7__cxx1112basic_stringIcSt11char_traitsIcESaIcEEEZNS_21makeCommandLineParserERNS_10ConfigDataEEUlRKS8_E3_EENS1_11BasicResultINS0_15ParseResultTypeEEERKT0_SC_
FNDA:0,_ZN5Catch5Clara6Detail12invokeLambdaINSt7__cxx1112basic_stringIcSt11char_traitsIcESaIcEEEZNS_21makeCommandLineParserERNS_10ConfigDataEEUlRKS8_E4_EENS1_11BasicResultINS0_15ParseResultTypeEEERKT0_SC_
FNDA:0,_ZN5Catch5Clara6Detail12invokeLambdaINSt7__cxx1112basic_stringIcSt11char_traitsIcESaIcEEEZNS_21makeCommandLineParserERNS_10ConfigDataEEUlRKS8_E5_EENS1_11BasicResultINS0_15ParseResultTypeEEERKT0_SC_
FNDA:0,_ZN5Catch5Clara6Detail12invokeLambdaINSt7__cxx1112basic_stringIcSt11char_traitsIcESaIcEEEZNS_21makeCommandLineParserERNS_10ConfigDataEEUlRKS8_E6_EENS1_11BasicResultINS0_15ParseResultTypeEEERKT0_SC_
FNDA:0,_ZN5Catch5Clara6Detail12invokeLambdaINSt7__cxx1112basic_stringIcSt11char_traitsIcESaIcEEEZNS_21makeCommandLineParserERNS_10ConfigDataEEUlRKS8_E7_EENS1_11BasicResultINS0_15ParseResultTypeEEERKT0_SC_
FNDA:0,_ZN5Catch5Clara6Detail12invokeLambdaINSt7__cxx1112basic_stringIcSt11char_traitsIcESaIcEEEZNS_21makeCommandLineParserERNS_10ConfigDataEEUlRKS8_E8_EENS1_11BasicResultINS0_15ParseResultTypeEEERKT0_SC_
FNDA:0,_ZN5Catch5Clara6Detail12invokeLambdaINSt7__cxx1112basic_stringIcSt11char_traitsIcESaIcEEEZNS_21makeCommandLineParserERNS_10ConfigDataEEUlRKS8_E_EENS1_11BasicResultINS0_15ParseResultTypeEEERKT0_SC_
FNDA:0,_ZN5Catch5Clara6Detail12invokeLambdaIbZNS_21makeCommandLineParserERNS_10ConfigDataEEUlbE0_EENS1_11BasicResultINS0_15ParseResultTypeEEERKT0_RKNSt7__cxx1112basic_stringIcSt11char_traitsIcESaIcEEE
FNDA:0,_ZN5Catch5Clara6Detail12invokeLambdaIiZNS_21makeCommandLineParserERNS_10ConfigDataEEUliE_EENS1_11BasicResultINS0_15ParseResultTypeEEERKT0_RKNSt7__cxx1112basic_stringIcSt11char_traitsIcESaIcEEE
FNDA:1,_ZN5Catch5Clara6Detail11BoundLambdaIZNS_21makeCommandLineParserERNS_10ConfigDataEEUlRKNSt7__cxx1112basic_stringIcSt11char_traitsIcESaIcEEEE0_EC2ERKSD_
FNDA:1,_ZN5Catch5Clara6Detail11BoundLambdaIZNS_21makeCommandLineParserERNS_10ConfigDataEEUlRKNSt7__cxx1112basic_stringIcSt11char_traitsIcESaIcEEEE1_EC2ERKSD_
FNDA:1,_ZN5Catch5Clara6Detail11BoundLambdaIZNS_21makeCommandLineParserERNS_10ConfigDataEEUlRKNSt7__cxx1112basic_stringIcSt11char_traitsIcESaIcEEEE2_EC2ERKSD_
FNDA:1,_ZN5Catch5Clara6Detail11BoundLambdaIZNS_21makeCommandLineParserERNS_10ConfigDataEEUlRKNSt7__cxx1112basic_stringIcSt11char_traitsIcESaIcEEEE3_EC2ERKSD_
FNDA:1,_ZN5Catch5Clara6Detail11BoundLambdaIZNS_21makeCommandLineParserERNS_10ConfigDataEEUlRKNSt7__cxx1112basic_stringIcSt11char_traitsIcESaIcEEEE4_EC2ERKSD_
FNDA:1,_ZN5Catch5Clara6Detail11BoundLambdaIZNS_21makeCommandLineParserERNS_10ConfigDataEEUlRKNSt7__cxx1112basic_stringIcSt11char_traitsIcESaIcEEEE5_EC2ERKSD_
FNDA:1,_ZN5Catch5Clara6Detail11BoundLambdaIZNS_21makeCommandLineParserERNS_10ConfigDataEEUlRKNSt7__cxx1112basic_stringIcSt11char_traitsIcESaIcEEEE6_EC2ERKSD_
FNDA:1,_ZN5Catch5Clara6Detail11BoundLambdaIZNS_21makeCommandLineParserERNS_10ConfigDataEEUlRKNSt7__cxx1112basic_stringIcSt11char_traitsIcESaIcEEEE7_EC2ERKSD_
FNDA:1,_ZN5Catch5Clara6Detail11BoundLambdaIZNS_21makeCommandLineParserERNS_10ConfigDataEEUlRKNSt7__cxx1112basic_stringIcSt11char_traitsIcESaIcEEEE8_EC2ERKSD_
FNDA:1,_ZN5Catch5Clara6Detail11BoundLambdaIZNS_21makeCommandLineParserERNS_10ConfigDataEEUlRKNSt7__cxx1112basic_stringIcSt11char_traitsIcESaIcEEEE_EC2ERKSD_
FNDA:1,_ZN5Catch5Clara6Detail11BoundLambdaIZNS_21makeCommandLineParserERNS_10ConfigDataEEUlbE0_EC2ERKS5_
FNDA:1,_ZN5Catch5Clara6Detail11BoundLambdaIZNS_21makeCommandLineParserERNS_10ConfigDataEEUliE_EC2ERKS5_
FNDA:0,_ZN5Catch5Clara6Detail11BoundLambdaIZNS_21makeCommandLineParserERNS_10ConfigDataEEUlRKNSt7__cxx1112basic_stringIcSt11char_traitsIcESaIcEEEE0_E8setValueESC_
FNDA:0,_ZN5Catch5Clara6Detail11BoundLambdaIZNS_21makeCommandLineParserERNS_10ConfigDataEEUlRKNSt7__cxx1112basic_stringIcSt11char_traitsIcESaIcEEEE1_E8setValueESC_
FNDA:0,_ZN5Catch5Clara6Detail11BoundLambdaIZNS_21makeCommandLineParserERNS_10ConfigDataEEUlRKNSt7__cxx1112basic_stringIcSt11char_traitsIcESaIcEEEE2_E8setValueESC_
FNDA:0,_ZN5Catch5Clara6Detail11BoundLambdaIZNS_21makeCommandLineParserERNS_10ConfigDataEEUlRKNSt7__cxx1112basic_stringIcSt11char_traitsIcESaIcEEEE3_E8setValueESC_
FNDA:0,_ZN5Catch5Clara6Detail11BoundLambdaIZNS_21makeCommandLineParserERNS_10ConfigDataEEUlRKNSt7__cxx1112basic_stringIcSt11char_traitsIcESaIcEEEE4_E8setValueESC_
FNDA:0,_ZN5Catch5Clara6Detail11BoundLambdaIZNS_21makeCommandLineParserERNS_10ConfigDataEEUlRKNSt7__cxx1112basic_stringIcSt11char_traitsIcESaIcEEEE5_E8setValueESC_
FNDA:0,_ZN5Catch5Clara6Detail11BoundLambdaIZNS_21makeCommandLineParserERNS_10ConfigDataEEUlRKNSt7__cxx1112basic_stringIcSt11char_traitsIcESaIcEEEE6_E8setValueESC_
FNDA:0,_ZN5Catch5Clara6Detail11BoundLambdaIZNS_21makeCommandLineParserERNS_10ConfigDataEEUlRKNSt7__cxx1112basic_stringIcSt11char_traitsIcESaIcEEEE7_E8setValueESC_
FNDA:0,_ZN5Catch5Clara6Detail11BoundLambdaIZNS_21makeCommandLineParserERNS_10ConfigDataEEUlRKNSt7__cxx1112basic_stringIcSt11char_traitsIcESaIcEEEE8_E8setValueESC_
FNDA:0,_ZN5Catch5Clara6Detail11BoundLambdaIZNS_21makeCommandLineParserERNS_10ConfigDataEEUlRKNSt7__cxx1112basic_stringIcSt11char_traitsIcESaIcEEEE_E8setValueESC_
FNDA:0,_ZN5Catch5Clara6Detail11BoundLambdaIZNS_21makeCommandLineParserERNS_10ConfigDataEEUlbE0_E8setValueERKNSt7__cxx1112basic_stringIcSt11char_traitsIcESaIcEEE
FNDA:0,_ZN5Catch5Clara6Detail11BoundLambdaIZNS_21makeCommandLineParserERNS_10ConfigDataEEUliE_E8setValueERKNSt7__cxx1112basic_stringIcSt11char_traitsIcESaIcEEE
FNDA:1,_ZN5Catch5Clara6Detail15BoundManyLambdaIZNS_21makeCommandLineParserERNS_10ConfigDataEEUlRKNSt7__cxx1112basic_stringIcSt11char_traitsIcESaIcEEEE6_EC2ERKSD_
FNDA:1,_ZN5Catch5Clara6Detail15BoundManyLambdaIZNS_21makeCommandLineParserERNS_10ConfigDataEEUlRKNSt7__cxx1112basic_stringIcSt11char_traitsIcESaIcEEEE_EC2ERKSD_
FNDA:0,_ZNK5Catch5Clara6Detail15BoundManyLambdaIZNS_21makeCommandLineParserERNS_10ConfigDataEEUlRKNSt7__cxx1112basic_stringIcSt11char_traitsIcESaIcEEEE6_E11isContainerEv
FNDA:0,_ZNK5Catch5Clara6Detail15BoundManyLambdaIZNS_21makeCommandLineParserERNS_10ConfigDataEEUlRKNSt7__cxx1112basic_stringIcSt11char_traitsIcESaIcEEEE_E11isContainerEv
FNDA:1,_ZN5Catch5Clara6Detail15BoundFlagLambdaIZNS0_4HelpC4ERbEUlbE_EC2ERKS5_
FNDA:1,_ZN5Catch5Clara6Detail15BoundFlagLambdaIZNS_21makeCommandLineParserERNS_10ConfigDataEEUlbE_EC2ERKS5_
FNDA:0,_ZN5Catch5Clara6Detail15BoundFlagLambdaIZNS0_4HelpC4ERbEUlbE_E7setFlagEb
FNDA:0,_ZN5Catch5Clara6Detail15BoundFlagLambdaIZNS_21makeCommandLineParserERNS_10ConfigDataEEUlbE_E7setFlagEb
FNDA:0,_ZN5Catch5Clara6Detail10ParserBaseD0Ev
FNDA:218,_ZN5Catch5Clara6Detail10ParserBaseD2Ev
FNDA:0,_ZNK5Catch5Clara6Detail10ParserBase8validateEv
FNDA:15,_ZN5Catch5Clara6Detail13ParserRefImplINS0_3OptEEC2ERKSt10shared_ptrINS1_8BoundRefEE
FNDA:1,_ZN5Catch5Clara6Detail13ParserRefImplINS0_3OptEEC2IZNS_21makeCommandLineParserERNS_10ConfigDataEEUlRKNSt7__cxx1112basic_stringIcSt11char_traitsIcESaIcEEEE6_EENS0_13accept_many_tERKT_NS_9StringRefE
FNDA:1,_ZN5Catch5Clara6Detail13ParserRefImplINS0_3OptEEC2IZNS_21makeCommandLineParserERNS_10ConfigDataEEUlRKNSt7__cxx1112basic_stringIcSt11char_traitsIcESaIcEEEE_EENS0_13accept_many_tERKT_NS_9StringRefE
FNDA:1,_ZN5Catch5Clara6Detail13ParserRefImplINS0_3ArgEEC2ISt6vectorINSt7__cxx1112basic_stringIcSt11char_traitsIcESaIcEEESaISC_EEvEERT_NS_9StringRefE
FNDA:3,_ZN5Catch5Clara6Detail13ParserRefImplINS0_3OptEEC2INSt7__cxx1112basic_stringIcSt11char_traitsIcESaIcEEEvEERT_NS_9StringRefE
FNDA:1,_ZN5Catch5Clara6Detail13ParserRefImplINS0_3OptEEC2ISt6vectorINSt7__cxx1112basic_stringIcSt11char_traitsIcESaIcEEESaISC_EEvEERT_NS_9StringRefE
FNDA:2,_ZN5Catch5Clara6Detail13ParserRefImplINS0_3OptEEC2IdvEERT_NS_9StringRefE
FNDA:2,_ZN5Catch5Clara6Detail13ParserRefImplINS0_3OptEEC2IjvEERT_NS_9StringRefE
FNDA:1,_ZN5Catch5Clara6Detail13ParserRefImplINS0_3OptEEC2IlvEERT_NS_9StringRefE
FNDA:1,_ZN5Catch5Clara6Detail13ParserRefImplINS0_3OptEEC2IZNS_21makeCommandLineParserERNS_10ConfigDataEEUlRKNSt7__cxx1112basic_stringIcSt11char_traitsIcESaIcEEEE0_vEERKT_NS_9StringRefE
FNDA:1,_ZN5Catch5Clara6Detail13ParserRefImplINS0_3OptEEC2IZNS_21makeCommandLineParserERNS_10ConfigDataEEUlRKNSt7__cxx1112basic_stringIcSt11char_traitsIcESaIcEEEE1_vEERKT_NS_9StringRefE
FNDA:1,_ZN5Catch5Clara6Detail13ParserRefImplINS0_3OptEEC2IZNS_21makeCommandLineParserERNS_10ConfigDataEEUlRKNSt7__cxx1112basic_stringIcSt11char_traitsIcESaIcEEEE2_vEERKT_NS_9StringRefE
FNDA:1,_ZN5Catch5Clara6Detail13ParserRefImplINS0_3OptEEC2IZNS_21makeCommandLineParserERNS_10ConfigDataEEUlRKNSt7__cxx1112basic_stringIcSt11char_traitsIcESaIcEEEE3_vEERKT_NS_9StringRefE
FNDA:1,_ZN5Catch5Clara6Detail13ParserRefImplINS0_3OptEEC2IZNS_21makeCommandLineParserERNS_10ConfigDataEEUlRKNSt7__cxx1112basic_stringIcSt11char_traitsIcESaIcEEEE4_vEERKT_NS_9StringRefE
FNDA:1,_ZN5Catch5Clara6Detail13ParserRefImplINS0_3OptEEC2IZNS_21makeCommandLineParserERNS_10ConfigDataEEUlRKNSt7__cxx1112basic_stringIcSt11char_traitsIcESaIcEEEE5_vEERKT_NS_9StringRefE
FNDA:1,_ZN5Catch5Clara6Detail13ParserRefImplINS0_3OptEEC2IZNS_21makeCommandLineParserERNS_10ConfigDataEEUlRKNSt7__cxx1112basic_stringIcSt11char_traitsIcESaIcEEEE7_vEERKT_NS_9StringRefE
FNDA:1,_ZN5Catch5Clara6Detail13ParserRefImplINS0_3OptEEC2IZNS_21makeCommandLineParserERNS_10ConfigDataEEUlRKNSt7__cxx1112basic_stringIcSt11char_traitsIcESaIcEEEE8_vEERKT_NS_9StringRefE
FNDA:1,_ZN5Catch5Clara6Detail13ParserRefImplINS0_3OptEEC2IZNS_21makeCommandLineParserERNS_10ConfigDataEEUlbE0_vEERKT_NS_9StringRefE
FNDA:1,_ZN5Catch5Clara6Detail13ParserRefImplINS0_3OptEEC2IZNS_21makeCommandLineParserERNS_10ConfigDataEEUliE_vEERKT_NS_9StringRefE
FNDA:1,_ZNR5Catch5Clara6Detail13ParserRefImplINS0_3OptEEclENS_9StringRefE
FNDA:1,_ZNO5Catch5Clara6Detail13ParserRefImplINS0_3ArgEEclENS_9StringRefE
FNDA:35,_ZNO5Catch5Clara6Detail13ParserRefImplINS0_3OptEEclENS_9StringRefE
FNDA:1,_ZN5Catch5Clara6Detail13ParserRefImplINS0_3OptEE8optionalEv
FNDA:0,_ZNK5Catch5Clara6Detail13ParserRefImplINS0_3ArgEE10isOptionalEv
FNDA:0,_ZNK5Catch5Clara6Detail13ParserRefImplINS0_3ArgEE11cardinalityEv
FNDA:0,_ZNK5Catch5Clara6Detail13ParserRefImplINS0_3OptEE11cardinalityEv
FNDA:0,_ZNK5Catch5Clara6Detail13ParserRefImplINS0_3ArgEE4hintEv
FNDA:1,_ZN5Catch5Clara3OptC2IZNS0_4HelpC4ERbEUlbE_EERKT_
FNDA:1,_ZN5Catch5Clara3OptC2IZNS_21makeCommandLineParserERNS_10ConfigDataEEUlbE_EERKT_
FNDA:1,_ZN5Catch5Clara3OptC2IZNS_21makeCommandLineParserERNS_10ConfigDataEEUlRKNSt7__cxx1112basic_stringIcSt11char_traitsIcESaIcEEEE0_vEERKT_NS_9StringRefE
FNDA:1,_ZN5Catch5Clara3OptC2IZNS_21makeCommandLineParserERNS_10ConfigDataEEUlRKNSt7__cxx1112basic_stringIcSt11char_traitsIcESaIcEEEE1_vEERKT_NS_9StringRefE
FNDA:1,_ZN5Catch5Clara3OptC2IZNS_21makeCommandLineParserERNS_10ConfigDataEEUlRKNSt7__cxx1112basic_stringIcSt11char_traitsIcESaIcEEEE2_vEERKT_NS_9StringRefE
FNDA:1,_ZN5Catch5Clara3OptC2IZNS_21makeCommandLineParserERNS_10ConfigDataEEUlRKNSt7__cxx1112basic_stringIcSt11char_traitsIcESaIcEEEE3_vEERKT_NS_9StringRefE
FNDA:1,_ZN5Catch5Clara3OptC2IZNS_21makeCommandLineParserERNS_10ConfigDataEEUlRKNSt7__cxx1112basic_stringIcSt11char_traitsIcESaIcEEEE4_vEERKT_NS_9StringRefE
FNDA:1,_ZN5Catch5Clara3OptC2IZNS_21makeCommandLineParserERNS_10ConfigDataEEUlRKNSt7__cxx1112basic_stringIcSt11char_traitsIcESaIcEEEE5_vEERKT_NS_9StringRefE
FNDA:1,_ZN5Catch5Clara3OptC2IZNS_21makeCommandLineParserERNS_10ConfigDataEEUlRKNSt7__cxx1112basic_stringIcSt11char_traitsIcESaIcEEEE7_vEERKT_NS_9StringRefE
FNDA:1,_ZN5Catch5Clara3OptC2IZNS_21makeCommandLineParserERNS_10ConfigDataEEUlRKNSt7__cxx1112basic_stringIcSt11char_traitsIcESaIcEEEE8_vEERKT_NS_9StringRefE
FNDA:1,_ZN5Catch5Clara3OptC2IZNS_21makeCommandLineParserERNS_10ConfigDataEEUlbE0_vEERKT_NS_9StringRefE
FNDA:1,_ZN5Catch5Clara3OptC2IZNS_21makeCommandLineParserERNS_10ConfigDataEEUliE_vEERKT_NS_9StringRefE
FNDA:1,_ZN5Catch5Clara3OptC2IZNS_21makeCommandLineParserERNS_10ConfigDataEEUlRKNSt7__cxx1112basic_stringIcSt11char_traitsIcESaIcEEEE6_EENS0_13accept_many_tERKT_NS_9StringRefE
FNDA:1,_ZN5Catch5Clara3OptC2IZNS_21makeCommandLineParserERNS_10ConfigDataEEUlRKNSt7__cxx1112basic_stringIcSt11char_traitsIcESaIcEEEE_EENS0_13accept_many_tERKT_NS_9StringRefE
FNDA:3,_ZN5Catch5Clara3OptC2INSt7__cxx1112basic_stringIcSt11char_traitsIcESaIcEEEvEERT_NS_9StringRefE
FNDA:1,_ZN5Catch5Clara3OptC2ISt6vectorINSt7__cxx1112basic_stringIcSt11char_traitsIcESaIcEEESaIS9_EEvEERT_NS_9StringRefE
FNDA:2,_ZN5Catch5Clara3OptC2IdvEERT_NS_9StringRefE
FNDA:2,_ZN5Catch5Clara3OptC2IjvEERT_NS_9StringRefE
FNDA:1,_ZN5Catch5Clara3OptC2IlvEERT_NS_9StringRefE
FNDA:3,_ZNR5Catch5Clara3OptixENS_9StringRefE
FNDA:51,_ZNO5Catch5Clara3OptixENS_9StringRefE
FNDA:0,_ZNK5Catch5Clara7ExeName4nameB5cxx11Ev
FNDA:1,_ZN5Catch5Clara6ParseroRERKNS0_7ExeNameE
FNDA:1,_ZN5Catch5Clara6ParseroRERKNS0_3ArgE
FNDA:1,_ZN5Catch5ClaraoRERNS0_6ParserERKNS0_3OptE
FNDA:35,_ZN5Catch5ClaraoRERNS0_6ParserEONS0_3OptE
FNDA:1,_ZN5Catch5ClaraorINS0_3ArgEEENS0_6ParserEOS3_OT_
FNDA:35,_ZN5Catch5ClaraorINS0_3OptEEENS0_6ParserEOS3_OT_
FNDA:1,_ZN5Catch5ClaraorIRKNS0_4HelpEEENS0_6ParserEOS5_OT_
FNDA:1,_ZN5Catch5ClaraorIRKNS0_7ExeNameEEENS0_6ParserEOS5_OT_
FNDA:0,_ZN5Catch5ClaralsERSoRKNS0_6ParserE
FNDA:1,_ZNK5Catch5Clara4Args7exeNameEv
FNDA:1,_ZNK5Catch5Clara6Detail20ComposableParserImplINS0_7ExeNameEEorINS0_4HelpEEENS0_6ParserERKT_
FNDA:1,_ZN5Catch7Session3runIcEEiiPKPKT_
FNDA:0,_ZN5Catch8TagAliasC2ERKNSt7__cxx1112basic_stringIcSt11char_traitsIcESaIcEEENS_14SourceLineInfoE
FNDA:0,_ZNK5Catch20ITransientExpression18isBinaryExpressionEv
FNDA:615,_ZNK5Catch20ITransientExpression9getResultEv
FNDA:0,_ZN5Catch20ITransientExpressionC2Ebb
FNDA:0,_ZN5CatchlsERSoRKNS_20ITransientExpressionE
FNDA:995,_ZNK5Catch7Context16getResultCaptureEv
FNDA:31,_ZNK5Catch7Context9getConfigEv
FNDA:1,_ZN5Catch7Context16setResultCaptureEPNS_14IResultCaptureE
FNDA:1,_ZN5Catch7Context9setConfigEPKNS_7IConfigE
FNDA:1026,_ZN5Catch17getCurrentContextEv
FNDA:0,_ZN5Catch6Detail11UnreachableEv
FNDA:118,_ZN5Catch3TagC2ENS_9StringRefE
FNDA:0,_ZN5Catch9StringRefC2Ev
FNDA:0,_ZN5Catch9StringRefC2EPKcm
FNDA:118,_ZN5Catch14TestCaseHandleC2EPNS_12TestCaseInfoEPNS_12ITestInvokerE
FNDA:118,_ZNK5Catch14TestCaseHandle15prepareTestCaseEv
FNDA:118,_ZNK5Catch14TestCaseHandle16tearDownTestCaseEv
FNDA:168,_ZNK5Catch14TestCaseHandle6invokeEv
FNDA:640,_ZNK5Catch14TestCaseHandle15getTestCaseInfoEv
FNDA:822,_ZN5Catch9StringRefC2ERKNSt7__cxx1112basic_stringIcSt11char_traitsIcESaIcEEE
FNDA:2,_ZN5Catch11TestRunInfoC2ENS_9StringRefE
FNDA:451,_ZNK5Catch9StringRefcvNSt7__cxx1112basic_stringIcSt11char_traitsIcESaIcEEEEv
FNDA:1438,_ZNK5Catch9StringRefeqES0_
FNDA:5725,_ZNK5Catch9StringRefixEm
FNDA:0,_ZN5Catch18GeneratorExceptionC2EPKc
FNDA:0,_ZN5Catch10Generators20GeneratorUntypedBaseC2Ev
FNDA:590,_ZNK5Catch9StringRef5emptyEv
FNDA:2624,_ZNK5Catch9StringRef4sizeEv
FNDA:0,_ZNK5Catch10Generators10IGeneratorIeE13stringifyImplB5cxx11Ev
FNDA:544,_ZNK5Catch9StringRef6substrEmm
FNDA:120,_ZNK5Catch9StringRef4dataEv
FNDA:324,_ZNK5Catch9StringRef5beginEv
FNDA:324,_ZNK5Catch9StringRef3endEv
FNDA:0,_ZN5Catchli3_srEPKcm
FNDA:0,_ZN5Catch11SimplePcg323minEv
FNDA:1,_ZN5Catch11SimplePcg32C2Ev
FNDA:0,_ZN5Catch6Detail12extendedMultEmm
FNDA:1,_ZN5Catch6Detail12fillBitsFromIjSt13random_deviceEENSt9enable_ifIXgestNT0_11result_typeEstT_ES6_E4typeERS4_
FNDA:0,_ZN5Catch6Detail12fillBitsFromImNS_11SimplePcg32EEENSt9enable_ifIXltstNT0_11result_typeEstT_ES6_E4typeERS4_
FNDA:0,_ZN5Catch6Detail23transposeToNaturalOrderImmEENSt9enable_ifIXsrSt11is_unsignedIT_E5valueET0_E4typeES6_
FNDA:30,_ZN5Catch4isOkENS_9ResultWas6OfTypeE
FNDA:0,_ZN5Catch28uniform_integer_distributionImE15computeDistanceEmm
FNDA:0,_ZN5Catch28uniform_integer_distributionImE25computeRejectionThresholdEm
FNDA:0,_ZN5Catch28uniform_integer_distributionImE11transposeToEm
FNDA:0,_ZN5Catch28uniform_integer_distributionImE13transposeBackEm
FNDA:0,_ZN5Catch28uniform_integer_distributionImEC2Emm
FNDA:0,_ZN5Catch28uniform_integer_distributionImEclINS_11SimplePcg32EEEmRT_
FNDA:615,_ZN5Catch11isFalseTestEi
FNDA:0,_ZN5Catch21shouldSuppressFailureEi
FNDA:0,_ZNK5Catch10Generators23RandomFloatingGeneratorIeE3getEv
FNDA:0,_ZN5Catch6Detail10unique_ptrINS_10Generators20GeneratorUntypedBaseEEC2EDn
FNDA:0,_ZN5Catch6Detail10unique_ptrINS_14IEventListenerEEC2EDn
FNDA:9,_ZN5Catch6Detail10unique_ptrINS_16IReporterFactoryEEC2EDn
FNDA:1,_ZN5Catch6Detail10unique_ptrINS_16TestCaseTracking8ITrackerEEC2EDn
FNDA:0,_ZN5Catch6Detail10unique_ptrINS_22CumulativeReporterBase11SectionNodeEEC2EDn
FNDA:0,_ZN5Catch6Detail10unique_ptrINS_22CumulativeReporterBase4NodeINS_12TestRunStatsENS3_INS_13TestCaseStatsENS2_11SectionNodeEEEEEEC2EDn
FNDA:1,_ZN5Catch6Detail10unique_ptrINS_6ConfigEEC2EDn
FNDA:0,_ZN5Catch6Detail10unique_ptrINS0_12_GLOBAL__N_110CerrStreamEEC2EPS3_
FNDA:1,_ZN5Catch6Detail10unique_ptrINS0_12_GLOBAL__N_110CoutStreamEEC2EPS3_
FNDA:0,_ZN5Catch6Detail10unique_ptrINS0_12_GLOBAL__N_110FileStreamEEC2EPS3_
FNDA:0,_ZN5Catch6Detail10unique_ptrINS0_12_GLOBAL__N_113StreamBufImplINS2_17OutputDebugWriterELm256EEEEC2EPS5_
FNDA:0,_ZN5Catch6Detail10unique_ptrINS0_12_GLOBAL__N_114DebugOutStreamEEC2EPS3_
FNDA:0,_ZN5Catch6Detail10unique_ptrINS0_8EnumInfoEEC2EPS2_
FNDA:0,_ZN5Catch6Detail10unique_ptrINS_10Generators12_GLOBAL__N_116GeneratorTrackerEEC2EPS4_
FNDA:0,_ZN5Catch6Detail10unique_ptrINS_10Generators23RandomFloatingGeneratorIeE5PImplEEC2EPS5_
FNDA:0,_ZN5Catch6Detail10unique_ptrINS_11TAPReporterEEC2EPS2_
FNDA:0,_ZN5Catch6Detail10unique_ptrINS_11XmlReporterEEC2EPS2_
FNDA:0,_ZN5Catch6Detail10unique_ptrINS_12JsonReporterEEC2EPS2_
FNDA:1,_ZN5Catch6Detail10unique_ptrINS_12TablePrinterEEC2EPS2_
FNDA:118,_ZN5Catch6Detail10unique_ptrINS_12TestCaseInfoEEC2EPS2_
FNDA:0,_ZN5Catch6Detail10unique_ptrINS_12_GLOBAL__N_112NoColourImplEEC2EPS3_
FNDA:1,_ZN5Catch6Detail10unique_ptrINS_12_GLOBAL__N_112NoopRedirectEEC2EPS3_
FNDA:1,_ZN5Catch6Detail10unique_ptrINS_12_GLOBAL__N_114ANSIColourImplEEC2EPS3_
FNDA:0,_ZN5Catch6Detail10unique_ptrINS_12_GLOBAL__N_114StreamRedirectEEC2EPS3_
FNDA:118,_ZN5Catch6Detail10unique_ptrINS_12_GLOBAL__N_121TestInvokerAsFunctionEEC2EPS3_
FNDA:0,_ZN5Catch6Detail10unique_ptrINS_13JunitReporterEEC2EPS2_
FNDA:0,_ZN5Catch6Detail10unique_ptrINS_13MultiReporterEEC2EPS2_
FNDA:0,_ZN5Catch6Detail10unique_ptrINS_15CompactReporterEEC2EPS2_
FNDA:1,_ZN5Catch6Detail10unique_ptrINS_15ConsoleReporterEEC2EPS2_
FNDA:1,_ZN5Catch6Detail10unique_ptrINS_15ReporterFactoryINS_11TAPReporterEEEEC2EPS4_
FNDA:1,_ZN5Catch6Detail10unique_ptrINS_15ReporterFactoryINS_11XmlReporterEEEEC2EPS4_
FNDA:1,_ZN5Catch6Detail10unique_ptrINS_15ReporterFactoryINS_12JsonReporterEEEEC2EPS4_
FNDA:1,_ZN5Catch6Detail10unique_ptrINS_15ReporterFactoryINS_13JunitReporterEEEEC2EPS4_
FNDA:1,_ZN5Catch6Detail10unique_ptrINS_15ReporterFactoryINS_15CompactReporterEEEEC2EPS4_
FNDA:1,_ZN5Catch6Detail10unique_ptrINS_15ReporterFactoryINS_15ConsoleReporterEEEEC2EPS4_
FNDA:1,_ZN5Catch6Detail10unique_ptrINS_15ReporterFactoryINS_16AutomakeReporterEEEEC2EPS4_
FNDA:1,_ZN5Catch6Detail10unique_ptrINS_15ReporterFactoryINS_16TeamCityReporterEEEEC2EPS4_
FNDA:1,_ZN5Catch6Detail10unique_ptrINS_15ReporterFactoryINS_17SonarQubeReporterEEEEC2EPS4_
FNDA:0,_ZN5Catch6Detail10unique_ptrINS_16AutomakeReporterEEC2EPS2_
FNDA:1,_ZN5Catch6Detail10unique_ptrINS_16ReporterRegistry20ReporterRegistryImplEEC2EPS3_
FNDA:0,_ZN5Catch6Detail10unique_ptrINS_16TeamCityReporterEEC2EPS2_
FNDA:307,_ZN5Catch6Detail10unique_ptrINS_16TestCaseTracking14SectionTrackerEEC2EPS3_
FNDA:0,_ZN5Catch6Detail10unique_ptrINS_17SonarQubeReporterEEC2EPS2_
FNDA:0,_ZN5Catch6Detail10unique_ptrINS_22CumulativeReporterBase11SectionNodeEEC2EPS3_
FNDA:0,_ZN5Catch6Detail10unique_ptrINS_22CumulativeReporterBase4NodeINS_12TestRunStatsENS3_INS_13TestCaseStatsENS2_11SectionNodeEEEEEEC2EPS8_
FNDA:0,_ZN5Catch6Detail10unique_ptrINS_22CumulativeReporterBase4NodeINS_13TestCaseStatsENS2_11SectionNodeEEEEC2EPS6_
FNDA:1,_ZN5Catch6Detail10unique_ptrINS_6ConfigEEC2EPS2_
FNDA:0,_ZN5Catch6Detail10unique_ptrINS_8TestSpec10TagPatternEEC2EPS3_
FNDA:0,_ZN5Catch6Detail10unique_ptrINS_8TestSpec11NamePatternEEC2EPS3_
FNDA:0,_ZN5Catch6Detail10unique_ptrINS_9Benchmark6Detail17BenchmarkFunction8callableEEC2EPS5_
FNDA:1,_ZN5Catch6Detail10unique_ptrINSt7__cxx1119basic_ostringstreamIcSt11char_traitsIcESaIcEEEEC2EPS7_
FNDA:0,_ZN5Catch14AssertionStatsC2ERKS0_
FNDA:0,_ZN5Catch6Detail10unique_ptrIKNS_20IExceptionTranslatorEEC2IS2_vEEONS1_IT_EE
FNDA:0,_ZN5Catch6Detail10unique_ptrINS_10ColourImplEEC2INS_12_GLOBAL__N_112NoColourImplEvEEONS1_IT_EE
FNDA:1,_ZN5Catch6Detail10unique_ptrINS_10ColourImplEEC2INS_12_GLOBAL__N_114ANSIColourImplEvEEONS1_IT_EE
FNDA:118,_ZN5Catch6Detail10unique_ptrINS_12ITestInvokerEEC2INS_12_GLOBAL__N_121TestInvokerAsFunctionEvEEONS1_IT_EE
FNDA:0,_ZN5Catch6Detail10unique_ptrINS_14IEventListenerEEC2INS_11TAPReporterEvEEONS1_IT_EE
FNDA:0,_ZN5Catch6Detail10unique_ptrINS_14IEventListenerEEC2INS_11XmlReporterEvEEONS1_IT_EE
FNDA:0,_ZN5Catch6Detail10unique_ptrINS_14IEventListenerEEC2INS_12JsonReporterEvEEONS1_IT_EE
FNDA:0,_ZN5Catch6Detail10unique_ptrINS_14IEventListenerEEC2INS_13JunitReporterEvEEONS1_IT_EE
FNDA:0,_ZN5Catch6Detail10unique_ptrINS_14IEventListenerEEC2INS_13MultiReporterEvEEONS1_IT_EE
FNDA:0,_ZN5Catch6Detail10unique_ptrINS_14IEventListenerEEC2INS_15CompactReporterEvEEONS1_IT_EE
FNDA:1,_ZN5Catch6Detail10unique_ptrINS_14IEventListenerEEC2INS_15ConsoleReporterEvEEONS1_IT_EE
FNDA:0,_ZN5Catch6Detail10unique_ptrINS_14IEventListenerEEC2INS_16AutomakeReporterEvEEONS1_IT_EE
FNDA:0,_ZN5Catch6Detail10unique_ptrINS_14IEventListenerEEC2INS_16TeamCityReporterEvEEONS1_IT_EE
FNDA:0,_ZN5Catch6Detail10unique_ptrINS_14IEventListenerEEC2INS_17SonarQubeReporterEvEEONS1_IT_EE
FNDA:1,_ZN5Catch6Detail10unique_ptrINS_14OutputRedirectEEC2INS_12_GLOBAL__N_112NoopRedirectEvEEONS1_IT_EE
FNDA:0,_ZN5Catch6Detail10unique_ptrINS_14OutputRedirectEEC2INS_12_GLOBAL__N_114StreamRedirectEvEEONS1_IT_EE
FNDA:189,_ZN5Catch6Detail10unique_ptrINS_16TestCaseTracking8ITrackerEEC2INS2_14SectionTrackerEvEEONS1_IT_EE
FNDA:0,_ZN5Catch6Detail10unique_ptrINS_16TestCaseTracking8ITrackerEEC2INS_10Generators12_GLOBAL__N_116GeneratorTrackerEvEEONS1_IT_EE
FNDA:0,_ZN5Catch6Detail10unique_ptrINS_7IStreamEEC2INS0_12_GLOBAL__N_110CerrStreamEvEEONS1_IT_EE
FNDA:1,_ZN5Catch6Detail10unique_ptrINS_7IStreamEEC2INS0_12_GLOBAL__N_110CoutStreamEvEEONS1_IT_EE
FNDA:0,_ZN5Catch6Detail10unique_ptrINS_7IStreamEEC2INS0_12_GLOBAL__N_110FileStreamEvEEONS1_IT_EE
FNDA:0,_ZN5Catch6Detail10unique_ptrINS_7IStreamEEC2INS0_12_GLOBAL__N_114DebugOutStreamEvEEONS1_IT_EE
FNDA:0,_ZN5Catch6Detail10unique_ptrINS_8TestSpec7PatternEEC2INS2_10TagPatternEvEEONS1_IT_EE
FNDA:0,_ZN5Catch6Detail10unique_ptrINS_8TestSpec7PatternEEC2INS2_11NamePatternEvEEONS1_IT_EE
FNDA:1,_ZN5Catch14IEventListenerC2EPKNS_7IConfigE
FNDA:1,_ZN5Catch6Detail10unique_ptrINS_16IReporterFactoryEEaSINS_15ReporterFactoryINS_11TAPReporterEEEvEERS3_ONS1_IT_EE
FNDA:1,_ZN5Catch6Detail10unique_ptrINS_16IReporterFactoryEEaSINS_15ReporterFactoryINS_11XmlReporterEEEvEERS3_ONS1_IT_EE
FNDA:1,_ZN5Catch6Detail10unique_ptrINS_16IReporterFactoryEEaSINS_15ReporterFactoryINS_12JsonReporterEEEvEERS3_ONS1_IT_EE
FNDA:1,_ZN5Catch6Detail10unique_ptrINS_16IReporterFactoryEEaSINS_15ReporterFactoryINS_13JunitReporterEEEvEERS3_ONS1_IT_EE
FNDA:1,_ZN5Catch6Detail10unique_ptrINS_16IReporterFactoryEEaSINS_15ReporterFactoryINS_15CompactReporterEEEvEERS3_ONS1_IT_EE
FNDA:1,_ZN5Catch6Detail10unique_ptrINS_16IReporterFactoryEEaSINS_15ReporterFactoryINS_15ConsoleReporterEEEvEERS3_ONS1_IT_EE
FNDA:1,_ZN5Catch6Detail10unique_ptrINS_16IReporterFactoryEEaSINS_15ReporterFactoryINS_16AutomakeReporterEEEvEERS3_ONS1_IT_EE
FNDA:1,_ZN5Catch6Detail10unique_ptrINS_16IReporterFactoryEEaSINS_15ReporterFactoryINS_16TeamCityReporterEEEvEERS3_ONS1_IT_EE
FNDA:1,_ZN5Catch6Detail10unique_ptrINS_16IReporterFactoryEEaSINS_15ReporterFactoryINS_17SonarQubeReporterEEEvEERS3_ONS1_IT_EE
FNDA:118,_ZN5Catch6Detail10unique_ptrINS_16TestCaseTracking8ITrackerEEaSINS2_14SectionTrackerEvEERS4_ONS1_IT_EE
FNDA:3,_ZNK5Catch14IEventListener14getPreferencesEv
FNDA:0,_ZN5Catch6Detail10unique_ptrIKNS_20IExceptionTranslatorEEC2EOS4_
FNDA:0,_ZN5Catch6Detail10unique_ptrINS0_8EnumInfoEEC2EOS3_
FNDA:363,_ZN5Catch6Detail10unique_ptrINS_12ITestInvokerEEC2EOS3_
FNDA:363,_ZN5Catch6Detail10unique_ptrINS_12TestCaseInfoEEC2EOS3_
FNDA:1,_ZN5Catch6Detail10unique_ptrINS_14IEventListenerEEC2EOS3_
FNDA:0,_ZN5Catch6Detail10unique_ptrINS_16IReporterFactoryEEC2EOS3_
FNDA:254,_ZN5Catch6Detail10unique_ptrINS_16TestCaseTracking8ITrackerEEC2EOS4_
FNDA:0,_ZN5Catch6Detail10unique_ptrINS_20EventListenerFactoryEEC2EOS3_
FNDA:0,_ZN5Catch6Detail10unique_ptrINS_22CumulativeReporterBase11SectionNodeEEC2EOS4_
FNDA:0,_ZN5Catch6Detail10unique_ptrINS_22CumulativeReporterBase4NodeINS_13TestCaseStatsENS2_11SectionNodeEEEEC2EOS7_
FNDA:2,_ZN5Catch6Detail10unique_ptrINS_7IStreamEEC2EOS3_
FNDA:0,_ZN5Catch6Detail10unique_ptrINS_8TestSpec7PatternEEC2EOS4_
FNDA:1,_ZN5Catch6Detail10unique_ptrINSt7__cxx1119basic_ostringstreamIcSt11char_traitsIcESaIcEEEEC2EOS8_
FNDA:0,_ZN5Catch6Detail10unique_ptrINS_10Generators20GeneratorUntypedBaseEEaSEOS4_
FNDA:0,_ZN5Catch6Detail10unique_ptrINS_14IEventListenerEEaSEOS3_
FNDA:0,_ZN5Catch6Detail10unique_ptrINS_22CumulativeReporterBase11SectionNodeEEaSEOS4_
FNDA:0,_ZN5Catch6Detail10unique_ptrINS_22CumulativeReporterBase4NodeINS_12TestRunStatsENS3_INS_13TestCaseStatsENS2_11SectionNodeEEEEEEaSEOS9_
FNDA:1,_ZN5Catch6Detail10unique_ptrINS_6ConfigEEaSEOS3_
FNDA:0,_ZN5Catch6Detail10unique_ptrIKNS_20IExceptionTranslatorEED2Ev
FNDA:0,_ZN5Catch6Detail10unique_ptrINS0_12_GLOBAL__N_110CerrStreamEED2Ev
FNDA:1,_ZN5Catch6Detail10unique_ptrINS0_12_GLOBAL__N_110CoutStreamEED2Ev
FNDA:0,_ZN5Catch6Detail10unique_ptrINS0_12_GLOBAL__N_110FileStreamEED2Ev
FNDA:0,_ZN5Catch6Detail10unique_ptrINS0_12_GLOBAL__N_113StreamBufImplINS2_17OutputDebugWriterELm256EEEED2Ev
FNDA:0,_ZN5Catch6Detail10unique_ptrINS0_12_GLOBAL__N_114DebugOutStreamEED2Ev
FNDA:0,_ZN5Catch6Detail10unique_ptrINS0_8EnumInfoEED2Ev
FNDA:1,_ZN5Catch6Detail10unique_ptrINS_10ColourImplEED2Ev
FNDA:0,_ZN5Catch6Detail10unique_ptrINS_10Generators12_GLOBAL__N_116GeneratorTrackerEED2Ev
FNDA:0,_ZN5Catch6Detail10unique_ptrINS_10Generators20GeneratorUntypedBaseEED2Ev
FNDA:0,_ZN5Catch6Detail10unique_ptrINS_10Generators23RandomFloatingGeneratorIeE5PImplEED2Ev
FNDA:0,_ZN5Catch6Detail10unique_ptrINS_11TAPReporterEED2Ev
FNDA:0,_ZN5Catch6Detail10unique_ptrINS_11XmlReporterEED2Ev
FNDA:0,_ZN5Catch6Detail10unique_ptrINS_12ITestInvokerEED2Ev
FNDA:0,_ZN5Catch6Detail10unique_ptrINS_12JsonReporterEED2Ev
FNDA:1,_ZN5Catch6Detail10unique_ptrINS_12TablePrinterEED2Ev
FNDA:481,_ZN5Catch6Detail10unique_ptrINS_12TestCaseInfoEED2Ev
FNDA:0,_ZN5Catch6Detail10unique_ptrINS_12_GLOBAL__N_112NoColourImplEED2Ev
FNDA:1,_ZN5Catch6Detail10unique_ptrINS_12_GLOBAL__N_112NoopRedirectEED2Ev
FNDA:1,_ZN5Catch6Detail10unique_ptrINS_12_GLOBAL__N_114ANSIColourImplEED2Ev
FNDA:0,_ZN5Catch6Detail10unique_ptrINS_12_GLOBAL__N_114StreamRedirectEED2Ev
FNDA:118,_ZN5Catch6Detail10unique_ptrINS_12_GLOBAL__N_121TestInvokerAsFunctionEED2Ev
FNDA:0,_ZN5Catch6Detail10unique_ptrINS_13JunitReporterEED2Ev
FNDA:0,_ZN5Catch6Detail10unique_ptrINS_13MultiReporterEED2Ev
FNDA:2,_ZN5Catch6Detail10unique_ptrINS_14IEventListenerEED2Ev
FNDA:1,_ZN5Catch6Detail10unique_ptrINS_14OutputRedirectEED2Ev
FNDA:0,_ZN5Catch6Detail10unique_ptrINS_15CompactReporterEED2Ev
FNDA:1,_ZN5Catch6Detail10unique_ptrINS_15ConsoleReporterEED2Ev
FNDA:1,_ZN5Catch6Detail10unique_ptrINS_15ReporterFactoryINS_11TAPReporterEEEED2Ev
FNDA:1,_ZN5Catch6Detail10unique_ptrINS_15ReporterFactoryINS_11XmlReporterEEEED2Ev
FNDA:1,_ZN5Catch6Detail10unique_ptrINS_15ReporterFactoryINS_12JsonReporterEEEED2Ev
FNDA:1,_ZN5Catch6Detail10unique_ptrINS_15ReporterFactoryINS_13JunitReporterEEEED2Ev
FNDA:1,_ZN5Catch6Detail10unique_ptrINS_15ReporterFactoryINS_15CompactReporterEEEED2Ev
FNDA:1,_ZN5Catch6Detail10unique_ptrINS_15ReporterFactoryINS_15ConsoleReporterEEEED2Ev
FNDA:1,_ZN5Catch6Detail10unique_ptrINS_15ReporterFactoryINS_16AutomakeReporterEEEED2Ev
FNDA:1,_ZN5Catch6Detail10unique_ptrINS_15ReporterFactoryINS_16TeamCityReporterEEEED2Ev
FNDA:1,_ZN5Catch6Detail10unique_ptrINS_15ReporterFactoryINS_17SonarQubeReporterEEEED2Ev
FNDA:0,_ZN5Catch6Detail10unique_ptrINS_16AutomakeReporterEED2Ev
FNDA:9,_ZN5Catch6Detail10unique_ptrINS_16IReporterFactoryEED2Ev
FNDA:1,_ZN5Catch6Detail10unique_ptrINS_16ReporterRegistry20ReporterRegistryImplEED2Ev
FNDA:0,_ZN5Catch6Detail10unique_ptrINS_16TeamCityReporterEED2Ev
FNDA:307,_ZN5Catch6Detail10unique_ptrINS_16TestCaseTracking14SectionTrackerEED2Ev
FNDA:444,_ZN5Catch6Detail10unique_ptrINS_16TestCaseTracking8ITrackerEED2Ev
FNDA:0,_ZN5Catch6Detail10unique_ptrINS_17SonarQubeReporterEED2Ev
FNDA:0,_ZN5Catch6Detail10unique_ptrINS_20EventListenerFactoryEED2Ev
FNDA:0,_ZN5Catch6Detail10unique_ptrINS_22CumulativeReporterBase11SectionNodeEED2Ev
FNDA:0,_ZN5Catch6Detail10unique_ptrINS_22CumulativeReporterBase4NodeINS_12TestRunStatsENS3_INS_13TestCaseStatsENS2_11SectionNodeEEEEEED2Ev
FNDA:0,_ZN5Catch6Detail10unique_ptrINS_22CumulativeReporterBase4NodeINS_13TestCaseStatsENS2_11SectionNodeEEEED2Ev
FNDA:2,_ZN5Catch6Detail10unique_ptrINS_6ConfigEED2Ev
FNDA:3,_ZN5Catch6Detail10unique_ptrINS_7IStreamEED2Ev
FNDA:0,_ZN5Catch6Detail10unique_ptrINS_8TestSpec10TagPatternEED2Ev
FNDA:0,_ZN5Catch6Detail10unique_ptrINS_8TestSpec11NamePatternEED2Ev
FNDA:0,_ZN5Catch6Detail10unique_ptrINS_8TestSpec7PatternEED2Ev
FNDA:2,_ZN5Catch6Detail10unique_ptrINSt7__cxx1119basic_ostringstreamIcSt11char_traitsIcESaIcEEEED2Ev
FNDA:0,_ZN5Catch6Detail10unique_ptrINS0_8EnumInfoEEdeEv
FNDA:1,_ZN5Catch6Detail10unique_ptrINS_10ColourImplEEdeEv
FNDA:0,_ZN5Catch6Detail10unique_ptrINS_12TablePrinterEEdeEv
FNDA:1,_ZN5Catch6Detail10unique_ptrINS_14IEventListenerEEdeEv
FNDA:310,_ZN5Catch6Detail10unique_ptrINS_14OutputRedirectEEdeEv
FNDA:118,_ZN5Catch6Detail10unique_ptrINS_16TestCaseTracking8ITrackerEEdeEv
FNDA:0,_ZN5Catch6Detail10unique_ptrINS_22CumulativeReporterBase4NodeINS_12TestRunStatsENS3_INS_13TestCaseStatsENS2_11SectionNodeEEEEEEdeEv
FNDA:3,_ZN5Catch6Detail10unique_ptrINS_6ConfigEEdeEv
FNDA:0,_ZNK5Catch6Detail10unique_ptrINS_16TestCaseTracking8ITrackerEEdeEv
FNDA:0,_ZNK5Catch6Detail10unique_ptrINS_22CumulativeReporterBase11SectionNodeEEdeEv
FNDA:0,_ZNK5Catch6Detail10unique_ptrINS_22CumulativeReporterBase4NodeINS_13TestCaseStatsENS2_11SectionNodeEEEEdeEv
FNDA:0,_ZNK5Catch6Detail10unique_ptrINS_8TestSpec7PatternEEdeEv
FNDA:0,_ZN5Catch6Detail10unique_ptrINS0_8EnumInfoEEptEv
FNDA:4,_ZN5Catch6Detail10unique_ptrINS_10ColourImplEEptEv
FNDA:0,_ZN5Catch6Detail10unique_ptrINS_10Generators20GeneratorUntypedBaseEEptEv
FNDA:0,_ZN5Catch6Detail10unique_ptrINS_10Generators23RandomFloatingGeneratorIeE5PImplEEptEv
FNDA:596,_ZN5Catch6Detail10unique_ptrINS_12TablePrinterEEptEv
FNDA:0,_ZN5Catch6Detail10unique_ptrINS_13MultiReporterEEptEv
FNDA:1055,_ZN5Catch6Detail10unique_ptrINS_14IEventListenerEEptEv
FNDA:504,_ZN5Catch6Detail10unique_ptrINS_14OutputRedirectEEptEv
FNDA:9,_ZN5Catch6Detail10unique_ptrINS_16ReporterRegistry20ReporterRegistryImplEEptEv
FNDA:0,_ZN5Catch6Detail10unique_ptrINS_22CumulativeReporterBase4NodeINS_12TestRunStatsENS3_INS_13TestCaseStatsENS2_11SectionNodeEEEEEEptEv
FNDA:0,_ZN5Catch6Detail10unique_ptrINS_22CumulativeReporterBase4NodeINS_13TestCaseStatsENS2_11SectionNodeEEEEptEv
FNDA:3,_ZN5Catch6Detail10unique_ptrINS_6ConfigEEptEv
FNDA:1,_ZN5Catch6Detail10unique_ptrINS_7IStreamEEptEv
FNDA:1,_ZN5Catch10ColourImplC2EPNS_7IStreamE
FNDA:0,_ZNK5Catch6Detail10unique_ptrIKNS_20IExceptionTranslatorEEptEv
FNDA:1,_ZNK5Catch6Detail10unique_ptrINS_16IReporterFactoryEEptEv
FNDA:3,_ZNK5Catch6Detail10unique_ptrINS_16ReporterRegistry20ReporterRegistryImplEEptEv
FNDA:994,_ZNK5Catch6Detail10unique_ptrINS_16TestCaseTracking8ITrackerEEptEv
FNDA:0,_ZNK5Catch6Detail10unique_ptrINS_20EventListenerFactoryEEptEv
FNDA:0,_ZNK5Catch6Detail10unique_ptrINS_22CumulativeReporterBase11SectionNodeEEptEv
FNDA:0,_ZNK5Catch6Detail10unique_ptrINS_22CumulativeReporterBase4NodeINS_13TestCaseStatsENS2_11SectionNodeEEEEptEv
FNDA:0,_ZNK5Catch6Detail10unique_ptrINS_8TestSpec7PatternEEptEv
FNDA:5,_ZN5CatchlsERSoONS_10ColourImpl11ColourGuardE
FNDA:0,_ZN5Catch6Detail10unique_ptrINS0_12_GLOBAL__N_113StreamBufImplINS2_17OutputDebugWriterELm256EEEE3getEv
FNDA:0,_ZN5Catch6Detail10unique_ptrINS_10ColourImplEE3getEv
FNDA:0,_ZN5Catch6Detail10unique_ptrINS_10Generators12_GLOBAL__N_116GeneratorTrackerEE3getEv
FNDA:118,_ZN5Catch6Detail10unique_ptrINS_12ITestInvokerEE3getEv
FNDA:236,_ZN5Catch6Detail10unique_ptrINS_12TestCaseInfoEE3getEv
FNDA:1,_ZN5Catch6Detail10unique_ptrINS_14IEventListenerEE3getEv
FNDA:189,_ZN5Catch6Detail10unique_ptrINS_16TestCaseTracking14SectionTrackerEE3getEv
FNDA:426,_ZN5Catch6Detail10unique_ptrINS_16TestCaseTracking8ITrackerEE3getEv
FNDA:0,_ZN5Catch6Detail10unique_ptrINS_22CumulativeReporterBase11SectionNodeEE3getEv
FNDA:3,_ZN5Catch6Detail10unique_ptrINS_6ConfigEE3getEv
FNDA:1,_ZN5Catch6Detail10unique_ptrINS_7IStreamEE3getEv
FNDA:2,_ZN5Catch6Detail10unique_ptrINSt7__cxx1119basic_ostringstreamIcSt11char_traitsIcESaIcEEEE3getEv
FNDA:0,_ZNK5Catch6Detail10unique_ptrINS_22CumulativeReporterBase4NodeINS_13TestCaseStatsENS2_11SectionNodeEEEE3getEv
FNDA:0,_ZN5Catch6Detail10unique_ptrINS_10Generators20GeneratorUntypedBaseEE5resetEPS3_
FNDA:0,_ZN5Catch6Detail10unique_ptrINS_14IEventListenerEE5resetEPS2_
FNDA:9,_ZN5Catch6Detail10unique_ptrINS_16IReporterFactoryEE5resetEPS2_
FNDA:118,_ZN5Catch6Detail10unique_ptrINS_16TestCaseTracking8ITrackerEE5resetEPS3_
FNDA:0,_ZN5Catch6Detail10unique_ptrINS_22CumulativeReporterBase11SectionNodeEE5resetEPS3_
FNDA:0,_ZN5Catch6Detail10unique_ptrINS_22CumulativeReporterBase4NodeINS_12TestRunStatsENS3_INS_13TestCaseStatsENS2_11SectionNodeEEEEEE5resetEPS8_
FNDA:2,_ZN5Catch6Detail10unique_ptrINS_6ConfigEE5resetEPS2_
FNDA:0,_ZN5Catch6Detail10unique_ptrINS0_12_GLOBAL__N_110CerrStreamEE7releaseEv
FNDA:1,_ZN5Catch6Detail10unique_ptrINS0_12_GLOBAL__N_110CoutStreamEE7releaseEv
FNDA:0,_ZN5Catch6Detail10unique_ptrINS0_12_GLOBAL__N_110FileStreamEE7releaseEv
FNDA:0,_ZN5Catch6Detail10unique_ptrINS0_12_GLOBAL__N_114DebugOutStreamEE7releaseEv
FNDA:0,_ZN5Catch6Detail10unique_ptrINS_10Generators12_GLOBAL__N_116GeneratorTrackerEE7releaseEv
FNDA:0,_ZN5Catch6Detail10unique_ptrINS_10Generators20GeneratorUntypedBaseEE7releaseEv
FNDA:0,_ZN5Catch6Detail10unique_ptrINS_11TAPReporterEE7releaseEv
FNDA:0,_ZN5Catch6Detail10unique_ptrINS_11XmlReporterEE7releaseEv
FNDA:0,_ZN5Catch6Detail10unique_ptrINS_12JsonReporterEE7releaseEv
FNDA:0,_ZN5Catch6Detail10unique_ptrINS_12_GLOBAL__N_112NoColourImplEE7releaseEv
FNDA:1,_ZN5Catch6Detail10unique_ptrINS_12_GLOBAL__N_112NoopRedirectEE7releaseEv
FNDA:1,_ZN5Catch6Detail10unique_ptrINS_12_GLOBAL__N_114ANSIColourImplEE7releaseEv
FNDA:0,_ZN5Catch6Detail10unique_ptrINS_12_GLOBAL__N_114StreamRedirectEE7releaseEv
FNDA:118,_ZN5Catch6Detail10unique_ptrINS_12_GLOBAL__N_121TestInvokerAsFunctionEE7releaseEv
FNDA:0,_ZN5Catch6Detail10unique_ptrINS_13JunitReporterEE7releaseEv
FNDA:0,_ZN5Catch6Detail10unique_ptrINS_13MultiReporterEE7releaseEv
FNDA:0,_ZN5Catch6Detail10unique_ptrINS_14IEventListenerEE7releaseEv
FNDA:0,_ZN5Catch6Detail10unique_ptrINS_15CompactReporterEE7releaseEv
FNDA:1,_ZN5Catch6Detail10unique_ptrINS_15ConsoleReporterEE7releaseEv
FNDA:1,_ZN5Catch6Detail10unique_ptrINS_15ReporterFactoryINS_11TAPReporterEEEE7releaseEv
FNDA:1,_ZN5Catch6Detail10unique_ptrINS_15ReporterFactoryINS_11XmlReporterEEEE7releaseEv
FNDA:1,_ZN5Catch6Detail10unique_ptrINS_15ReporterFactoryINS_12JsonReporterEEEE7releaseEv
FNDA:1,_ZN5Catch6Detail10unique_ptrINS_15ReporterFactoryINS_13JunitReporterEEEE7releaseEv
FNDA:1,_ZN5Catch6Detail10unique_ptrINS_15ReporterFactoryINS_15CompactReporterEEEE7releaseEv
FNDA:1,_ZN5Catch6Detail10unique_ptrINS_15ReporterFactoryINS_15ConsoleReporterEEEE7releaseEv
FNDA:1,_ZN5Catch6Detail10unique_ptrINS_15ReporterFactoryINS_16AutomakeReporterEEEE7releaseEv
FNDA:1,_ZN5Catch6Detail10unique_ptrINS_15ReporterFactoryINS_16TeamCityReporterEEEE7releaseEv
FNDA:1,_ZN5Catch6Detail10unique_ptrINS_15ReporterFactoryINS_17SonarQubeReporterEEEE7releaseEv
FNDA:0,_ZN5Catch6Detail10unique_ptrINS_16AutomakeReporterEE7releaseEv
FNDA:0,_ZN5Catch6Detail10unique_ptrINS_16TeamCityReporterEE7releaseEv
FNDA:307,_ZN5Catch6Detail10unique_ptrINS_16TestCaseTracking14SectionTrackerEE7releaseEv
FNDA:0,_ZN5Catch6Detail10unique_ptrINS_17SonarQubeReporterEE7releaseEv
FNDA:0,_ZN5Catch6Detail10unique_ptrINS_20IExceptionTranslatorEE7releaseEv
FNDA:0,_ZN5Catch6Detail10unique_ptrINS_22CumulativeReporterBase11SectionNodeEE7releaseEv
FNDA:0,_ZN5Catch6Detail10unique_ptrINS_22CumulativeReporterBase4NodeINS_12TestRunStatsENS3_INS_13TestCaseStatsENS2_11SectionNodeEEEEEE7releaseEv
FNDA:1,_ZN5Catch6Detail10unique_ptrINS_6ConfigEE7releaseEv
FNDA:0,_ZN5Catch6Detail10unique_ptrINS_8TestSpec10TagPatternEE7releaseEv
FNDA:0,_ZN5Catch6Detail10unique_ptrINS_8TestSpec11NamePatternEE7releaseEv
FNDA:0,_ZNK5Catch6Detail10unique_ptrINS_10Generators20GeneratorUntypedBaseEEcvbEv
FNDA:1,_ZNK5Catch6Detail10unique_ptrINS_14IEventListenerEEcvbEv
FNDA:0,_ZNK5Catch6Detail10unique_ptrINS_22CumulativeReporterBase11SectionNodeEEcvbEv
FNDA:0,_ZNK5Catch6Detail10unique_ptrINS_22CumulativeReporterBase4NodeINS_12TestRunStatsENS3_INS_13TestCaseStatsENS2_11SectionNodeEEEEEEcvbEv
FNDA:1,_ZNK5Catch6Detail10unique_ptrINS_6ConfigEEcvbEv
FNDA:1,_ZNK5Catch6Detail10unique_ptrINS_7IStreamEEcvbEv
FNDA:0,_ZN5Catch15throw_exceptionINS_18GeneratorExceptionEEEvRKT_
FNDA:0,_ZN5Catch15throw_exceptionINS_9Benchmark6Detail20optimized_away_errorEEEvRKT_
FNDA:0,_ZN5Catch15throw_exceptionISt11logic_errorEEvRKT_
FNDA:0,_ZN5Catch15throw_exceptionISt12domain_errorEEvRKT_
FNDA:0,_ZN5Catch15throw_exceptionISt13runtime_errorEEvRKT_
FNDA:0,_ZN5Catch6Detail11make_uniqueINS0_12_GLOBAL__N_110CerrStreamEJEEENS0_10unique_ptrIT_EEDpOT0_
FNDA:1,_ZN5Catch6Detail11make_uniqueINS0_12_GLOBAL__N_110CoutStreamEJEEENS0_10unique_ptrIT_EEDpOT0_
FNDA:0,_ZN5Catch6Detail11make_uniqueINS0_12_GLOBAL__N_110FileStreamEJRKNSt7__cxx1112basic_stringIcSt11char_traitsIcESaIcEEEEEENS0_10unique_ptrIT_EEDpOT0_
FNDA:0,_ZN5Catch6Detail11make_uniqueINS0_12_GLOBAL__N_113StreamBufImplINS2_17OutputDebugWriterELm256EEEJEEENS0_10unique_ptrIT_EEDpOT0_
FNDA:0,_ZN5Catch6Detail11make_uniqueINS0_12_GLOBAL__N_114DebugOutStreamEJEEENS0_10unique_ptrIT_EEDpOT0_
FNDA:0,_ZN5Catch6Detail11make_uniqueINS0_8EnumInfoEJEEENS0_10unique_ptrIT_EEDpOT0_
FNDA:0,_ZN5Catch6Detail11make_uniqueINS_10Generators12_GLOBAL__N_116GeneratorTrackerEJNS_16TestCaseTracking15NameAndLocationERNS5_14TrackerContextEPNS5_8ITrackerEEEENS0_10unique_ptrIT_EEDpOT0_
FNDA:0,_ZN5Catch6Detail11make_uniqueINS_10Generators23RandomFloatingGeneratorIeE5PImplEJReS6_RjEEENS0_10unique_ptrIT_EEDpOT0_
FNDA:0,_ZN5Catch6Detail11make_uniqueINS_11TAPReporterEJNS_14ReporterConfigEEEENS0_10unique_ptrIT_EEDpOT0_
FNDA:0,_ZN5Catch6Detail11make_uniqueINS_11XmlReporterEJNS_14ReporterConfigEEEENS0_10unique_ptrIT_EEDpOT0_
FNDA:0,_ZN5Catch6Detail11make_uniqueINS_12JsonReporterEJNS_14ReporterConfigEEEENS0_10unique_ptrIT_EEDpOT0_
FNDA:1,_ZN5Catch6Detail11make_uniqueINS_12TablePrinterEJRSoSt6vectorINS_10ColumnInfoESaIS5_EEEEENS0_10unique_ptrIT_EEDpOT0_
FNDA:118,_ZN5Catch6Detail11make_uniqueINS_12TestCaseInfoEJRNS_9StringRefERKNS_11NameAndTagsERKNS_14SourceLineInfoEEEENS0_10unique_ptrIT_EEDpOT0_
FNDA:0,_ZN5Catch6Detail11make_uniqueINS_12_GLOBAL__N_112NoColourImplEJRPNS_7IStreamEEEENS0_10unique_ptrIT_EEDpOT0_
FNDA:1,_ZN5Catch6Detail11make_uniqueINS_12_GLOBAL__N_112NoopRedirectEJEEENS0_10unique_ptrIT_EEDpOT0_
FNDA:1,_ZN5Catch6Detail11make_uniqueINS_12_GLOBAL__N_114ANSIColourImplEJRPNS_7IStreamEEEENS0_10unique_ptrIT_EEDpOT0_
FNDA:0,_ZN5Catch6Detail11make_uniqueINS_12_GLOBAL__N_114StreamRedirectEJEEENS0_10unique_ptrIT_EEDpOT0_
FNDA:118,_ZN5Catch6Detail11make_uniqueINS_12_GLOBAL__N_121TestInvokerAsFunctionEJRPFvvEEEENS0_10unique_ptrIT_EEDpOT0_
FNDA:0,_ZN5Catch6Detail11make_uniqueINS_13JunitReporterEJNS_14ReporterConfigEEEENS0_10unique_ptrIT_EEDpOT0_
FNDA:0,_ZN5Catch6Detail11make_uniqueINS_13MultiReporterEJRPKNS_6ConfigEEEENS0_10unique_ptrIT_EEDpOT0_
FNDA:0,_ZN5Catch6Detail11make_uniqueINS_15CompactReporterEJNS_14ReporterConfigEEEENS0_10unique_ptrIT_EEDpOT0_
FNDA:1,_ZN5Catch6Detail11make_uniqueINS_15ConsoleReporterEJNS_14ReporterConfigEEEENS0_10unique_ptrIT_EEDpOT0_
FNDA:1,_ZN5Catch6Detail11make_uniqueINS_15ReporterFactoryINS_11TAPReporterEEEJEEENS0_10unique_ptrIT_EEDpOT0_
FNDA:1,_ZN5Catch6Detail11make_uniqueINS_15ReporterFactoryINS_11XmlReporterEEEJEEENS0_10unique_ptrIT_EEDpOT0_
FNDA:1,_ZN5Catch6Detail11make_uniqueINS_15ReporterFactoryINS_12JsonReporterEEEJEEENS0_10unique_ptrIT_EEDpOT0_
FNDA:1,_ZN5Catch6Detail11make_uniqueINS_15ReporterFactoryINS_13JunitReporterEEEJEEENS0_10unique_ptrIT_EEDpOT0_
FNDA:1,_ZN5Catch6Detail11make_uniqueINS_15ReporterFactoryINS_15CompactReporterEEEJEEENS0_10unique_ptrIT_EEDpOT0_
FNDA:1,_ZN5Catch6Detail11make_uniqueINS_15ReporterFactoryINS_15ConsoleReporterEEEJEEENS0_10unique_ptrIT_EEDpOT0_
FNDA:1,_ZN5Catch6Detail11make_uniqueINS_15ReporterFactoryINS_16AutomakeReporterEEEJEEENS0_10unique_ptrIT_EEDpOT0_
FNDA:1,_ZN5Catch6Detail11make_uniqueINS_15ReporterFactoryINS_16TeamCityReporterEEEJEEENS0_10unique_ptrIT_EEDpOT0_
FNDA:1,_ZN5Catch6Detail11make_uniqueINS_15ReporterFactoryINS_17SonarQubeReporterEEEJEEENS0_10unique_ptrIT_EEDpOT0_
FNDA:0,_ZN5Catch6Detail11make_uniqueINS_16AutomakeReporterEJNS_14ReporterConfigEEEENS0_10unique_ptrIT_EEDpOT0_
FNDA:1,_ZN5Catch6Detail11make_uniqueINS_16ReporterRegistry20ReporterRegistryImplEJEEENS0_10unique_ptrIT_EEDpOT0_
FNDA:0,_ZN5Catch6Detail11make_uniqueINS_16TeamCityReporterEJNS_14ReporterConfigEEEENS0_10unique_ptrIT_EEDpOT0_
FNDA:118,_ZN5Catch6Detail11make_uniqueINS_16TestCaseTracking14SectionTrackerEJNS2_15NameAndLocationERNS2_14TrackerContextEDnEEENS0_10unique_ptrIT_EEDpOT0_
FNDA:189,_ZN5Catch6Detail11make_uniqueINS_16TestCaseTracking14SectionTrackerEJNS2_15NameAndLocationERNS2_14TrackerContextEPNS2_8ITrackerEEEENS0_10unique_ptrIT_EEDpOT0_
FNDA:0,_ZN5Catch6Detail11make_uniqueINS_17SonarQubeReporterEJNS_14ReporterConfigEEEENS0_10unique_ptrIT_EEDpOT0_
FNDA:0,_ZN5Catch6Detail11make_uniqueINS_22CumulativeReporterBase11SectionNodeEJRNS_12SectionStatsEEEENS0_10unique_ptrIT_EEDpOT0_
FNDA:0,_ZN5Catch6Detail11make_uniqueINS_22CumulativeReporterBase4NodeINS_12TestRunStatsENS3_INS_13TestCaseStatsENS2_11SectionNodeEEEEEJRKS4_EEENS0_10unique_ptrIT_EEDpOT0_
FNDA:0,_ZN5Catch6Detail11make_uniqueINS_22CumulativeReporterBase4NodeINS_13TestCaseStatsENS2_11SectionNodeEEEJRKS4_EEENS0_10unique_ptrIT_EEDpOT0_
FNDA:1,_ZN5Catch6Detail11make_uniqueINS_6ConfigEJRNS_10ConfigDataEEEENS0_10unique_ptrIT_EEDpOT0_
FNDA:0,_ZN5Catch6Detail11make_uniqueINS_8TestSpec10TagPatternEJRA2_KcRNSt7__cxx1112basic_stringIcSt11char_traitsIcESaIcEEEEEENS0_10unique_ptrIT_EEDpOT0_
FNDA:0,_ZN5Catch6Detail11make_uniqueINS_8TestSpec10TagPatternEJRNSt7__cxx1112basic_stringIcSt11char_traitsIcESaIcEEESA_EEENS0_10unique_ptrIT_EEDpOT0_
FNDA:0,_ZN5Catch6Detail11make_uniqueINS_8TestSpec11NamePatternEJRNSt7__cxx1112basic_stringIcSt11char_traitsIcESaIcEEESA_EEENS0_10unique_ptrIT_EEDpOT0_
FNDA:1,_ZN5Catch6Detail11make_uniqueINSt7__cxx1119basic_ostringstreamIcSt11char_traitsIcESaIcEEEJEEENS0_10unique_ptrIT_EEDpOT0_
FNDA:168,_ZN5Catch21FatalConditionHandler6engageEv
FNDA:168,_ZN5Catch21FatalConditionHandler9disengageEv
FNDA:168,_ZN5Catch26FatalConditionHandlerGuardC2EPNS_21FatalConditionHandlerE
FNDA:168,_ZN5Catch26FatalConditionHandlerGuardD2Ev
FNDA:0,_ZN5Catch11ulpDistanceIdEEmT_S1_
FNDA:0,_ZN5Catch11ulpDistanceIfEEmT_S1_
FNF:882
FNH:322
DA:579,995
DA:580,995
DA:582,31
DA:583,1
DA:584,1
DA:585,1
DA:586,1
DA:591,1026
DA:592,1026
DA:723,0
DA:727,0
DA:728,0
DA:729,0
DA:730,0
DA:732,822
DA:733,822
DA:734,822
DA:735,822
DA:737,451
DA:738,902
DA:742,1438
DA:743,1438
DA:744,1438
DA:750,5725
DA:751,5725
DA:752,5725
DA:758,590
DA:759,590
DA:761,2624
DA:762,2624
DA:768,544
DA:769,544
DA:770,544
DA:771,544
DA:773,0
DA:778,120
DA:779,120
DA:782,324
DA:783,324
DA:800,0
DA:801,0
DA:840,30
DA:841,30
DA:861,615
DA:862,615
DA:864,0
DA:865,0
DA:891,11
DA:892,11
DA:893,11
DA:894,560
DA:895,560
DA:896,560
DA:899,311
DA:900,311
DA:901,311
DA:904,127
DA:905,127
DA:907,127
DA:913,984
DA:914,984
DA:915,984
DA:916,984
DA:917,1
DA:918,1
DA:920,1
DA:923,1385
DA:924,1385
DA:925,1385
DA:927,433
DA:928,433
DA:929,433
DA:931,0
DA:932,0
DA:933,0
DA:935,2172
DA:936,2172
DA:937,2172
DA:939,998
DA:940,998
DA:941,998
DA:944,976
DA:945,0
DA:947,129
DA:948,129
DA:949,129
DA:950,129
DA:952,439
DA:953,439
DA:954,439
DA:955,439
DA:958,3
DA:959,3
DA:974,560
DA:975,560
DA:1112,995
DA:1113,995
DA:1114,995
DA:1116,0
DA:1447,0
DA:1448,0
DA:1449,0
DA:1452,0
DA:1491,0
DA:1492,0
DA:1493,0
DA:1571,0
DA:1581,0
DA:1582,0
DA:1583,0
DA:1586,0
DA:1587,0
DA:1588,0
DA:1589,0
DA:1590,0
DA:1591,0
DA:1592,0
DA:1623,0
DA:1629,0
DA:1632,0
DA:1633,0
DA:1634,0
DA:1638,0
DA:1639,0
DA:1640,0
DA:2381,0
DA:2382,0
DA:2383,0
DA:2389,0
DA:2553,0
DA:2554,0
DA:2557,0
DA:2558,0
DA:2559,0
DA:2580,0
DA:2583,0
DA:2585,0
DA:3145,0
DA:3146,0
DA:3250,0
DA:3251,0
DA:3252,0
DA:3253,0
DA:3308,30
DA:3309,30
DA:3310,30
DA:3314,0
DA:3315,0
DA:3450,0
DA:3452,0
DA:3453,0
DA:3486,0
DA:3487,0
DA:3488,0
DA:3517,0
DA:3519,0
DA:3520,0
DA:3544,3
DA:3545,12
DA:3547,0
DA:3548,0
DA:3549,1
DA:3550,1
DA:3557,0
DA:3558,0
DA:3559,0
DA:3560,0
DA:3563,0
DA:3564,0
DA:3565,8
DA:3566,8
DA:3567,8
DA:3569,0
DA:3570,0
DA:3571,0
DA:3572,0
DA:3574,0
DA:3576,0
DA:3577,0
DA:3578,0
DA:3579,0
DA:3580,0
DA:3583,0
DA:3586,12
DA:3587,12
DA:3588,12
DA:3589,12
DA:3591,1
DA:3592,1
DA:3593,1
DA:3595,0
DA:3596,0
DA:3597,0
DA:3603,0
DA:3604,0
DA:3605,0
DA:3608,1
DA:3609,1
DA:3612,9
DA:3613,1
DA:3615,1
DA:3616,9
DA:3617,9
DA:3620,0
DA:3621,0
DA:3622,0
DA:3623,0
DA:3624,0
DA:3626,0
DA:3711,1
DA:3713,2
DA:3714,2
DA:3717,1
DA:3719,1
DA:3720,1
DA:4015,0
DA:4017,0
DA:4018,0
DA:4176,518
DA:4177,518
DA:4178,518
DA:4179,518
DA:4180,518
DA:4314,1
DA:4315,1
DA:4322,0
DA:4323,0
DA:4324,0
DA:4327,0
DA:4328,0
DA:4329,0
DA:4345,2
DA:4349,1
DA:4350,0
DA:4351,0
DA:4362,1
DA:4363,1
DA:4364,1
DA:4366,0
DA:4367,0
DA:4368,0
DA:4372,0
DA:4374,0
DA:4375,0
DA:4376,0
DA:4377,0
DA:4378,0
DA:4379,1
DA:4380,1
DA:4381,1
DA:4382,1
DA:4383,1
DA:4390,2
DA:4391,2
DA:4392,2
DA:4393,2
DA:4403,0
DA:4404,0
DA:4405,0
DA:4406,0
DA:4407,0
DA:4408,0
DA:4412,3
DA:4413,3
DA:4414,3
DA:4415,6
DA:4431,0
DA:4433,0
DA:4434,0
DA:4435,0
DA:4438,2
DA:4439,2
DA:4441,0
DA:4442,0
DA:4444,0
DA:4446,0
DA:4448,0
DA:4451,1
DA:4452,1
DA:4454,0
DA:4455,0
DA:4456,0
DA:4460,1
DA:4464,1
DA:4465,1
DA:4466,1
DA:4467,0
DA:4468,1
DA:4473,0
DA:4475,0
DA:4476,0
DA:4477,0
DA:4488,0
DA:4489,1
DA:4490,1
DA:4492,0
DA:4493,0
DA:4511,0
DA:4512,0
DA:4513,0
DA:4514,0
DA:4517,0
DA:4519,0
DA:4521,0
DA:4540,38
DA:4556,9
DA:4558,1
DA:4559,1
DA:4567,2
DA:4569,0
DA:4571,0
DA:4573,0
DA:4574,0
DA:4575,0
DA:4576,0
DA:4577,0
DA:4578,0
DA:4584,13
DA:4595,0
DA:4597,0
DA:4603,0
DA:4605,0
DA:4606,0
DA:4611,0
DA:4613,0
DA:4614,0
DA:4615,0
DA:4617,0
DA:4618,0
DA:4626,12
DA:4628,0
DA:4631,0
DA:4636,2
DA:4637,0
DA:4651,2
DA:4652,2
DA:4654,0
DA:4656,0
DA:4664,218
DA:4665,0
DA:4690,15
DA:4691,15
DA:4695,2
DA:4698,2
DA:4699,4
DA:4704,10
DA:4705,10
DA:4706,20
DA:4711,10
DA:4712,10
DA:4713,20
DA:4715,1
DA:4716,1
DA:4717,1
DA:4719,36
DA:4720,36
DA:4721,36
DA:4724,1
DA:4725,1
DA:4726,1
DA:4734,0
DA:4735,0
DA:4738,0
DA:4739,0
DA:4740,0
DA:4742,0
DA:4745,0
DA:4769,2
DA:4771,2
DA:4778,10
DA:4779,10
DA:4782,2
DA:4783,2
DA:4788,9
DA:4789,9
DA:4791,3
DA:4792,3
DA:4793,3
DA:4795,51
DA:4796,51
DA:4797,51
DA:4833,0
DA:4846,1
DA:4847,1
DA:4848,1
DA:4851,1
DA:4852,1
DA:4853,1
DA:4856,1
DA:4857,1
DA:4858,1
DA:4860,35
DA:4861,35
DA:4862,35
DA:4875,38
DA:4876,38
DA:4877,38
DA:4884,0
DA:4886,0
DA:4887,0
DA:4911,1
DA:4927,1
DA:4928,1
DA:4982,1
DA:4983,1
DA:4984,0
DA:4985,1
DA:4986,1
DA:4987,1
DA:4988,1
DA:5020,0
DA:5021,0
DA:5022,0
DA:5023,0
DA:5352,0
DA:5353,615
DA:5357,0
DA:5358,0
DA:5359,0
DA:5360,0
DA:5365,0
DA:5366,0
DA:5367,0
DA:6266,0
DA:6277,0
DA:7209,118
DA:7210,118
DA:7211,118
DA:7284,118
DA:7285,118
DA:7287,118
DA:7288,118
DA:7289,118
DA:7291,118
DA:7292,118
DA:7293,118
DA:7295,168
DA:7296,168
DA:7297,168
DA:7299,640
DA:7300,640
DA:7324,2
DA:7519,0
DA:7520,0
DA:7521,0
DA:7565,0
DA:7635,0
DA:7636,0
DA:8102,0
DA:8103,0
DA:8110,1
DA:8246,0
DA:8248,0
DA:8249,0
DA:8250,0
DA:8280,1
DA:8289,1
DA:8290,1
DA:8292,1
DA:8293,1
DA:8299,0
DA:8307,0
DA:8308,0
DA:8309,0
DA:8310,0
DA:8312,0
DA:8313,0
DA:8314,0
DA:8315,0
DA:8317,0
DA:8351,0
DA:8357,0
DA:8401,0
DA:8404,0
DA:8407,0
DA:8410,0
DA:8411,0
DA:8414,0
DA:8415,0
DA:8416,0
DA:8418,0
DA:8420,0
DA:8426,0
DA:8427,0
DA:8428,0
DA:8429,0
DA:8430,0
DA:8431,0
DA:8434,0
DA:8436,0
DA:8437,0
DA:8440,0
DA:8441,0
DA:8444,0
DA:8445,0
DA:8446,0
DA:8449,0
DA:8729,0
DA:8953,0
DA:9036,1
DA:9043,3
DA:9044,3
DA:9357,1
DA:9401,5
DA:9403,5
DA:9404,5
DA:9610,0
DA:9611,0
DA:9748,168
DA:9749,168
DA:9750,168
DA:9751,168
DA:9752,168
DA:9754,168
DA:9755,168
DA:9756,168
DA:9757,168
DA:9758,168
DA:9765,168
DA:9766,168
DA:9767,168
DA:9768,168
DA:9769,168
DA:9770,168
DA:9771,168
DA:9830,0
DA:9833,0
DA:9835,0
DA:9840,0
DA:9846,0
DA:9847,0
DA:9851,0
DA:9852,0
DA:9853,0
DA:9859,0
DA:9860,0
DA:9864,0
DA:9865,0
DA:9868,0
DA:10056,0
DA:10104,0
DA:10105,0
DA:10106,0
DA:10120,0
DA:10121,0
DA:10122,0
DA:10123,0
DA:10163,0
DA:10164,0
DA:10171,0
DA:10172,0
DA:10173,0
DA:10174,0
DA:10176,0
DA:10270,310
DA:10271,310
DA:10272,310
DA:10273,310
DA:10274,310
DA:10275,310
DA:10276,310
DA:10277,310
DA:10278,310
DA:10279,310
DA:10280,310
DA:10400,0
DA:10405,0
DA:10406,0
DA:10408,0
DA:10410,0
DA:10425,447
DA:10426,447
DA:10427,447
DA:10429,258
DA:10435,258
DA:10436,516
DA:10437,516
DA:10469,307
DA:10470,307
DA:10471,307
DA:10472,307
DA:10476,1076
DA:10477,1076
DA:10479,0
DA:10480,0
DA:10491,168
DA:10492,168
DA:10513,0
DA:10514,0
DA:10553,168
DA:10554,168
DA:10555,168
DA:10556,168
DA:10560,686
DA:10605,0
DA:10651,2
DA:10816,1
DA:10817,1
DA:10819,1
DA:10820,1
DA:10823,0
DA:10825,0
DA:10826,0
DA:10828,0
DA:10829,0
DA:10831,0
DA:10832,0
DA:10834,0
DA:10859,125
DA:10861,125
DA:10862,2
DA:10863,2
DA:10865,125
DA:10869,5
DA:10870,5
DA:10872,120
DA:10873,120
DA:10966,2
DA:10967,2
DA:10968,2
DA:10969,2
DA:11137,0
DA:11138,0
DA:11139,0
DA:11140,0
DA:11141,0
DA:11212,0
DA:11213,0
DA:11226,0
DA:11227,0
DA:11228,0
DA:11229,0
DA:11231,0
DA:11233,0
DA:11234,0
DA:11235,0
DA:11237,0
DA:11238,0
DA:11239,0
DA:11240,0
DA:11242,0
DA:11243,0
DA:11244,0
DA:11252,0
DA:11253,0
DA:11255,0
DA:11256,0
DA:11258,0
DA:11259,0
DA:11262,0
DA:11263,0
DA:11264,0
DA:11304,0
DA:11305,0
DA:11306,0
DA:11307,0
DA:11308,0
DA:11336,0
DA:11337,0
DA:11338,0
DA:11340,0
DA:11341,0
DA:11346,0
DA:11347,0
DA:11348,0
DA:11350,0
DA:11351,0
DA:11352,0
DA:11353,0
DA:11355,0
DA:11356,0
DA:11357,0
DA:11358,0
DA:11364,0
DA:11365,0
DA:11366,0
DA:11372,0
DA:11373,0
DA:11374,0
DA:11377,0
DA:11378,0
DA:11379,0
DA:11380,0
DA:11419,0
DA:11420,0
DA:11428,0
DA:11429,0
DA:11492,0
DA:11494,0
DA:11497,0
DA:11499,0
DA:11513,0
DA:11514,0
DA:11552,0
DA:11554,0
DA:11555,0
DA:11593,0
DA:11594,0
DA:11595,0
DA:11596,0
DA:11597,0
DA:11678,0
DA:11679,0
DA:11680,0
DA:11681,0
DA:11682,0
DA:11684,0
DA:11685,0
DA:11687,0
DA:11688,0
DA:11761,0
DA:11997,0
DA:12291,0
DA:12292,0
DA:12293,0
DA:12454,0
DA:12455,0
DA:12456,0
DA:12573,0
DA:13322,1
DA:13323,1
DA:13324,1
DA:13327,0
DA:13328,0
DA:13329,0
DA:13330,0
DA:13332,0
DA:13333,0
DA:13334,0
DA:13338,118
DA:13339,118
DA:13340,118
DA:13341,168
DA:13342,239
DA:13343,239
DA:13344,239
DA:13346,0
DA:13347,0
DA:13349,239
DA:13350,239
DA:13351,239
DA:13352,168
DA:13353,118
DA:13354,118
DA:13355,118
DA:13358,0
DA:13361,0
DA:13383,0
DA:13384,0
DA:13385,0
DA:13386,0
DA:13390,0
DA:13392,0
DA:13414,0
DA:13415,0
DA:13416,0
DA:13417,0
DA:13552,0
DA:13559,0
DA:13580,0
DA:13581,0
DA:13582,0
DA:13585,0
DA:13586,0
DA:13588,0
DA:13590,0
DA:13591,0
DA:13592,0
DA:13594,0
DA:13596,0
DA:13597,0
DA:13600,0
DA:13604,0
DA:13610,0
DA:13718,0
DA:13938,0
DA:13939,0
DA:13940,0
DA:13941,0
DA:14019,1
DA:14020,1
DA:14023,0
DA:14024,0
DA:14117,0
DA:14118,0
DA:14119,0
DA:14120,0
DA:14121,0
DA:14122,0
DA:14123,0
DA:14124,0
DA:14126,0
DA:14128,0
DA:14133,0
DA:14134,0
DA:14135,0
DA:14136,0
DA:14168,0
DA:14169,0
DA:14170,0
DA:14171,0
DA:14172,0
DA:14174,0
DA:14176,0
DA:14211,0
DA:14212,0
DA:14214,0
DA:14215,0
DA:14216,0
DA:14220,0
DA:14222,0
DA:14231,0
DA:14232,0
DA:14233,0
DA:14234,0
LF:815
LH:335
end_of_record
TN:
SF:/usr/include/c++/13/bit
FN:195,237,_ZSt13__countl_zeroImEiT_
FN:365,369,_ZSt11__bit_widthImEiT_
FNDA:119,_ZSt13__countl_zeroImEiT_
FNDA:119,_ZSt11__bit_widthImEiT_
FNF:2
FNH:2
DA:195,119
DA:198,119
DA:200,119
DA:201,0
DA:203,119
DA:204,119
DA:205,119
DA:214,119
DA:215,119
DA:365,119
DA:367,119
DA:368,119
LF:12
LH:11
end_of_record
TN:
SF:/usr/include/c++/13/bits/alloc_traits.h
FNF:0
FNH:0
DA:482,819
DA:517,819
DA:538,2373
DA:542,2373
DA:562,1216
DA:574,825
DA:588,8
DA:661,41
DA:675,41
DA:722,0
DA:755,6
DA:759,6
DA:792,0
DA:948,1011
DA:949,1011
LF:15
LH:13
end_of_record
TN:
SF:/usr/include/c++/13/bits/allocated_ptr.h
FN:53,55,_ZNSt15__allocated_ptrISaISt23_Sp_counted_ptr_inplaceIN5Catch5Clara6Detail11BoundLambdaIZNS1_21makeCommandLineParserERNS1_10ConfigDataEEUlRKNSt7__cxx1112basic_stringIcSt11char_traitsIcESaIcEEEE0_EESaIvELN9__gnu_cxx12_Lock_policyE2EEEEC2ERSL_PSK_
FN:53,55,_ZNSt15__allocated_ptrISaISt23_Sp_counted_ptr_inplaceIN5Catch5Clara6Detail11BoundLambdaIZNS1_21makeCommandLineParserERNS1_10ConfigDataEEUlRKNSt7__cxx1112basic_stringIcSt11char_traitsIcESaIcEEEE1_EESaIvELN9__gnu_cxx12_Lock_policyE2EEEEC2ERSL_PSK_
FN:53,55,_ZNSt15__allocated_ptrISaISt23_Sp_counted_ptr_inplaceIN5Catch5Clara6Detail11BoundLambdaIZNS1_21makeCommandLineParserERNS1_10ConfigDataEEUlRKNSt7__cxx1112basic_stringIcSt11char_traitsIcESaIcEEEE2_EESaIvELN9__gnu_cxx12_Lock_policyE2EEEEC2ERSL_PSK_
FN:53,55,_ZNSt15__allocated_ptrISaISt23_Sp_counted_ptr_inplaceIN5Catch5Clara6Detail11BoundLambdaIZNS1_21makeCommandLineParserERNS1_10ConfigDataEEUlRKNSt7__cxx1112basic_stringIcSt11char_traitsIcESaIcEEEE3_EESaIvELN9__gnu_cxx12_Lock_policyE2EEEEC2ERSL_PSK_
FN:53,55,_ZNSt15__allocated_ptrISaISt23_Sp_counted_ptr_inplaceIN5Catch5Clara6Detail11BoundLambdaIZNS1_21makeCommandLineParserERNS1_10ConfigDataEEUlRKNSt7__cxx1112basic_stringIcSt11char_traitsIcESaIcEEEE4_EESaIvELN9__gnu_cxx12_Lock_policyE2EEEEC2ERSL_PSK_
FN:53,55,_ZNSt15__allocated_ptrISaISt23_Sp_counted_ptr_inplaceIN5Catch5Clara6Detail11BoundLambdaIZNS1_21makeCommandLineParserERNS1_10ConfigDataEEUlRKNSt7__cxx1112basic_stringIcSt11char_traitsIcESaIcEEEE5_EESaIvELN9__gnu_cxx12_Lock_policyE2EEEEC2ERSL_PSK_
FN:53,55,_ZNSt15__allocated_ptrISaISt23_Sp_counted_ptr_inplaceIN5Catch5Clara6Detail11BoundLambdaIZNS1_21makeCommandLineParserERNS1_10ConfigDataEEUlRKNSt7__cxx1112basic_stringIcSt11char_traitsIcESaIcEEEE7_EESaIvELN9__gnu_cxx12_Lock_policyE2EEEEC2ERSL_PSK_
FN:53,55,_ZNSt15__allocated_ptrISaISt23_Sp_counted_ptr_inplaceIN5Catch5Clara6Detail11BoundLambdaIZNS1_21makeCommandLineParserERNS1_10ConfigDataEEUlRKNSt7__cxx1112basic_stringIcSt11char_traitsIcESaIcEEEE8_EESaIvELN9__gnu_cxx12_Lock_policyE2EEEEC2ERSL_PSK_
FN:53,55,_ZNSt15__allocated_ptrISaISt23_Sp_counted_ptr_inplaceIN5Catch5Clara6Detail11BoundLambdaIZNS1_21makeCommandLineParserERNS1_10ConfigDataEEUlbE0_EESaIvELN9__gnu_cxx12_Lock_policyE2EEEEC2ERSD_PSC_
FN:53,55,_ZNSt15__allocated_ptrISaISt23_Sp_counted_ptr_inplaceIN5Catch5Clara6Detail11BoundLambdaIZNS1_21makeCommandLineParserERNS1_10ConfigDataEEUliE_EESaIvELN9__gnu_cxx12_Lock_policyE2EEEEC2ERSD_PSC_
FN:53,55,_ZNSt15__allocated_ptrISaISt23_Sp_counted_ptr_inplaceIN5Catch5Clara6Detail12BoundFlagRefESaIvELN9__gnu_cxx12_Lock_policyE2EEEEC2ERS9_PS8_
FN:53,55,_ZNSt15__allocated_ptrISaISt23_Sp_counted_ptr_inplaceIN5Catch5Clara6Detail13BoundValueRefINSt7__cxx1112basic_stringIcSt11char_traitsIcESaIcEEEEESaIvELN9__gnu_cxx12_Lock_policyE2EEEEC2ERSG_PSF_
FN:53,55,_ZNSt15__allocated_ptrISaISt23_Sp_counted_ptr_inplaceIN5Catch5Clara6Detail13BoundValueRefISt6vectorINSt7__cxx1112basic_stringIcSt11char_traitsIcESaIcEEESaISB_EEEESaIvELN9__gnu_cxx12_Lock_policyE2EEEEC2ERSJ_PSI_
FN:53,55,_ZNSt15__allocated_ptrISaISt23_Sp_counted_ptr_inplaceIN5Catch5Clara6Detail13BoundValueRefIdEESaIvELN9__gnu_cxx12_Lock_policyE2EEEEC2ERSA_PS9_
FN:53,55,_ZNSt15__allocated_ptrISaISt23_Sp_counted_ptr_inplaceIN5Catch5Clara6Detail13BoundValueRefIjEESaIvELN9__gnu_cxx12_Lock_policyE2EEEEC2ERSA_PS9_
FN:53,55,_ZNSt15__allocated_ptrISaISt23_Sp_counted_ptr_inplaceIN5Catch5Clara6Detail13BoundValueRefIlEESaIvELN9__gnu_cxx12_Lock_policyE2EEEEC2ERSA_PS9_
FN:53,55,_ZNSt15__allocated_ptrISaISt23_Sp_counted_ptr_inplaceIN5Catch5Clara6Detail15BoundFlagLambdaIZNS1_21makeCommandLineParserERNS1_10ConfigDataEEUlbE_EESaIvELN9__gnu_cxx12_Lock_policyE2EEEEC2ERSD_PSC_
FN:53,55,_ZNSt15__allocated_ptrISaISt23_Sp_counted_ptr_inplaceIN5Catch5Clara6Detail15BoundFlagLambdaIZNS2_4HelpC4ERbEUlbE_EESaIvELN9__gnu_cxx12_Lock_policyE2EEEEC2ERSD_PSC_
FN:53,55,_ZNSt15__allocated_ptrISaISt23_Sp_counted_ptr_inplaceIN5Catch5Clara6Detail15BoundManyLambdaIZNS1_21makeCommandLineParserERNS1_10ConfigDataEEUlRKNSt7__cxx1112basic_stringIcSt11char_traitsIcESaIcEEEE6_EESaIvELN9__gnu_cxx12_Lock_policyE2EEEEC2ERSL_PSK_
FN:53,55,_ZNSt15__allocated_ptrISaISt23_Sp_counted_ptr_inplaceIN5Catch5Clara6Detail15BoundManyLambdaIZNS1_21makeCommandLineParserERNS1_10ConfigDataEEUlRKNSt7__cxx1112basic_stringIcSt11char_traitsIcESaIcEEEE_EESaIvELN9__gnu_cxx12_Lock_policyE2EEEEC2ERSL_PSK_
FN:53,55,_ZNSt15__allocated_ptrISaISt23_Sp_counted_ptr_inplaceINSt7__cxx1112basic_stringIcSt11char_traitsIcESaIcEEESaIvELN9__gnu_cxx12_Lock_policyE2EEEEC2ERSB_PSA_
FN:53,55,_ZNSt15__allocated_ptrISaISt23_Sp_counted_ptr_inplaceINSt8__detail4_NFAINSt7__cxx1112regex_traitsIcEEEESaIvELN9__gnu_cxx12_Lock_policyE2EEEEC2ERSB_PSA_
FN:71,75,_ZNSt15__allocated_ptrISaISt23_Sp_counted_ptr_inplaceIN5Catch5Clara6Detail11BoundLambdaIZNS1_21makeCommandLineParserERNS1_10ConfigDataEEUlRKNSt7__cxx1112basic_stringIcSt11char_traitsIcESaIcEEEE0_EESaIvELN9__gnu_cxx12_Lock_policyE2EEEED2Ev
FN:71,75,_ZNSt15__allocated_ptrISaISt23_Sp_counted_ptr_inplaceIN5Catch5Clara6Detail11BoundLambdaIZNS1_21makeCommandLineParserERNS1_10ConfigDataEEUlRKNSt7__cxx1112basic_stringIcSt11char_traitsIcESaIcEEEE1_EESaIvELN9__gnu_cxx12_Lock_policyE2EEEED2Ev
FN:71,75,_ZNSt15__allocated_ptrISaISt23_Sp_counted_ptr_inplaceIN5Catch5Clara6Detail11BoundLambdaIZNS1_21makeCommandLineParserERNS1_10ConfigDataEEUlRKNSt7__cxx1112basic_stringIcSt11char_traitsIcESaIcEEEE2_EESaIvELN9__gnu_cxx12_Lock_policyE2EEEED2Ev
FN:71,75,_ZNSt15__allocated_ptrISaISt23_Sp_counted_ptr_inplaceIN5Catch5Clara6Detail11BoundLambdaIZNS1_21makeCommandLineParserERNS1_10ConfigDataEEUlRKNSt7__cxx1112basic_stringIcSt11char_traitsIcESaIcEEEE3_EESaIvELN9__gnu_cxx12_Lock_policyE2EEEED2Ev
FN:71,75,_ZNSt15__allocated_ptrISaISt23_Sp_counted_ptr_inplaceIN5Catch5Clara6Detail11BoundLambdaIZNS1_21makeCommandLineParserERNS1_10ConfigDataEEUlRKNSt7__cxx1112basic_stringIcSt11char_traitsIcESaIcEEEE4_EESaIvELN9__gnu_cxx12_Lock_policyE2EEEED2Ev
FN:71,75,_ZNSt15__allocated_ptrISaISt23_Sp_counted_ptr_inplaceIN5Catch5Clara6Detail11BoundLambdaIZNS1_21makeCommandLineParserERNS1_10ConfigDataEEUlRKNSt7__cxx1112basic_stringIcSt11char_traitsIcESaIcEEEE5_EESaIvELN9__gnu_cxx12_Lock_policyE2EEEED2Ev
FN:71,75,_ZNSt15__allocated_ptrISaISt23_Sp_counted_ptr_inplaceIN5Catch5Clara6Detail11BoundLambdaIZNS1_21makeCommandLineParserERNS1_10ConfigDataEEUlRKNSt7__cxx1112basic_stringIcSt11char_traitsIcESaIcEEEE7_EESaIvELN9__gnu_cxx12_Lock_policyE2EEEED2Ev
FN:71,75,_ZNSt15__allocated_ptrISaISt23_Sp_counted_ptr_inplaceIN5Catch5Clara6Detail11BoundLambdaIZNS1_21makeCommandLineParserERNS1_10ConfigDataEEUlRKNSt7__cxx1112basic_stringIcSt11char_traitsIcESaIcEEEE8_EESaIvELN9__gnu_cxx12_Lock_policyE2EEEED2Ev
FN:71,75,_ZNSt15__allocated_ptrISaISt23_Sp_counted_ptr_inplaceIN5Catch5Clara6Detail11BoundLambdaIZNS1_21makeCommandLineParserERNS1_10ConfigDataEEUlbE0_EESaIvELN9__gnu_cxx12_Lock_policyE2EEEED2Ev
FN:71,75,_ZNSt15__allocated_ptrISaISt23_Sp_counted_ptr_inplaceIN5Catch5Clara6Detail11BoundLambdaIZNS1_21makeCommandLineParserERNS1_10ConfigDataEEUliE_EESaIvELN9__gnu_cxx12_Lock_policyE2EEEED2Ev
FN:71,75,_ZNSt15__allocated_ptrISaISt23_Sp_counted_ptr_inplaceIN5Catch5Clara6Detail12BoundFlagRefESaIvELN9__gnu_cxx12_Lock_policyE2EEEED2Ev
FN:71,75,_ZNSt15__allocated_ptrISaISt23_Sp_counted_ptr_inplaceIN5Catch5Clara6Detail13BoundValueRefINSt7__cxx1112basic_stringIcSt11char_traitsIcESaIcEEEEESaIvELN9__gnu_cxx12_Lock_policyE2EEEED2Ev
FN:71,75,_ZNSt15__allocated_ptrISaISt23_Sp_counted_ptr_inplaceIN5Catch5Clara6Detail13BoundValueRefISt6vectorINSt7__cxx1112basic_stringIcSt11char_traitsIcESaIcEEESaISB_EEEESaIvELN9__gnu_cxx12_Lock_policyE2EEEED2Ev
FN:71,75,_ZNSt15__allocated_ptrISaISt23_Sp_counted_ptr_inplaceIN5Catch5Clara6Detail13BoundValueRefIdEESaIvELN9__gnu_cxx12_Lock_policyE2EEEED2Ev
FN:71,75,_ZNSt15__allocated_ptrISaISt23_Sp_counted_ptr_inplaceIN5Catch5Clara6Detail13BoundValueRefIjEESaIvELN9__gnu_cxx12_Lock_policyE2EEEED2Ev
FN:71,75,_ZNSt15__allocated_ptrISaISt23_Sp_counted_ptr_inplaceIN5Catch5Clara6Detail13BoundValueRefIlEESaIvELN9__gnu_cxx12_Lock_policyE2EEEED2Ev
FN:71,75,_ZNSt15__allocated_ptrISaISt23_Sp_counted_ptr_inplaceIN5Catch5Clara6Detail15BoundFlagLambdaIZNS1_21makeCommandLineParserERNS1_10ConfigDataEEUlbE_EESaIvELN9__gnu_cxx12_Lock_policyE2EEEED2Ev
FN:71,75,_ZNSt15__allocated_ptrISaISt23_Sp_counted_ptr_inplaceIN5Catch5Clara6Detail15BoundFlagLambdaIZNS2_4HelpC4ERbEUlbE_EESaIvELN9__gnu_cxx12_Lock_policyE2EEEED2Ev
FN:71,75,_ZNSt15__allocated_ptrISaISt23_Sp_counted_ptr_inplaceIN5Catch5Clara6Detail15BoundManyLambdaIZNS1_21makeCommandLineParserERNS1_10ConfigDataEEUlRKNSt7__cxx1112basic_stringIcSt11char_traitsIcESaIcEEEE6_EESaIvELN9__gnu_cxx12_Lock_policyE2EEEED2Ev
FN:71,75,_ZNSt15__allocated_ptrISaISt23_Sp_counted_ptr_inplaceIN5Catch5Clara6Detail15BoundManyLambdaIZNS1_21makeCommandLineParserERNS1_10ConfigDataEEUlRKNSt7__cxx1112basic_stringIcSt11char_traitsIcESaIcEEEE_EESaIvELN9__gnu_cxx12_Lock_policyE2EEEED2Ev
FN:71,75,_ZNSt15__allocated_ptrISaISt23_Sp_counted_ptr_inplaceINSt7__cxx1112basic_stringIcSt11char_traitsIcESaIcEEESaIvELN9__gnu_cxx12_Lock_policyE2EEEED2Ev
FN:71,75,_ZNSt15__allocated_ptrISaISt23_Sp_counted_ptr_inplaceINSt8__detail4_NFAINSt7__cxx1112regex_traitsIcEEEESaIvELN9__gnu_cxx12_Lock_policyE2EEEED2Ev
FN:79,83,_ZNSt15__allocated_ptrISaISt23_Sp_counted_ptr_inplaceIN5Catch5Clara6Detail11BoundLambdaIZNS1_21makeCommandLineParserERNS1_10ConfigDataEEUlRKNSt7__cxx1112basic_stringIcSt11char_traitsIcESaIcEEEE0_EESaIvELN9__gnu_cxx12_Lock_policyE2EEEEaSEDn
FN:79,83,_ZNSt15__allocated_ptrISaISt23_Sp_counted_ptr_inplaceIN5Catch5Clara6Detail11BoundLambdaIZNS1_21makeCommandLineParserERNS1_10ConfigDataEEUlRKNSt7__cxx1112basic_stringIcSt11char_traitsIcESaIcEEEE1_EESaIvELN9__gnu_cxx12_Lock_policyE2EEEEaSEDn
FN:79,83,_ZNSt15__allocated_ptrISaISt23_Sp_counted_ptr_inplaceIN5Catch5Clara6Detail11BoundLambdaIZNS1_21makeCommandLineParserERNS1_10ConfigDataEEUlRKNSt7__cxx1112basic_stringIcSt11char_traitsIcESaIcEEEE2_EESaIvELN9__gnu_cxx12_Lock_policyE2EEEEaSEDn
FN:79,83,_ZNSt15__allocated_ptrISaISt23_Sp_counted_ptr_inplaceIN5Catch5Clara6Detail11BoundLambdaIZNS1_21makeCommandLineParserERNS1_10ConfigDataEEUlRKNSt7__cxx1112basic_stringIcSt11char_traitsIcESaIcEEEE3_EESaIvELN9__gnu_cxx12_Lock_policyE2EEEEaSEDn
FN:79,83,_ZNSt15__allocated_ptrISaISt23_Sp_counted_ptr_inplaceIN5Catch5Clara6Detail11BoundLambdaIZNS1_21makeCommandLineParserERNS1_10ConfigDataEEUlRKNSt7__cxx1112basic_stringIcSt11char_traitsIcESaIcEEEE4_EESaIvELN9__gnu_cxx12_Lock_policyE2EEEEaSEDn
FN:79,83,_ZNSt15__allocated_ptrISaISt23_Sp_counted_ptr_inplaceIN5Catch5Clara6Detail11BoundLambdaIZNS1_21makeCommandLineParserERNS1_10ConfigDataEEUlRKNSt7__cxx1112basic_stringIcSt11char_traitsIcESaIcEEEE5_EESaIvELN9__gnu_cxx12_Lock_policyE2EEEEaSEDn
FN:79,83,_ZNSt15__allocated_ptrISaISt23_Sp_counted_ptr_inplaceIN5Catch5Clara6Detail11BoundLambdaIZNS1_21makeCommandLineParserERNS1_10ConfigDataEEUlRKNSt7__cxx1112basic_stringIcSt11char_traitsIcESaIcEEEE7_EESaIvELN9__gnu_cxx12_Lock_policyE2EEEEaSEDn
FN:79,83,_ZNSt15__allocated_ptrISaISt23_Sp_counted_ptr_inplaceIN5Catch5Clara6Detail11BoundLambdaIZNS1_21makeCommandLineParserERNS1_10ConfigDataEEUlRKNSt7__cxx1112basic_stringIcSt11char_traitsIcESaIcEEEE8_EESaIvELN9__gnu_cxx12_Lock_policyE2EEEEaSEDn
FN:79,83,_ZNSt15__allocated_ptrISaISt23_Sp_counted_ptr_inplaceIN5Catch5Clara6Detail11BoundLambdaIZNS1_21makeCommandLineParserERNS1_10ConfigDataEEUlbE0_EESaIvELN9__gnu_cxx12_Lock_policyE2EEEEaSEDn
FN:79,83,_ZNSt15__allocated_ptrISaISt23_Sp_counted_ptr_inplaceIN5Catch5Clara6Detail11BoundLambdaIZNS1_21makeCommandLineParserERNS1_10ConfigDataEEUliE_EESaIvELN9__gnu_cxx12_Lock_policyE2EEEEaSEDn
FN:79,83,_ZNSt15__allocated_ptrISaISt23_Sp_counted_ptr_inplaceIN5Catch5Clara6Detail12BoundFlagRefESaIvELN9__gnu_cxx12_Lock_policyE2EEEEaSEDn
FN:79,83,_ZNSt15__allocated_ptrISaISt23_Sp_counted_ptr_inplaceIN5Catch5Clara6Detail13BoundValueRefINSt7__cxx1112basic_stringIcSt11char_traitsIcESaIcEEEEESaIvELN9__gnu_cxx12_Lock_policyE2EEEEaSEDn
FN:79,83,_ZNSt15__allocated_ptrISaISt23_Sp_counted_ptr_inplaceIN5Catch5Clara6Detail13BoundValueRefISt6vectorINSt7__cxx1112basic_stringIcSt11char_traitsIcESaIcEEESaISB_EEEESaIvELN9__gnu_cxx12_Lock_policyE2EEEEaSEDn
FN:79,83,_ZNSt15__allocated_ptrISaISt23_Sp_counted_ptr_inplaceIN5Catch5Clara6Detail13BoundValueRefIdEESaIvELN9__gnu_cxx12_Lock_policyE2EEEEaSEDn
FN:79,83,_ZNSt15__allocated_ptrISaISt23_Sp_counted_ptr_inplaceIN5Catch5Clara6Detail13BoundValueRefIjEESaIvELN9__gnu_cxx12_Lock_policyE2EEEEaSEDn
FN:79,83,_ZNSt15__allocated_ptrISaISt23_Sp_counted_ptr_inplaceIN5Catch5Clara6Detail13BoundValueRefIlEESaIvELN9__gnu_cxx12_Lock_policyE2EEEEaSEDn
FN:79,83,_ZNSt15__allocated_ptrISaISt23_Sp_counted_ptr_inplaceIN5Catch5Clara6Detail15BoundFlagLambdaIZNS1_21makeCommandLineParserERNS1_10ConfigDataEEUlbE_EESaIvELN9__gnu_cxx12_Lock_policyE2EEEEaSEDn
FN:79,83,_ZNSt15__allocated_ptrISaISt23_Sp_counted_ptr_inplaceIN5Catch5Clara6Detail15BoundFlagLambdaIZNS2_4HelpC4ERbEUlbE_EESaIvELN9__gnu_cxx12_Lock_policyE2EEEEaSEDn
FN:79,83,_ZNSt15__allocated_ptrISaISt23_Sp_counted_ptr_inplaceIN5Catch5Clara6Detail15BoundManyLambdaIZNS1_21makeCommandLineParserERNS1_10ConfigDataEEUlRKNSt7__cxx1112basic_stringIcSt11char_traitsIcESaIcEEEE6_EESaIvELN9__gnu_cxx12_Lock_policyE2EEEEaSEDn
FN:79,83,_ZNSt15__allocated_ptrISaISt23_Sp_counted_ptr_inplaceIN5Catch5Clara6Detail15BoundManyLambdaIZNS1_21makeCommandLineParserERNS1_10ConfigDataEEUlRKNSt7__cxx1112basic_stringIcSt11char_traitsIcESaIcEEEE_EESaIvELN9__gnu_cxx12_Lock_policyE2EEEEaSEDn
FN:79,83,_ZNSt15__allocated_ptrISaISt23_Sp_counted_ptr_inplaceINSt7__cxx1112basic_stringIcSt11char_traitsIcESaIcEEESaIvELN9__gnu_cxx12_Lock_policyE2EEEEaSEDn
FN:79,83,_ZNSt15__allocated_ptrISaISt23_Sp_counted_ptr_inplaceINSt8__detail4_NFAINSt7__cxx1112regex_traitsIcEEEESaIvELN9__gnu_cxx12_Lock_policyE2EEEEaSEDn
FN:86,86,_ZNSt15__allocated_ptrISaISt23_Sp_counted_ptr_inplaceIN5Catch5Clara6Detail11BoundLambdaIZNS1_21makeCommandLineParserERNS1_10ConfigDataEEUlRKNSt7__cxx1112basic_stringIcSt11char_traitsIcESaIcEEEE0_EESaIvELN9__gnu_cxx12_Lock_policyE2EEEE3getEv
FN:86,86,_ZNSt15__allocated_ptrISaISt23_Sp_counted_ptr_inplaceIN5Catch5Clara6Detail11BoundLambdaIZNS1_21makeCommandLineParserERNS1_10ConfigDataEEUlRKNSt7__cxx1112basic_stringIcSt11char_traitsIcESaIcEEEE1_EESaIvELN9__gnu_cxx12_Lock_policyE2EEEE3getEv
FN:86,86,_ZNSt15__allocated_ptrISaISt23_Sp_counted_ptr_inplaceIN5Catch5Clara6Detail11BoundLambdaIZNS1_21makeCommandLineParserERNS1_10ConfigDataEEUlRKNSt7__cxx1112basic_stringIcSt11char_traitsIcESaIcEEEE2_EESaIvELN9__gnu_cxx12_Lock_policyE2EEEE3getEv
FN:86,86,_ZNSt15__allocated_ptrISaISt23_Sp_counted_ptr_inplaceIN5Catch5Clara6Detail11BoundLambdaIZNS1_21makeCommandLineParserERNS1_10ConfigDataEEUlRKNSt7__cxx1112basic_stringIcSt11char_traitsIcESaIcEEEE3_EESaIvELN9__gnu_cxx12_Lock_policyE2EEEE3getEv
FN:86,86,_ZNSt15__allocated_ptrISaISt23_Sp_counted_ptr_inplaceIN5Catch5Clara6Detail11BoundLambdaIZNS1_21makeCommandLineParserERNS1_10ConfigDataEEUlRKNSt7__cxx1112basic_stringIcSt11char_traitsIcESaIcEEEE4_EESaIvELN9__gnu_cxx12_Lock_policyE2EEEE3getEv
FN:86,86,_ZNSt15__allocated_ptrISaISt23_Sp_counted_ptr_inplaceIN5Catch5Clara6Detail11BoundLambdaIZNS1_21makeCommandLineParserERNS1_10ConfigDataEEUlRKNSt7__cxx1112basic_stringIcSt11char_traitsIcESaIcEEEE5_EESaIvELN9__gnu_cxx12_Lock_policyE2EEEE3getEv
FN:86,86,_ZNSt15__allocated_ptrISaISt23_Sp_counted_ptr_inplaceIN5Catch5Clara6Detail11BoundLambdaIZNS1_21makeCommandLineParserERNS1_10ConfigDataEEUlRKNSt7__cxx1112basic_stringIcSt11char_traitsIcESaIcEEEE7_EESaIvELN9__gnu_cxx12_Lock_policyE2EEEE3getEv
FN:86,86,_ZNSt15__allocated_ptrISaISt23_Sp_counted_ptr_inplaceIN5Catch5Clara6Detail11BoundLambdaIZNS1_21makeCommandLineParserERNS1_10ConfigDataEEUlRKNSt7__cxx1112basic_stringIcSt11char_traitsIcESaIcEEEE8_EESaIvELN9__gnu_cxx12_Lock_policyE2EEEE3getEv
FN:86,86,_ZNSt15__allocated_ptrISaISt23_Sp_counted_ptr_inplaceIN5Catch5Clara6Detail11BoundLambdaIZNS1_21makeCommandLineParserERNS1_10ConfigDataEEUlbE0_EESaIvELN9__gnu_cxx12_Lock_policyE2EEEE3getEv
FN:86,86,_ZNSt15__allocated_ptrISaISt23_Sp_counted_ptr_inplaceIN5Catch5Clara6Detail11BoundLambdaIZNS1_21makeCommandLineParserERNS1_10ConfigDataEEUliE_EESaIvELN9__gnu_cxx12_Lock_policyE2EEEE3getEv
FN:86,86,_ZNSt15__allocated_ptrISaISt23_Sp_counted_ptr_inplaceIN5Catch5Clara6Detail12BoundFlagRefESaIvELN9__gnu_cxx12_Lock_policyE2EEEE3getEv
FN:86,86,_ZNSt15__allocated_ptrISaISt23_Sp_counted_ptr_inplaceIN5Catch5Clara6Detail13BoundValueRefINSt7__cxx1112basic_stringIcSt11char_traitsIcESaIcEEEEESaIvELN9__gnu_cxx12_Lock_policyE2EEEE3getEv
FN:86,86,_ZNSt15__allocated_ptrISaISt23_Sp_counted_ptr_inplaceIN5Catch5Clara6Detail13BoundValueRefISt6vectorINSt7__cxx1112basic_stringIcSt11char_traitsIcESaIcEEESaISB_EEEESaIvELN9__gnu_cxx12_Lock_policyE2EEEE3getEv
FN:86,86,_ZNSt15__allocated_ptrISaISt23_Sp_counted_ptr_inplaceIN5Catch5Clara6Detail13BoundValueRefIdEESaIvELN9__gnu_cxx12_Lock_policyE2EEEE3getEv
FN:86,86,_ZNSt15__allocated_ptrISaISt23_Sp_counted_ptr_inplaceIN5Catch5Clara6Detail13BoundValueRefIjEESaIvELN9__gnu_cxx12_Lock_policyE2EEEE3getEv
FN:86,86,_ZNSt15__allocated_ptrISaISt23_Sp_counted_ptr_inplaceIN5Catch5Clara6Detail13BoundValueRefIlEESaIvELN9__gnu_cxx12_Lock_policyE2EEEE3getEv
FN:86,86,_ZNSt15__allocated_ptrISaISt23_Sp_counted_ptr_inplaceIN5Catch5Clara6Detail15BoundFlagLambdaIZNS1_21makeCommandLineParserERNS1_10ConfigDataEEUlbE_EESaIvELN9__gnu_cxx12_Lock_policyE2EEEE3getEv
FN:86,86,_ZNSt15__allocated_ptrISaISt23_Sp_counted_ptr_inplaceIN5Catch5Clara6Detail15BoundFlagLambdaIZNS2_4HelpC4ERbEUlbE_EESaIvELN9__gnu_cxx12_Lock_policyE2EEEE3getEv
FN:86,86,_ZNSt15__allocated_ptrISaISt23_Sp_counted_ptr_inplaceIN5Catch5Clara6Detail15BoundManyLambdaIZNS1_21makeCommandLineParserERNS1_10ConfigDataEEUlRKNSt7__cxx1112basic_stringIcSt11char_traitsIcESaIcEEEE6_EESaIvELN9__gnu_cxx12_Lock_policyE2EEEE3getEv
FN:86,86,_ZNSt15__allocated_ptrISaISt23_Sp_counted_ptr_inplaceIN5Catch5Clara6Detail15BoundManyLambdaIZNS1_21makeCommandLineParserERNS1_10ConfigDataEEUlRKNSt7__cxx1112basic_stringIcSt11char_traitsIcESaIcEEEE_EESaIvELN9__gnu_cxx12_Lock_policyE2EEEE3getEv
FN:86,86,_ZNSt15__allocated_ptrISaISt23_Sp_counted_ptr_inplaceINSt7__cxx1112basic_stringIcSt11char_traitsIcESaIcEEESaIvELN9__gnu_cxx12_Lock_policyE2EEEE3getEv
FN:86,86,_ZNSt15__allocated_ptrISaISt23_Sp_counted_ptr_inplaceINSt8__detail4_NFAINSt7__cxx1112regex_traitsIcEEEESaIvELN9__gnu_cxx12_Lock_policyE2EEEE3getEv
FN:96,99,_ZSt18__allocate_guardedISaISt23_Sp_counted_ptr_inplaceIN5Catch5Clara6Detail11BoundLambdaIZNS1_21makeCommandLineParserERNS1_10ConfigDataEEUlRKNSt7__cxx1112basic_stringIcSt11char_traitsIcESaIcEEEE0_EESaIvELN9__gnu_cxx12_Lock_policyE2EEEESt15__allocated_ptrIT_ERSN_
FN:96,99,_ZSt18__allocate_guardedISaISt23_Sp_counted_ptr_inplaceIN5Catch5Clara6Detail11BoundLambdaIZNS1_21makeCommandLineParserERNS1_10ConfigDataEEUlRKNSt7__cxx1112basic_stringIcSt11char_traitsIcESaIcEEEE1_EESaIvELN9__gnu_cxx12_Lock_policyE2EEEESt15__allocated_ptrIT_ERSN_
FN:96,99,_ZSt18__allocate_guardedISaISt23_Sp_counted_ptr_inplaceIN5Catch5Clara6Detail11BoundLambdaIZNS1_21makeCommandLineParserERNS1_10ConfigDataEEUlRKNSt7__cxx1112basic_stringIcSt11char_traitsIcESaIcEEEE2_EESaIvELN9__gnu_cxx12_Lock_policyE2EEEESt15__allocated_ptrIT_ERSN_
FN:96,99,_ZSt18__allocate_guardedISaISt23_Sp_counted_ptr_inplaceIN5Catch5Clara6Detail11BoundLambdaIZNS1_21makeCommandLineParserERNS1_10ConfigDataEEUlRKNSt7__cxx1112basic_stringIcSt11char_traitsIcESaIcEEEE3_EESaIvELN9__gnu_cxx12_Lock_policyE2EEEESt15__allocated_ptrIT_ERSN_
FN:96,99,_ZSt18__allocate_guardedISaISt23_Sp_counted_ptr_inplaceIN5Catch5Clara6Detail11BoundLambdaIZNS1_21makeCommandLineParserERNS1_10ConfigDataEEUlRKNSt7__cxx1112basic_stringIcSt11char_traitsIcESaIcEEEE4_EESaIvELN9__gnu_cxx12_Lock_policyE2EEEESt15__allocated_ptrIT_ERSN_
FN:96,99,_ZSt18__allocate_guardedISaISt23_Sp_counted_ptr_inplaceIN5Catch5Clara6Detail11BoundLambdaIZNS1_21makeCommandLineParserERNS1_10ConfigDataEEUlRKNSt7__cxx1112basic_stringIcSt11char_traitsIcESaIcEEEE5_EESaIvELN9__gnu_cxx12_Lock_policyE2EEEESt15__allocated_ptrIT_ERSN_
FN:96,99,_ZSt18__allocate_guardedISaISt23_Sp_counted_ptr_inplaceIN5Catch5Clara6Detail11BoundLambdaIZNS1_21makeCommandLineParserERNS1_10ConfigDataEEUlRKNSt7__cxx1112basic_stringIcSt11char_traitsIcESaIcEEEE7_EESaIvELN9__gnu_cxx12_Lock_policyE2EEEESt15__allocated_ptrIT_ERSN_
FN:96,99,_ZSt18__allocate_guardedISaISt23_Sp_counted_ptr_inplaceIN5Catch5Clara6Detail11BoundLambdaIZNS1_21makeCommandLineParserERNS1_10ConfigDataEEUlRKNSt7__cxx1112basic_stringIcSt11char_traitsIcESaIcEEEE8_EESaIvELN9__gnu_cxx12_Lock_policyE2EEEESt15__allocated_ptrIT_ERSN_
FN:96,99,_ZSt18__allocate_guardedISaISt23_Sp_counted_ptr_inplaceIN5Catch5Clara6Detail11BoundLambdaIZNS1_21makeCommandLineParserERNS1_10ConfigDataEEUlbE0_EESaIvELN9__gnu_cxx12_Lock_policyE2EEEESt15__allocated_ptrIT_ERSF_
FN:96,99,_ZSt18__allocate_guardedISaISt23_Sp_counted_ptr_inplaceIN5Catch5Clara6Detail11BoundLambdaIZNS1_21makeCommandLineParserERNS1_10ConfigDataEEUliE_EESaIvELN9__gnu_cxx12_Lock_policyE2EEEESt15__allocated_ptrIT_ERSF_
FN:96,99,_ZSt18__allocate_guardedISaISt23_Sp_counted_ptr_inplaceIN5Catch5Clara6Detail12BoundFlagRefESaIvELN9__gnu_cxx12_Lock_policyE2EEEESt15__allocated_ptrIT_ERSB_
FN:96,99,_ZSt18__allocate_guardedISaISt23_Sp_counted_ptr_inplaceIN5Catch5Clara6Detail13BoundValueRefINSt7__cxx1112basic_stringIcSt11char_traitsIcESaIcEEEEESaIvELN9__gnu_cxx12_Lock_policyE2EEEESt15__allocated_ptrIT_ERSI_
FN:96,99,_ZSt18__allocate_guardedISaISt23_Sp_counted_ptr_inplaceIN5Catch5Clara6Detail13BoundValueRefISt6vectorINSt7__cxx1112basic_stringIcSt11char_traitsIcESaIcEEESaISB_EEEESaIvELN9__gnu_cxx12_Lock_policyE2EEEESt15__allocated_ptrIT_ERSL_
FN:96,99,_ZSt18__allocate_guardedISaISt23_Sp_counted_ptr_inplaceIN5Catch5Clara6Detail13BoundValueRefIdEESaIvELN9__gnu_cxx12_Lock_policyE2EEEESt15__allocated_ptrIT_ERSC_
FN:96,99,_ZSt18__allocate_guardedISaISt23_Sp_counted_ptr_inplaceIN5Catch5Clara6Detail13BoundValueRefIjEESaIvELN9__gnu_cxx12_Lock_policyE2EEEESt15__allocated_ptrIT_ERSC_
FN:96,99,_ZSt18__allocate_guardedISaISt23_Sp_counted_ptr_inplaceIN5Catch5Clara6Detail13BoundValueRefIlEESaIvELN9__gnu_cxx12_Lock_policyE2EEEESt15__allocated_ptrIT_ERSC_
FN:96,99,_ZSt18__allocate_guardedISaISt23_Sp_counted_ptr_inplaceIN5Catch5Clara6Detail15BoundFlagLambdaIZNS1_21makeCommandLineParserERNS1_10ConfigDataEEUlbE_EESaIvELN9__gnu_cxx12_Lock_policyE2EEEESt15__allocated_ptrIT_ERSF_
FN:96,99,_ZSt18__allocate_guardedISaISt23_Sp_counted_ptr_inplaceIN5Catch5Clara6Detail15BoundFlagLambdaIZNS2_4HelpC4ERbEUlbE_EESaIvELN9__gnu_cxx12_Lock_policyE2EEEESt15__allocated_ptrIT_ERSF_
FN:96,99,_ZSt18__allocate_guardedISaISt23_Sp_counted_ptr_inplaceIN5Catch5Clara6Detail15BoundManyLambdaIZNS1_21makeCommandLineParserERNS1_10ConfigDataEEUlRKNSt7__cxx1112basic_stringIcSt11char_traitsIcESaIcEEEE6_EESaIvELN9__gnu_cxx12_Lock_policyE2EEEESt15__allocated_ptrIT_ERSN_
FN:96,99,_ZSt18__allocate_guardedISaISt23_Sp_counted_ptr_inplaceIN5Catch5Clara6Detail15BoundManyLambdaIZNS1_21makeCommandLineParserERNS1_10ConfigDataEEUlRKNSt7__cxx1112basic_stringIcSt11char_traitsIcESaIcEEEE_EESaIvELN9__gnu_cxx12_Lock_policyE2EEEESt15__allocated_ptrIT_ERSN_
FN:96,99,_ZSt18__allocate_guardedISaISt23_Sp_counted_ptr_inplaceINSt7__cxx1112basic_stringIcSt11char_traitsIcESaIcEEESaIvELN9__gnu_cxx12_Lock_policyE2EEEESt15__allocated_ptrIT_ERSD_
FN:96,99,_ZSt18__allocate_guardedISaISt23_Sp_counted_ptr_inplaceINSt8__detail4_NFAINSt7__cxx1112regex_traitsIcEEEESaIvELN9__gnu_cxx12_Lock_policyE2EEEESt15__allocated_ptrIT_ERSD_
FNDA:2,_ZNSt15__allocated_ptrISaISt23_Sp_counted_ptr_inplaceIN5Catch5Clara6Detail11BoundLambdaIZNS1_21makeCommandLineParserERNS1_10ConfigDataEEUlRKNSt7__cxx1112basic_stringIcSt11char_traitsIcESaIcEEEE0_EESaIvELN9__gnu_cxx12_Lock_policyE2EEEEC2ERSL_PSK_
FNDA:2,_ZNSt15__allocated_ptrISaISt23_Sp_counted_ptr_inplaceIN5Catch5Clara6Detail11BoundLambdaIZNS1_21makeCommandLineParserERNS1_10ConfigDataEEUlRKNSt7__cxx1112basic_stringIcSt11char_traitsIcESaIcEEEE1_EESaIvELN9__gnu_cxx12_Lock_policyE2EEEEC2ERSL_PSK_
FNDA:2,_ZNSt15__allocated_ptrISaISt23_Sp_counted_ptr_inplaceIN5Catch5Clara6Detail11BoundLambdaIZNS1_21makeCommandLineParserERNS1_10ConfigDataEEUlRKNSt7__cxx1112basic_stringIcSt11char_traitsIcESaIcEEEE2_EESaIvELN9__gnu_cxx12_Lock_policyE2EEEEC2ERSL_PSK_
FNDA:2,_ZNSt15__allocated_ptrISaISt23_Sp_counted_ptr_inplaceIN5Catch5Clara6Detail11BoundLambdaIZNS1_21makeCommandLineParserERNS1_10ConfigDataEEUlRKNSt7__cxx1112basic_stringIcSt11char_traitsIcESaIcEEEE3_EESaIvELN9__gnu_cxx12_Lock_policyE2EEEEC2ERSL_PSK_
FNDA:2,_ZNSt15__allocated_ptrISaISt23_Sp_counted_ptr_inplaceIN5Catch5Clara6Detail11BoundLambdaIZNS1_21makeCommandLineParserERNS1_10ConfigDataEEUlRKNSt7__cxx1112basic_stringIcSt11char_traitsIcESaIcEEEE4_EESaIvELN9__gnu_cxx12_Lock_policyE2EEEEC2ERSL_PSK_
FNDA:2,_ZNSt15__allocated_ptrISaISt23_Sp_counted_ptr_inplaceIN5Catch5Clara6Detail11BoundLambdaIZNS1_21makeCommandLineParserERNS1_10ConfigDataEEUlRKNSt7__cxx1112basic_stringIcSt11char_traitsIcESaIcEEEE5_EESaIvELN9__gnu_cxx12_Lock_policyE2EEEEC2ERSL_PSK_
FNDA:2,_ZNSt15__allocated_ptrISaISt23_Sp_counted_ptr_inplaceIN5Catch5Clara6Detail11BoundLambdaIZNS1_21makeCommandLineParserERNS1_10ConfigDataEEUlRKNSt7__cxx1112basic_stringIcSt11char_traitsIcESaIcEEEE7_EESaIvELN9__gnu_cxx12_Lock_policyE2EEEEC2ERSL_PSK_
FNDA:2,_ZNSt15__allocated_ptrISaISt23_Sp_counted_ptr_inplaceIN5Catch5Clara6Detail11BoundLambdaIZNS1_21makeCommandLineParserERNS1_10ConfigDataEEUlRKNSt7__cxx1112basic_stringIcSt11char_traitsIcESaIcEEEE8_EESaIvELN9__gnu_cxx12_Lock_policyE2EEEEC2ERSL_PSK_
FNDA:2,_ZNSt15__allocated_ptrISaISt23_Sp_counted_ptr_inplaceIN5Catch5Clara6Detail11BoundLambdaIZNS1_21makeCommandLineParserERNS1_10ConfigDataEEUlbE0_EESaIvELN9__gnu_cxx12_Lock_policyE2EEEEC2ERSD_PSC_
FNDA:2,_ZNSt15__allocated_ptrISaISt23_Sp_counted_ptr_inplaceIN5Catch5Clara6Detail11BoundLambdaIZNS1_21makeCommandLineParserERNS1_10ConfigDataEEUliE_EESaIvELN9__gnu_cxx12_Lock_policyE2EEEEC2ERSD_PSC_
FNDA:26,_ZNSt15__allocated_ptrISaISt23_Sp_counted_ptr_inplaceIN5Catch5Clara6Detail12BoundFlagRefESaIvELN9__gnu_cxx12_Lock_policyE2EEEEC2ERS9_PS8_
FNDA:8,_ZNSt15__allocated_ptrISaISt23_Sp_counted_ptr_inplaceIN5Catch5Clara6Detail13BoundValueRefINSt7__cxx1112basic_stringIcSt11char_traitsIcESaIcEEEEESaIvELN9__gnu_cxx12_Lock_policyE2EEEEC2ERSG_PSF_
FNDA:4,_ZNSt15__allocated_ptrISaISt23_Sp_counted_ptr_inplaceIN5Catch5Clara6Detail13BoundValueRefISt6vectorINSt7__cxx1112basic_stringIcSt11char_traitsIcESaIcEEESaISB_EEEESaIvELN9__gnu_cxx12_Lock_policyE2EEEEC2ERSJ_PSI_
FNDA:4,_ZNSt15__allocated_ptrISaISt23_Sp_counted_ptr_inplaceIN5Catch5Clara6Detail13BoundValueRefIdEESaIvELN9__gnu_cxx12_Lock_policyE2EEEEC2ERSA_PS9_
FNDA:4,_ZNSt15__allocated_ptrISaISt23_Sp_counted_ptr_inplaceIN5Catch5Clara6Detail13BoundValueRefIjEESaIvELN9__gnu_cxx12_Lock_policyE2EEEEC2ERSA_PS9_
FNDA:2,_ZNSt15__allocated_ptrISaISt23_Sp_counted_ptr_inplaceIN5Catch5Clara6Detail13BoundValueRefIlEESaIvELN9__gnu_cxx12_Lock_policyE2EEEEC2ERSA_PS9_
FNDA:2,_ZNSt15__allocated_ptrISaISt23_Sp_counted_ptr_inplaceIN5Catch5Clara6Detail15BoundFlagLambdaIZNS1_21makeCommandLineParserERNS1_10ConfigDataEEUlbE_EESaIvELN9__gnu_cxx12_Lock_policyE2EEEEC2ERSD_PSC_
FNDA:2,_ZNSt15__allocated_ptrISaISt23_Sp_counted_ptr_inplaceIN5Catch5Clara6Detail15BoundFlagLambdaIZNS2_4HelpC4ERbEUlbE_EESaIvELN9__gnu_cxx12_Lock_policyE2EEEEC2ERSD_PSC_
FNDA:2,_ZNSt15__allocated_ptrISaISt23_Sp_counted_ptr_inplaceIN5Catch5Clara6Detail15BoundManyLambdaIZNS1_21makeCommandLineParserERNS1_10ConfigDataEEUlRKNSt7__cxx1112basic_stringIcSt11char_traitsIcESaIcEEEE6_EESaIvELN9__gnu_cxx12_Lock_policyE2EEEEC2ERSL_PSK_
FNDA:2,_ZNSt15__allocated_ptrISaISt23_Sp_counted_ptr_inplaceIN5Catch5Clara6Detail15BoundManyLambdaIZNS1_21makeCommandLineParserERNS1_10ConfigDataEEUlRKNSt7__cxx1112basic_stringIcSt11char_traitsIcESaIcEEEE_EESaIvELN9__gnu_cxx12_Lock_policyE2EEEEC2ERSL_PSK_
FNDA:6,_ZNSt15__allocated_ptrISaISt23_Sp_counted_ptr_inplaceINSt7__cxx1112basic_stringIcSt11char_traitsIcESaIcEEESaIvELN9__gnu_cxx12_Lock_policyE2EEEEC2ERSB_PSA_
FNDA:0,_ZNSt15__allocated_ptrISaISt23_Sp_counted_ptr_inplaceINSt8__detail4_NFAINSt7__cxx1112regex_traitsIcEEEESaIvELN9__gnu_cxx12_Lock_policyE2EEEEC2ERSB_PSA_
FNDA:2,_ZNSt15__allocated_ptrISaISt23_Sp_counted_ptr_inplaceIN5Catch5Clara6Detail11BoundLambdaIZNS1_21makeCommandLineParserERNS1_10ConfigDataEEUlRKNSt7__cxx1112basic_stringIcSt11char_traitsIcESaIcEEEE0_EESaIvELN9__gnu_cxx12_Lock_policyE2EEEED2Ev
FNDA:2,_ZNSt15__allocated_ptrISaISt23_Sp_counted_ptr_inplaceIN5Catch5Clara6Detail11BoundLambdaIZNS1_21makeCommandLineParserERNS1_10ConfigDataEEUlRKNSt7__cxx1112basic_stringIcSt11char_traitsIcESaIcEEEE1_EESaIvELN9__gnu_cxx12_Lock_policyE2EEEED2Ev
FNDA:2,_ZNSt15__allocated_ptrISaISt23_Sp_counted_ptr_inplaceIN5Catch5Clara6Detail11BoundLambdaIZNS1_21makeCommandLineParserERNS1_10ConfigDataEEUlRKNSt7__cxx1112basic_stringIcSt11char_traitsIcESaIcEEEE2_EESaIvELN9__gnu_cxx12_Lock_policyE2EEEED2Ev
FNDA:2,_ZNSt15__allocated_ptrISaISt23_Sp_counted_ptr_inplaceIN5Catch5Clara6Detail11BoundLambdaIZNS1_21makeCommandLineParserERNS1_10ConfigDataEEUlRKNSt7__cxx1112basic_stringIcSt11char_traitsIcESaIcEEEE3_EESaIvELN9__gnu_cxx12_Lock_policyE2EEEED2Ev
FNDA:2,_ZNSt15__allocated_ptrISaISt23_Sp_counted_ptr_inplaceIN5Catch5Clara6Detail11BoundLambdaIZNS1_21makeCommandLineParserERNS1_10ConfigDataEEUlRKNSt7__cxx1112basic_stringIcSt11char_traitsIcESaIcEEEE4_EESaIvELN9__gnu_cxx12_Lock_policyE2EEEED2Ev
FNDA:2,_ZNSt15__allocated_ptrISaISt23_Sp_counted_ptr_inplaceIN5Catch5Clara6Detail11BoundLambdaIZNS1_21makeCommandLineParserERNS1_10ConfigDataEEUlRKNSt7__cxx1112basic_stringIcSt11char_traitsIcESaIcEEEE5_EESaIvELN9__gnu_cxx12_Lock_policyE2EEEED2Ev
FNDA:2,_ZNSt15__allocated_ptrISaISt23_Sp_counted_ptr_inplaceIN5Catch5Clara6Detail11BoundLambdaIZNS1_21makeCommandLineParserERNS1_10ConfigDataEEUlRKNSt7__cxx1112basic_stringIcSt11char_traitsIcESaIcEEEE7_EESaIvELN9__gnu_cxx12_Lock_policyE2EEEED2Ev
FNDA:2,_ZNSt15__allocated_ptrISaISt23_Sp_counted_ptr_inplaceIN5Catch5Clara6Detail11BoundLambdaIZNS1_21makeCommandLineParserERNS1_10ConfigDataEEUlRKNSt7__cxx1112basic_stringIcSt11char_traitsIcESaIcEEEE8_EESaIvELN9__gnu_cxx12_Lock_policyE2EEEED2Ev
FNDA:2,_ZNSt15__allocated_ptrISaISt23_Sp_counted_ptr_inplaceIN5Catch5Clara6Detail11BoundLambdaIZNS1_21makeCommandLineParserERNS1_10ConfigDataEEUlbE0_EESaIvELN9__gnu_cxx12_Lock_policyE2EEEED2Ev
FNDA:2,_ZNSt15__allocated_ptrISaISt23_Sp_counted_ptr_inplaceIN5Catch5Clara6Detail11BoundLambdaIZNS1_21makeCommandLineParserERNS1_10ConfigDataEEUliE_EESaIvELN9__gnu_cxx12_Lock_policyE2EEEED2Ev
FNDA:26,_ZNSt15__allocated_ptrISaISt23_Sp_counted_ptr_inplaceIN5Catch5Clara6Detail12BoundFlagRefESaIvELN9__gnu_cxx12_Lock_policyE2EEEED2Ev
FNDA:8,_ZNSt15__allocated_ptrISaISt23_Sp_counted_ptr_inplaceIN5Catch5Clara6Detail13BoundValueRefINSt7__cxx1112basic_stringIcSt11char_traitsIcESaIcEEEEESaIvELN9__gnu_cxx12_Lock_policyE2EEEED2Ev
FNDA:4,_ZNSt15__allocated_ptrISaISt23_Sp_counted_ptr_inplaceIN5Catch5Clara6Detail13BoundValueRefISt6vectorINSt7__cxx1112basic_stringIcSt11char_traitsIcESaIcEEESaISB_EEEESaIvELN9__gnu_cxx12_Lock_policyE2EEEED2Ev
FNDA:4,_ZNSt15__allocated_ptrISaISt23_Sp_counted_ptr_inplaceIN5Catch5Clara6Detail13BoundValueRefIdEESaIvELN9__gnu_cxx12_Lock_policyE2EEEED2Ev
FNDA:4,_ZNSt15__allocated_ptrISaISt23_Sp_counted_ptr_inplaceIN5Catch5Clara6Detail13BoundValueRefIjEESaIvELN9__gnu_cxx12_Lock_policyE2EEEED2Ev
FNDA:2,_ZNSt15__allocated_ptrISaISt23_Sp_counted_ptr_inplaceIN5Catch5Clara6Detail13BoundValueRefIlEESaIvELN9__gnu_cxx12_Lock_policyE2EEEED2Ev
FNDA:2,_ZNSt15__allocated_ptrISaISt23_Sp_counted_ptr_inplaceIN5Catch5Clara6Detail15BoundFlagLambdaIZNS1_21makeCommandLineParserERNS1_10ConfigDataEEUlbE_EESaIvELN9__gnu_cxx12_Lock_policyE2EEEED2Ev
FNDA:2,_ZNSt15__allocated_ptrISaISt23_Sp_counted_ptr_inplaceIN5Catch5Clara6Detail15BoundFlagLambdaIZNS2_4HelpC4ERbEUlbE_EESaIvELN9__gnu_cxx12_Lock_policyE2EEEED2Ev
FNDA:2,_ZNSt15__allocated_ptrISaISt23_Sp_counted_ptr_inplaceIN5Catch5Clara6Detail15BoundManyLambdaIZNS1_21makeCommandLineParserERNS1_10ConfigDataEEUlRKNSt7__cxx1112basic_stringIcSt11char_traitsIcESaIcEEEE6_EESaIvELN9__gnu_cxx12_Lock_policyE2EEEED2Ev
FNDA:2,_ZNSt15__allocated_ptrISaISt23_Sp_counted_ptr_inplaceIN5Catch5Clara6Detail15BoundManyLambdaIZNS1_21makeCommandLineParserERNS1_10ConfigDataEEUlRKNSt7__cxx1112basic_stringIcSt11char_traitsIcESaIcEEEE_EESaIvELN9__gnu_cxx12_Lock_policyE2EEEED2Ev
FNDA:6,_ZNSt15__allocated_ptrISaISt23_Sp_counted_ptr_inplaceINSt7__cxx1112basic_stringIcSt11char_traitsIcESaIcEEESaIvELN9__gnu_cxx12_Lock_policyE2EEEED2Ev
FNDA:0,_ZNSt15__allocated_ptrISaISt23_Sp_counted_ptr_inplaceINSt8__detail4_NFAINSt7__cxx1112regex_traitsIcEEEESaIvELN9__gnu_cxx12_Lock_policyE2EEEED2Ev
FNDA:1,_ZNSt15__allocated_ptrISaISt23_Sp_counted_ptr_inplaceIN5Catch5Clara6Detail11BoundLambdaIZNS1_21makeCommandLineParserERNS1_10ConfigDataEEUlRKNSt7__cxx1112basic_stringIcSt11char_traitsIcESaIcEEEE0_EESaIvELN9__gnu_cxx12_Lock_policyE2EEEEaSEDn
FNDA:1,_ZNSt15__allocated_ptrISaISt23_Sp_counted_ptr_inplaceIN5Catch5Clara6Detail11BoundLambdaIZNS1_21makeCommandLineParserERNS1_10ConfigDataEEUlRKNSt7__cxx1112basic_stringIcSt11char_traitsIcESaIcEEEE1_EESaIvELN9__gnu_cxx12_Lock_policyE2EEEEaSEDn
FNDA:1,_ZNSt15__allocated_ptrISaISt23_Sp_counted_ptr_inplaceIN5Catch5Clara6Detail11BoundLambdaIZNS1_21makeCommandLineParserERNS1_10ConfigDataEEUlRKNSt7__cxx1112basic_stringIcSt11char_traitsIcESaIcEEEE2_EESaIvELN9__gnu_cxx12_Lock_policyE2EEEEaSEDn
FNDA:1,_ZNSt15__allocated_ptrISaISt23_Sp_counted_ptr_inplaceIN5Catch5Clara6Detail11BoundLambdaIZNS1_21makeCommandLineParserERNS1_10ConfigDataEEUlRKNSt7__cxx1112basic_stringIcSt11char_traitsIcESaIcEEEE3_EESaIvELN9__gnu_cxx12_Lock_policyE2EEEEaSEDn
FNDA:1,_ZNSt15__allocated_ptrISaISt23_Sp_counted_ptr_inplaceIN5Catch5Clara6Detail11BoundLambdaIZNS1_21makeCommandLineParserERNS1_10ConfigDataEEUlRKNSt7__cxx1112basic_stringIcSt11char_traitsIcESaIcEEEE4_EESaIvELN9__gnu_cxx12_Lock_policyE2EEEEaSEDn
FNDA:1,_ZNSt15__allocated_ptrISaISt23_Sp_counted_ptr_inplaceIN5Catch5Clara6Detail11BoundLambdaIZNS1_21makeCommandLineParserERNS1_10ConfigDataEEUlRKNSt7__cxx1112basic_stringIcSt11char_traitsIcESaIcEEEE5_EESaIvELN9__gnu_cxx12_Lock_policyE2EEEEaSEDn
FNDA:1,_ZNSt15__allocated_ptrISaISt23_Sp_counted_ptr_inplaceIN5Catch5Clara6Detail11BoundLambdaIZNS1_21makeCommandLineParserERNS1_10ConfigDataEEUlRKNSt7__cxx1112basic_stringIcSt11char_traitsIcESaIcEEEE7_EESaIvELN9__gnu_cxx12_Lock_policyE2EEEEaSEDn
FNDA:1,_ZNSt15__allocated_ptrISaISt23_Sp_counted_ptr_inplaceIN5Catch5Clara6Detail11BoundLambdaIZNS1_21makeCommandLineParserERNS1_10ConfigDataEEUlRKNSt7__cxx1112basic_stringIcSt11char_traitsIcESaIcEEEE8_EESaIvELN9__gnu_cxx12_Lock_policyE2EEEEaSEDn
FNDA:1,_ZNSt15__allocated_ptrISaISt23_Sp_counted_ptr_inplaceIN5Catch5Clara6Detail11BoundLambdaIZNS1_21makeCommandLineParserERNS1_10ConfigDataEEUlbE0_EESaIvELN9__gnu_cxx12_Lock_policyE2EEEEaSEDn
FNDA:1,_ZNSt15__allocated_ptrISaISt23_Sp_counted_ptr_inplaceIN5Catch5Clara6Detail11BoundLambdaIZNS1_21makeCommandLineParserERNS1_10ConfigDataEEUliE_EESaIvELN9__gnu_cxx12_Lock_policyE2EEEEaSEDn
FNDA:13,_ZNSt15__allocated_ptrISaISt23_Sp_counted_ptr_inplaceIN5Catch5Clara6Detail12BoundFlagRefESaIvELN9__gnu_cxx12_Lock_policyE2EEEEaSEDn
FNDA:4,_ZNSt15__allocated_ptrISaISt23_Sp_counted_ptr_inplaceIN5Catch5Clara6Detail13BoundValueRefINSt7__cxx1112basic_stringIcSt11char_traitsIcESaIcEEEEESaIvELN9__gnu_cxx12_Lock_policyE2EEEEaSEDn
FNDA:2,_ZNSt15__allocated_ptrISaISt23_Sp_counted_ptr_inplaceIN5Catch5Clara6Detail13BoundValueRefISt6vectorINSt7__cxx1112basic_stringIcSt11char_traitsIcESaIcEEESaISB_EEEESaIvELN9__gnu_cxx12_Lock_policyE2EEEEaSEDn
FNDA:2,_ZNSt15__allocated_ptrISaISt23_Sp_counted_ptr_inplaceIN5Catch5Clara6Detail13BoundValueRefIdEESaIvELN9__gnu_cxx12_Lock_policyE2EEEEaSEDn
FNDA:2,_ZNSt15__allocated_ptrISaISt23_Sp_counted_ptr_inplaceIN5Catch5Clara6Detail13BoundValueRefIjEESaIvELN9__gnu_cxx12_Lock_policyE2EEEEaSEDn
FNDA:1,_ZNSt15__allocated_ptrISaISt23_Sp_counted_ptr_inplaceIN5Catch5Clara6Detail13BoundValueRefIlEESaIvELN9__gnu_cxx12_Lock_policyE2EEEEaSEDn
FNDA:1,_ZNSt15__allocated_ptrISaISt23_Sp_counted_ptr_inplaceIN5Catch5Clara6Detail15BoundFlagLambdaIZNS1_21makeCommandLineParserERNS1_10ConfigDataEEUlbE_EESaIvELN9__gnu_cxx12_Lock_policyE2EEEEaSEDn
FNDA:1,_ZNSt15__allocated_ptrISaISt23_Sp_counted_ptr_inplaceIN5Catch5Clara6Detail15BoundFlagLambdaIZNS2_4HelpC4ERbEUlbE_EESaIvELN9__gnu_cxx12_Lock_policyE2EEEEaSEDn
FNDA:1,_ZNSt15__allocated_ptrISaISt23_Sp_counted_ptr_inplaceIN5Catch5Clara6Detail15BoundManyLambdaIZNS1_21makeCommandLineParserERNS1_10ConfigDataEEUlRKNSt7__cxx1112basic_stringIcSt11char_traitsIcESaIcEEEE6_EESaIvELN9__gnu_cxx12_Lock_policyE2EEEEaSEDn
FNDA:1,_ZNSt15__allocated_ptrISaISt23_Sp_counted_ptr_inplaceIN5Catch5Clara6Detail15BoundManyLambdaIZNS1_21makeCommandLineParserERNS1_10ConfigDataEEUlRKNSt7__cxx1112basic_stringIcSt11char_traitsIcESaIcEEEE_EESaIvELN9__gnu_cxx12_Lock_policyE2EEEEaSEDn
FNDA:3,_ZNSt15__allocated_ptrISaISt23_Sp_counted_ptr_inplaceINSt7__cxx1112basic_stringIcSt11char_traitsIcESaIcEEESaIvELN9__gnu_cxx12_Lock_policyE2EEEEaSEDn
FNDA:0,_ZNSt15__allocated_ptrISaISt23_Sp_counted_ptr_inplaceINSt8__detail4_NFAINSt7__cxx1112regex_traitsIcEEEESaIvELN9__gnu_cxx12_Lock_policyE2EEEEaSEDn
FNDA:1,_ZNSt15__allocated_ptrISaISt23_Sp_counted_ptr_inplaceIN5Catch5Clara6Detail11BoundLambdaIZNS1_21makeCommandLineParserERNS1_10ConfigDataEEUlRKNSt7__cxx1112basic_stringIcSt11char_traitsIcESaIcEEEE0_EESaIvELN9__gnu_cxx12_Lock_policyE2EEEE3getEv
FNDA:1,_ZNSt15__allocated_ptrISaISt23_Sp_counted_ptr_inplaceIN5Catch5Clara6Detail11BoundLambdaIZNS1_21makeCommandLineParserERNS1_10ConfigDataEEUlRKNSt7__cxx1112basic_stringIcSt11char_traitsIcESaIcEEEE1_EESaIvELN9__gnu_cxx12_Lock_policyE2EEEE3getEv
FNDA:1,_ZNSt15__allocated_ptrISaISt23_Sp_counted_ptr_inplaceIN5Catch5Clara6Detail11BoundLambdaIZNS1_21makeCommandLineParserERNS1_10ConfigDataEEUlRKNSt7__cxx1112basic_stringIcSt11char_traitsIcESaIcEEEE2_EESaIvELN9__gnu_cxx12_Lock_policyE2EEEE3getEv
FNDA:1,_ZNSt15__allocated_ptrISaISt23_Sp_counted_ptr_inplaceIN5Catch5Clara6Detail11BoundLambdaIZNS1_21makeCommandLineParserERNS1_10ConfigDataEEUlRKNSt7__cxx1112basic_stringIcSt11char_traitsIcESaIcEEEE3_EESaIvELN9__gnu_cxx12_Lock_policyE2EEEE3getEv
FNDA:1,_ZNSt15__allocated_ptrISaISt23_Sp_counted_ptr_inplaceIN5Catch5Clara6Detail11BoundLambdaIZNS1_21makeCommandLineParserERNS1_10ConfigDataEEUlRKNSt7__cxx1112basic_stringIcSt11char_traitsIcESaIcEEEE4_EESaIvELN9__gnu_cxx12_Lock_policyE2EEEE3getEv
FNDA:1,_ZNSt15__allocated_ptrISaISt23_Sp_counted_ptr_inplaceIN5Catch5Clara6Detail11BoundLambdaIZNS1_21makeCommandLineParserERNS1_10ConfigDataEEUlRKNSt7__cxx1112basic_stringIcSt11char_traitsIcESaIcEEEE5_EESaIvELN9__gnu_cxx12_Lock_policyE2EEEE3getEv
FNDA:1,_ZNSt15__allocated_ptrISaISt23_Sp_counted_ptr_inplaceIN5Catch5Clara6Detail11BoundLambdaIZNS1_21makeCommandLineParserERNS1_10ConfigDataEEUlRKNSt7__cxx1112basic_stringIcSt11char_traitsIcESaIcEEEE7_EESaIvELN9__gnu_cxx12_Lock_policyE2EEEE3getEv
FNDA:1,_ZNSt15__allocated_ptrISaISt23_Sp_counted_ptr_inplaceIN5Catch5Clara6Detail11BoundLambdaIZNS1_21makeCommandLineParserERNS1_10ConfigDataEEUlRKNSt7__cxx1112basic_stringIcSt11char_traitsIcESaIcEEEE8_EESaIvELN9__gnu_cxx12_Lock_policyE2EEEE3getEv
FNDA:1,_ZNSt15__allocated_ptrISaISt23_Sp_counted_ptr_inplaceIN5Catch5Clara6Detail11BoundLambdaIZNS1_21makeCommandLineParserERNS1_10ConfigDataEEUlbE0_EESaIvELN9__gnu_cxx12_Lock_policyE2EEEE3getEv
FNDA:1,_ZNSt15__allocated_ptrISaISt23_Sp_counted_ptr_inplaceIN5Catch5Clara6Detail11BoundLambdaIZNS1_21makeCommandLineParserERNS1_10ConfigDataEEUliE_EESaIvELN9__gnu_cxx12_Lock_policyE2EEEE3getEv
FNDA:13,_ZNSt15__allocated_ptrISaISt23_Sp_counted_ptr_inplaceIN5Catch5Clara6Detail12BoundFlagRefESaIvELN9__gnu_cxx12_Lock_policyE2EEEE3getEv
FNDA:4,_ZNSt15__allocated_ptrISaISt23_Sp_counted_ptr_inplaceIN5Catch5Clara6Detail13BoundValueRefINSt7__cxx1112basic_stringIcSt11char_traitsIcESaIcEEEEESaIvELN9__gnu_cxx12_Lock_policyE2EEEE3getEv
FNDA:2,_ZNSt15__allocated_ptrISaISt23_Sp_counted_ptr_inplaceIN5Catch5Clara6Detail13BoundValueRefISt6vectorINSt7__cxx1112basic_stringIcSt11char_traitsIcESaIcEEESaISB_EEEESaIvELN9__gnu_cxx12_Lock_policyE2EEEE3getEv
FNDA:2,_ZNSt15__allocated_ptrISaISt23_Sp_counted_ptr_inplaceIN5Catch5Clara6Detail13BoundValueRefIdEESaIvELN9__gnu_cxx12_Lock_policyE2EEEE3getEv
FNDA:2,_ZNSt15__allocated_ptrISaISt23_Sp_counted_ptr_inplaceIN5Catch5Clara6Detail13BoundValueRefIjEESaIvELN9__gnu_cxx12_Lock_policyE2EEEE3getEv
FNDA:1,_ZNSt15__allocated_ptrISaISt23_Sp_counted_ptr_inplaceIN5Catch5Clara6Detail13BoundValueRefIlEESaIvELN9__gnu_cxx12_Lock_policyE2EEEE3getEv
FNDA:1,_ZNSt15__allocated_ptrISaISt23_Sp_counted_ptr_inplaceIN5Catch5Clara6Detail15BoundFlagLambdaIZNS1_21makeCommandLineParserERNS1_10ConfigDataEEUlbE_EESaIvELN9__gnu_cxx12_Lock_policyE2EEEE3getEv
FNDA:1,_ZNSt15__allocated_ptrISaISt23_Sp_counted_ptr_inplaceIN5Catch5Clara6Detail15BoundFlagLambdaIZNS2_4HelpC4ERbEUlbE_EESaIvELN9__gnu_cxx12_Lock_policyE2EEEE3getEv
FNDA:1,_ZNSt15__allocated_ptrISaISt23_Sp_counted_ptr_inplaceIN5Catch5Clara6Detail15BoundManyLambdaIZNS1_21makeCommandLineParserERNS1_10ConfigDataEEUlRKNSt7__cxx1112basic_stringIcSt11char_traitsIcESaIcEEEE6_EESaIvELN9__gnu_cxx12_Lock_policyE2EEEE3getEv
FNDA:1,_ZNSt15__allocated_ptrISaISt23_Sp_counted_ptr_inplaceIN5Catch5Clara6Detail15BoundManyLambdaIZNS1_21makeCommandLineParserERNS1_10ConfigDataEEUlRKNSt7__cxx1112basic_stringIcSt11char_traitsIcESaIcEEEE_EESaIvELN9__gnu_cxx12_Lock_policyE2EEEE3getEv
FNDA:3,_ZNSt15__allocated_ptrISaISt23_Sp_counted_ptr_inplaceINSt7__cxx1112basic_stringIcSt11char_traitsIcESaIcEEESaIvELN9__gnu_cxx12_Lock_policyE2EEEE3getEv
FNDA:0,_ZNSt15__allocated_ptrISaISt23_Sp_counted_ptr_inplaceINSt8__detail4_NFAINSt7__cxx1112regex_traitsIcEEEESaIvELN9__gnu_cxx12_Lock_policyE2EEEE3getEv
FNDA:1,_ZSt18__allocate_guardedISaISt23_Sp_counted_ptr_inplaceIN5Catch5Clara6Detail11BoundLambdaIZNS1_21makeCommandLineParserERNS1_10ConfigDataEEUlRKNSt7__cxx1112basic_stringIcSt11char_traitsIcESaIcEEEE0_EESaIvELN9__gnu_cxx12_Lock_policyE2EEEESt15__allocated_ptrIT_ERSN_
FNDA:1,_ZSt18__allocate_guardedISaISt23_Sp_counted_ptr_inplaceIN5Catch5Clara6Detail11BoundLambdaIZNS1_21makeCommandLineParserERNS1_10ConfigDataEEUlRKNSt7__cxx1112basic_stringIcSt11char_traitsIcESaIcEEEE1_EESaIvELN9__gnu_cxx12_Lock_policyE2EEEESt15__allocated_ptrIT_ERSN_
FNDA:1,_ZSt18__allocate_guardedISaISt23_Sp_counted_ptr_inplaceIN5Catch5Clara6Detail11BoundLambdaIZNS1_21makeCommandLineParserERNS1_10ConfigDataEEUlRKNSt7__cxx1112basic_stringIcSt11char_traitsIcESaIcEEEE2_EESaIvELN9__gnu_cxx12_Lock_policyE2EEEESt15__allocated_ptrIT_ERSN_
FNDA:1,_ZSt18__allocate_guardedISaISt23_Sp_counted_ptr_inplaceIN5Catch5Clara6Detail11BoundLambdaIZNS1_21makeCommandLineParserERNS1_10ConfigDataEEUlRKNSt7__cxx1112basic_stringIcSt11char_traitsIcESaIcEEEE3_EESaIvELN9__gnu_cxx12_Lock_policyE2EEEESt15__allocated_ptrIT_ERSN_
FNDA:1,_ZSt18__allocate_guardedISaISt23_Sp_counted_ptr_inplaceIN5Catch5Clara6Detail11BoundLambdaIZNS1_21makeCommandLineParserERNS1_10ConfigDataEEUlRKNSt7__cxx1112basic_stringIcSt11char_traitsIcESaIcEEEE4_EESaIvELN9__gnu_cxx12_Lock_policyE2EEEESt15__allocated_ptrIT_ERSN_
FNDA:1,_ZSt18__allocate_guardedISaISt23_Sp_counted_ptr_inplaceIN5Catch5Clara6Detail11BoundLambdaIZNS1_21makeCommandLineParserERNS1_10ConfigDataEEUlRKNSt7__cxx1112basic_stringIcSt11char_traitsIcESaIcEEEE5_EESaIvELN9__gnu_cxx12_Lock_policyE2EEEESt15__allocated_ptrIT_ERSN_
FNDA:1,_ZSt18__allocate_guardedISaISt23_Sp_counted_ptr_inplaceIN5Catch5Clara6Detail11BoundLambdaIZNS1_21makeCommandLineParserERNS1_10ConfigDataEEUlRKNSt7__cxx1112basic_stringIcSt11char_traitsIcESaIcEEEE7_EESaIvELN9__gnu_cxx12_Lock_policyE2EEEESt15__allocated_ptrIT_ERSN_
FNDA:1,_ZSt18__allocate_guardedISaISt23_Sp_counted_ptr_inplaceIN5Catch5Clara6Detail11BoundLambdaIZNS1_21makeCommandLineParserERNS1_10ConfigDataEEUlRKNSt7__cxx1112basic_stringIcSt11char_traitsIcESaIcEEEE8_EESaIvELN9__gnu_cxx12_Lock_policyE2EEEESt15__allocated_ptrIT_ERSN_
FNDA:1,_ZSt18__allocate_guardedISaISt23_Sp_counted_ptr_inplaceIN5Catch5Clara6Detail11BoundLambdaIZNS1_21makeCommandLineParserERNS1_10ConfigDataEEUlbE0_EESaIvELN9__gnu_cxx12_Lock_policyE2EEEESt15__allocated_ptrIT_ERSF_
FNDA:1,_ZSt18__allocate_guardedISaISt23_Sp_counted_ptr_inplaceIN5Catch5Clara6Detail11BoundLambdaIZNS1_21makeCommandLineParserERNS1_10ConfigDataEEUliE_EESaIvELN9__gnu_cxx12_Lock_policyE2EEEESt15__allocated_ptrIT_ERSF_
FNDA:13,_ZSt18__allocate_guardedISaISt23_Sp_counted_ptr_inplaceIN5Catch5Clara6Detail12BoundFlagRefESaIvELN9__gnu_cxx12_Lock_policyE2EEEESt15__allocated_ptrIT_ERSB_
FNDA:4,_ZSt18__allocate_guardedISaISt23_Sp_counted_ptr_inplaceIN5Catch5Clara6Detail13BoundValueRefINSt7__cxx1112basic_stringIcSt11char_traitsIcESaIcEEEEESaIvELN9__gnu_cxx12_Lock_policyE2EEEESt15__allocated_ptrIT_ERSI_
FNDA:2,_ZSt18__allocate_guardedISaISt23_Sp_counted_ptr_inplaceIN5Catch5Clara6Detail13BoundValueRefISt6vectorINSt7__cxx1112basic_stringIcSt11char_traitsIcESaIcEEESaISB_EEEESaIvELN9__gnu_cxx12_Lock_policyE2EEEESt15__allocated_ptrIT_ERSL_
FNDA:2,_ZSt18__allocate_guardedISaISt23_Sp_counted_ptr_inplaceIN5Catch5Clara6Detail13BoundValueRefIdEESaIvELN9__gnu_cxx12_Lock_policyE2EEEESt15__allocated_ptrIT_ERSC_
FNDA:2,_ZSt18__allocate_guardedISaISt23_Sp_counted_ptr_inplaceIN5Catch5Clara6Detail13BoundValueRefIjEESaIvELN9__gnu_cxx12_Lock_policyE2EEEESt15__allocated_ptrIT_ERSC_
FNDA:1,_ZSt18__allocate_guardedISaISt23_Sp_counted_ptr_inplaceIN5Catch5Clara6Detail13BoundValueRefIlEESaIvELN9__gnu_cxx12_Lock_policyE2EEEESt15__allocated_ptrIT_ERSC_
FNDA:1,_ZSt18__allocate_guardedISaISt23_Sp_counted_ptr_inplaceIN5Catch5Clara6Detail15BoundFlagLambdaIZNS1_21makeCommandLineParserERNS1_10ConfigDataEEUlbE_EESaIvELN9__gnu_cxx12_Lock_policyE2EEEESt15__allocated_ptrIT_ERSF_
FNDA:1,_ZSt18__allocate_guardedISaISt23_Sp_counted_ptr_inplaceIN5Catch5Clara6Detail15BoundFlagLambdaIZNS2_4HelpC4ERbEUlbE_EESaIvELN9__gnu_cxx12_Lock_policyE2EEEESt15__allocated_ptrIT_ERSF_
FNDA:1,_ZSt18__allocate_guardedISaISt23_Sp_counted_ptr_inplaceIN5Catch5Clara6Detail15BoundManyLambdaIZNS1_21makeCommandLineParserERNS1_10ConfigDataEEUlRKNSt7__cxx1112basic_stringIcSt11char_traitsIcESaIcEEEE6_EESaIvELN9__gnu_cxx12_Lock_policyE2EEEESt15__allocated_ptrIT_ERSN_
FNDA:1,_ZSt18__allocate_guardedISaISt23_Sp_counted_ptr_inplaceIN5Catch5Clara6Detail15BoundManyLambdaIZNS1_21makeCommandLineParserERNS1_10ConfigDataEEUlRKNSt7__cxx1112basic_stringIcSt11char_traitsIcESaIcEEEE_EESaIvELN9__gnu_cxx12_Lock_policyE2EEEESt15__allocated_ptrIT_ERSN_
FNDA:3,_ZSt18__allocate_guardedISaISt23_Sp_counted_ptr_inplaceINSt7__cxx1112basic_stringIcSt11char_traitsIcESaIcEEESaIvELN9__gnu_cxx12_Lock_policyE2EEEESt15__allocated_ptrIT_ERSD_
FNDA:0,_ZSt18__allocate_guardedISaISt23_Sp_counted_ptr_inplaceINSt8__detail4_NFAINSt7__cxx1112regex_traitsIcEEEESaIvELN9__gnu_cxx12_Lock_policyE2EEEESt15__allocated_ptrIT_ERSD_
FNF:110
FNH:105
DA:53,82
DA:54,82
DA:55,82
DA:71,82
DA:73,82
DA:74,41
DA:75,82
DA:79,41
DA:81,41
DA:82,41
DA:86,41
DA:96,41
DA:98,41
LF:13
LH:13
end_of_record
TN:
SF:/usr/include/c++/13/bits/allocator.h
FNF:0
FNH:0
DA:163,1293
DA:168,221
DA:178,83
DA:184,572
DA:217,0
DA:223,0
LF:6
LH:4
end_of_record
TN:
SF:/usr/include/c++/13/bits/basic_string.h
FN:3528,3541,_ZSt12__str_concatINSt7__cxx1112basic_stringIcSt11char_traitsIcESaIcEEEET_PKNS6_10value_typeENS6_9size_typeES9_SA_RKNS6_14allocator_typeE
FN:3571,3579,_ZStplIcSt11char_traitsIcESaIcEENSt7__cxx1112basic_stringIT_T0_T1_EEPKS5_RKS8_
FN:3625,3631,_ZStplIcSt11char_traitsIcESaIcEENSt7__cxx1112basic_stringIT_T0_T1_EERKS8_S5_
FN:3637,3639,_ZStplIcSt11char_traitsIcESaIcEENSt7__cxx1112basic_stringIT_T0_T1_EEOS8_RKS8_
FN:3651,3669,_ZStplIcSt11char_traitsIcESaIcEENSt7__cxx1112basic_stringIT_T0_T1_EEOS8_S9_
FN:3674,3676,_ZStplIcSt11char_traitsIcESaIcEENSt7__cxx1112basic_stringIT_T0_T1_EEPKS5_OS8_
FN:3681,3683,_ZStplIcSt11char_traitsIcESaIcEENSt7__cxx1112basic_stringIT_T0_T1_EES5_OS8_
FN:3688,3690,_ZStplIcSt11char_traitsIcESaIcEENSt7__cxx1112basic_stringIT_T0_T1_EEOS8_PKS5_
FN:3695,3697,_ZStplIcSt11char_traitsIcESaIcEENSt7__cxx1112basic_stringIT_T0_T1_EEOS8_S5_
FN:3710,3716,_ZSteqIcSt11char_traitsIcESaIcEEbRKNSt7__cxx1112basic_stringIT_T0_T1_EESA_
FN:3727,3732,_ZSteqIcSt11char_traitsIcESaIcEEbRKNSt7__cxx1112basic_stringIT_T0_T1_EEPKS5_
FN:3774,3776,_ZSteqIcSt11char_traitsIcESaIcEEbPKT_RKNSt7__cxx1112basic_stringIS3_T0_T1_EE
FN:3788,3791,_ZStneIcSt11char_traitsIcESaIcEEbRKNSt7__cxx1112basic_stringIT_T0_T1_EESA_
FN:3815,3817,_ZStneIcSt11char_traitsIcESaIcEEbRKNSt7__cxx1112basic_stringIT_T0_T1_EEPKS5_
FN:3829,3832,_ZStltIcSt11char_traitsIcESaIcEEbRKNSt7__cxx1112basic_stringIT_T0_T1_EESA_
FN:3870,3873,_ZStgtIcSt11char_traitsIcESaIcEEbRKNSt7__cxx1112basic_stringIT_T0_T1_EESA_
FN:3911,3914,_ZStleIcSt11char_traitsIcESaIcEEbRKNSt7__cxx1112basic_stringIT_T0_T1_EESA_
FN:4140,4142,_ZNSt7__cxx116stoullERKNS_12basic_stringIcSt11char_traitsIcESaIcEEEPmi
FN:4204,4212,_ZNSt7__cxx119to_stringEm
FN:4487,4488,_ZNSt8literals15string_literalsli1sB5cxx11EPKcm
FN:641,650,_ZNSt7__cxx1112basic_stringIcSt11char_traitsIcESaIcEEC2IS3_EEPKcRKS3_
FN:641,650,_ZNSt7__cxx1112basic_stringIwSt11char_traitsIwESaIwEEC2IS3_EEPKwRKS3_
FN:664,666,_ZNSt7__cxx1112basic_stringIcSt11char_traitsIcESaIcEEC2IS3_EEmcRKS3_
FN:760,770,_ZNSt7__cxx1112basic_stringIcSt11char_traitsIcESaIcEEC2IN9__gnu_cxx17__normal_iteratorIPKcS4_EEvEET_SB_RKS3_
FN:760,770,_ZNSt7__cxx1112basic_stringIcSt11char_traitsIcESaIcEEC2IN9__gnu_cxx17__normal_iteratorIPcS4_EEvEET_SA_RKS3_
FN:760,770,_ZNSt7__cxx1112basic_stringIcSt11char_traitsIcESaIcEEC2IPcvEET_S7_RKS3_
FN:795,796,_ZNSt7__cxx1112basic_stringIwSt11char_traitsIwESaIwEEC2ISt17basic_string_viewIwS2_EvEERKT_RKS3_
FNDA:0,_ZSt12__str_concatINSt7__cxx1112basic_stringIcSt11char_traitsIcESaIcEEEET_PKNS6_10value_typeENS6_9size_typeES9_SA_RKNS6_14allocator_typeE
FNDA:0,_ZStplIcSt11char_traitsIcESaIcEENSt7__cxx1112basic_stringIT_T0_T1_EEPKS5_RKS8_
FNDA:0,_ZStplIcSt11char_traitsIcESaIcEENSt7__cxx1112basic_stringIT_T0_T1_EERKS8_S5_
FNDA:0,_ZStplIcSt11char_traitsIcESaIcEENSt7__cxx1112basic_stringIT_T0_T1_EEOS8_RKS8_
FNDA:0,_ZStplIcSt11char_traitsIcESaIcEENSt7__cxx1112basic_stringIT_T0_T1_EEOS8_S9_
FNDA:0,_ZStplIcSt11char_traitsIcESaIcEENSt7__cxx1112basic_stringIT_T0_T1_EEPKS5_OS8_
FNDA:0,_ZStplIcSt11char_traitsIcESaIcEENSt7__cxx1112basic_stringIT_T0_T1_EES5_OS8_
FNDA:0,_ZStplIcSt11char_traitsIcESaIcEENSt7__cxx1112basic_stringIT_T0_T1_EEOS8_PKS5_
FNDA:0,_ZStplIcSt11char_traitsIcESaIcEENSt7__cxx1112basic_stringIT_T0_T1_EEOS8_S5_
FNDA:0,_ZSteqIcSt11char_traitsIcESaIcEEbRKNSt7__cxx1112basic_stringIT_T0_T1_EESA_
FNDA:0,_ZSteqIcSt11char_traitsIcESaIcEEbRKNSt7__cxx1112basic_stringIT_T0_T1_EEPKS5_
FNDA:0,_ZSteqIcSt11char_traitsIcESaIcEEbPKT_RKNSt7__cxx1112basic_stringIS3_T0_T1_EE
FNDA:4,_ZStneIcSt11char_traitsIcESaIcEEbRKNSt7__cxx1112basic_stringIT_T0_T1_EESA_
FNDA:0,_ZStneIcSt11char_traitsIcESaIcEEbRKNSt7__cxx1112basic_stringIT_T0_T1_EEPKS5_
FNDA:108,_ZStltIcSt11char_traitsIcESaIcEEbRKNSt7__cxx1112basic_stringIT_T0_T1_EESA_
FNDA:50,_ZStgtIcSt11char_traitsIcESaIcEEbRKNSt7__cxx1112basic_stringIT_T0_T1_EESA_
FNDA:0,_ZStleIcSt11char_traitsIcESaIcEEbRKNSt7__cxx1112basic_stringIT_T0_T1_EESA_
FNDA:0,_ZNSt7__cxx116stoullERKNS_12basic_stringIcSt11char_traitsIcESaIcEEEPmi
FNDA:0,_ZNSt7__cxx119to_stringEm
FNDA:0,_ZNSt8literals15string_literalsli1sB5cxx11EPKcm
FNDA:0,_ZNSt7__cxx1112basic_stringIcSt11char_traitsIcESaIcEEC2IS3_EEPKcRKS3_
FNDA:0,_ZNSt7__cxx1112basic_stringIwSt11char_traitsIwESaIwEEC2IS3_EEPKwRKS3_
FNDA:4,_ZNSt7__cxx1112basic_stringIcSt11char_traitsIcESaIcEEC2IS3_EEmcRKS3_
FNDA:0,_ZNSt7__cxx1112basic_stringIcSt11char_traitsIcESaIcEEC2IN9__gnu_cxx17__normal_iteratorIPKcS4_EEvEET_SB_RKS3_
FNDA:0,_ZNSt7__cxx1112basic_stringIcSt11char_traitsIcESaIcEEC2IN9__gnu_cxx17__normal_iteratorIPcS4_EEvEET_SA_RKS3_
FNDA:0,_ZNSt7__cxx1112basic_stringIcSt11char_traitsIcESaIcEEC2IPcvEET_S7_RKS3_
FNDA:0,_ZNSt7__cxx1112basic_stringIwSt11char_traitsIwESaIwEEC2ISt17basic_string_viewIwS2_EvEERKT_RKS3_
FNF:27
FNH:4
DA:355,435
DA:641,0
DA:642,0
DA:645,0
DA:646,0
DA:648,0
DA:649,0
DA:650,0
DA:664,4
DA:665,4
DA:666,4
DA:760,0
DA:762,0
DA:765,0
DA:770,0
DA:795,0
DA:796,0
DA:3528,0
DA:3536,0
DA:3537,0
DA:3538,0
DA:3539,0
DA:3540,0
DA:3541,0
DA:3571,0
DA:3578,0
DA:3625,0
DA:3630,0
DA:3637,0
DA:3639,0
DA:3651,0
DA:3656,0
DA:3658,0
DA:3661,0
DA:3664,0
DA:3665,0
DA:3666,0
DA:3668,0
DA:3674,0
DA:3676,0
DA:3681,0
DA:3683,0
DA:3688,0
DA:3690,0
DA:3695,0
DA:3697,0
DA:3710,0
DA:3714,0
DA:3715,0
DA:3727,0
DA:3730,0
DA:3731,0
DA:3774,0
DA:3776,0
DA:3788,4
DA:3791,4
DA:3815,0
DA:3817,0
DA:3829,108
DA:3832,108
DA:3870,50
DA:3873,50
DA:3911,0
DA:3914,0
DA:4140,0
DA:4141,0
DA:4142,0
DA:4204,0
DA:4209,0
DA:4210,0
DA:4211,0
DA:4212,0
DA:4487,0
DA:4488,0
LF:74
LH:10
end_of_record
TN:
SF:/usr/include/c++/13/bits/basic_string.tcc
FN:221,252,_ZNSt7__cxx1112basic_stringIcSt11char_traitsIcESaIcEE12_M_constructIN9__gnu_cxx17__normal_iteratorIPKcS4_EEEEvT_SB_St20forward_iterator_tag
FN:221,252,_ZNSt7__cxx1112basic_stringIcSt11char_traitsIcESaIcEE12_M_constructIN9__gnu_cxx17__normal_iteratorIPcS4_EEEEvT_SA_St20forward_iterator_tag
FN:221,252,_ZNSt7__cxx1112basic_stringIcSt11char_traitsIcESaIcEE12_M_constructIPKcEEvT_S8_St20forward_iterator_tag
FN:221,252,_ZNSt7__cxx1112basic_stringIcSt11char_traitsIcESaIcEE12_M_constructIPcEEvT_S7_St20forward_iterator_tag
FN:221,252,_ZNSt7__cxx1112basic_stringIwSt11char_traitsIwESaIwEE12_M_constructIPKwEEvT_S8_St20forward_iterator_tag
FN:239,239,_ZZNSt7__cxx1112basic_stringIcSt11char_traitsIcESaIcEE12_M_constructIN9__gnu_cxx17__normal_iteratorIPKcS4_EEEEvT_SB_St20forward_iterator_tagEN6_GuardC2EPS4_
FN:239,239,_ZZNSt7__cxx1112basic_stringIcSt11char_traitsIcESaIcEE12_M_constructIN9__gnu_cxx17__normal_iteratorIPcS4_EEEEvT_SA_St20forward_iterator_tagEN6_GuardC2EPS4_
FN:239,239,_ZZNSt7__cxx1112basic_stringIcSt11char_traitsIcESaIcEE12_M_constructIPKcEEvT_S8_St20forward_iterator_tagEN6_GuardC2EPS4_
FN:239,239,_ZZNSt7__cxx1112basic_stringIcSt11char_traitsIcESaIcEE12_M_constructIPcEEvT_S7_St20forward_iterator_tagEN6_GuardC2EPS4_
FN:239,239,_ZZNSt7__cxx1112basic_stringIwSt11char_traitsIwESaIwEE12_M_constructIPKwEEvT_S8_St20forward_iterator_tagEN6_GuardC2EPS4_
FN:242,242,_ZZNSt7__cxx1112basic_stringIcSt11char_traitsIcESaIcEE12_M_constructIN9__gnu_cxx17__normal_iteratorIPKcS4_EEEEvT_SB_St20forward_iterator_tagEN6_GuardD2Ev
FN:242,242,_ZZNSt7__cxx1112basic_stringIcSt11char_traitsIcESaIcEE12_M_constructIN9__gnu_cxx17__normal_iteratorIPcS4_EEEEvT_SA_St20forward_iterator_tagEN6_GuardD2Ev
FN:242,242,_ZZNSt7__cxx1112basic_stringIcSt11char_traitsIcESaIcEE12_M_constructIPKcEEvT_S8_St20forward_iterator_tagEN6_GuardD2Ev
FN:242,242,_ZZNSt7__cxx1112basic_stringIcSt11char_traitsIcESaIcEE12_M_constructIPcEEvT_S7_St20forward_iterator_tagEN6_GuardD2Ev
FN:242,242,_ZZNSt7__cxx1112basic_stringIwSt11char_traitsIwESaIwEE12_M_constructIPKwEEvT_S8_St20forward_iterator_tagEN6_GuardD2Ev
FNDA:0,_ZNSt7__cxx1112basic_stringIcSt11char_traitsIcESaIcEE12_M_constructIN9__gnu_cxx17__normal_iteratorIPKcS4_EEEEvT_SB_St20forward_iterator_tag
FNDA:0,_ZNSt7__cxx1112basic_stringIcSt11char_traitsIcESaIcEE12_M_constructIN9__gnu_cxx17__normal_iteratorIPcS4_EEEEvT_SA_St20forward_iterator_tag
FNDA:0,_ZNSt7__cxx1112basic_stringIcSt11char_traitsIcESaIcEE12_M_constructIPKcEEvT_S8_St20forward_iterator_tag
FNDA:857,_ZNSt7__cxx1112basic_stringIcSt11char_traitsIcESaIcEE12_M_constructIPcEEvT_S7_St20forward_iterator_tag
FNDA:0,_ZNSt7__cxx1112basic_stringIwSt11char_traitsIwESaIwEE12_M_constructIPKwEEvT_S8_St20forward_iterator_tag
FNDA:0,_ZZNSt7__cxx1112basic_stringIcSt11char_traitsIcESaIcEE12_M_constructIN9__gnu_cxx17__normal_iteratorIPKcS4_EEEEvT_SB_St20forward_iterator_tagEN6_GuardC2EPS4_
FNDA:0,_ZZNSt7__cxx1112basic_stringIcSt11char_traitsIcESaIcEE12_M_constructIN9__gnu_cxx17__normal_iteratorIPcS4_EEEEvT_SA_St20forward_iterator_tagEN6_GuardC2EPS4_
FNDA:0,_ZZNSt7__cxx1112basic_stringIcSt11char_traitsIcESaIcEE12_M_constructIPKcEEvT_S8_St20forward_iterator_tagEN6_GuardC2EPS4_
FNDA:857,_ZZNSt7__cxx1112basic_stringIcSt11char_traitsIcESaIcEE12_M_constructIPcEEvT_S7_St20forward_iterator_tagEN6_GuardC2EPS4_
FNDA:0,_ZZNSt7__cxx1112basic_stringIwSt11char_traitsIwESaIwEE12_M_constructIPKwEEvT_S8_St20forward_iterator_tagEN6_GuardC2EPS4_
FNDA:0,_ZZNSt7__cxx1112basic_stringIcSt11char_traitsIcESaIcEE12_M_constructIN9__gnu_cxx17__normal_iteratorIPKcS4_EEEEvT_SB_St20forward_iterator_tagEN6_GuardD2Ev
FNDA:0,_ZZNSt7__cxx1112basic_stringIcSt11char_traitsIcESaIcEE12_M_constructIN9__gnu_cxx17__normal_iteratorIPcS4_EEEEvT_SA_St20forward_iterator_tagEN6_GuardD2Ev
FNDA:0,_ZZNSt7__cxx1112basic_stringIcSt11char_traitsIcESaIcEE12_M_constructIPKcEEvT_S8_St20forward_iterator_tagEN6_GuardD2Ev
FNDA:857,_ZZNSt7__cxx1112basic_stringIcSt11char_traitsIcESaIcEE12_M_constructIPcEEvT_S7_St20forward_iterator_tagEN6_GuardD2Ev
FNDA:0,_ZZNSt7__cxx1112basic_stringIwSt11char_traitsIwESaIwEE12_M_constructIPKwEEvT_S8_St20forward_iterator_tagEN6_GuardD2Ev
FNF:15
FNH:3
DA:221,857
DA:225,857
DA:227,857
DA:229,422
DA:230,422
DA:239,857
DA:242,857
DA:245,857
DA:247,857
DA:249,857
DA:251,857
DA:252,857
LF:12
LH:12
end_of_record
TN:
SF:/usr/include/c++/13/bits/char_traits.h
FN:136,137,_ZN9__gnu_cxx11char_traitsIcE2eqERKcS3_
FN:136,137,_ZN9__gnu_cxx11char_traitsIwE2eqERKwS3_
FN:199,206,_ZN9__gnu_cxx11char_traitsIcE6lengthEPKc
FN:199,206,_ZN9__gnu_cxx11char_traitsIwE6lengthEPKw
FN:366,371,_ZNSt11char_traitsIcE2ltERKcS2_
FN:374,390,_ZNSt11char_traitsIcE7compareEPKcS2_m
FN:393,400,_ZNSt11char_traitsIcE6lengthEPKc
FN:427,436,_ZNSt11char_traitsIcE4copyEPcPKcm
FN:524,531,_ZNSt11char_traitsIwE6lengthEPKw
FNDA:0,_ZN9__gnu_cxx11char_traitsIcE2eqERKcS3_
FNDA:0,_ZN9__gnu_cxx11char_traitsIwE2eqERKwS3_
FNDA:0,_ZN9__gnu_cxx11char_traitsIcE6lengthEPKc
FNDA:0,_ZN9__gnu_cxx11char_traitsIwE6lengthEPKw
FNDA:0,_ZNSt11char_traitsIcE2ltERKcS2_
FNDA:0,_ZNSt11char_traitsIcE7compareEPKcS2_m
FNDA:0,_ZNSt11char_traitsIcE6lengthEPKc
FNDA:0,_ZNSt11char_traitsIcE4copyEPcPKcm
FNDA:0,_ZNSt11char_traitsIwE6lengthEPKw
FNF:9
FNH:0
DA:136,0
DA:137,0
DA:199,0
DA:202,0
DA:203,0
DA:204,0
DA:205,0
DA:366,0
DA:369,0
DA:370,0
DA:374,0
DA:376,0
DA:377,0
DA:379,0
DA:381,0
DA:382,0
DA:383,0
DA:384,0
DA:385,0
DA:386,0
DA:389,0
DA:393,0
DA:396,0
DA:397,0
DA:399,0
DA:427,0
DA:429,0
DA:430,0
DA:435,0
DA:524,0
DA:527,0
DA:528,0
DA:530,0
LF:33
LH:0
end_of_record
TN:
SF:/usr/include/c++/13/bits/charconv.h
FN:55,74,_ZNSt8__detail14__to_chars_lenImEEjT_i
FN:81,110,_ZNSt8__detail18__to_chars_10_implImEEvPcjT_
FNDA:0,_ZNSt8__detail14__to_chars_lenImEEjT_i
FNDA:0,_ZNSt8__detail18__to_chars_10_implImEEvPcjT_
FNF:2
FNH:0
DA:55,0
DA:61,0
DA:62,0
DA:63,0
DA:64,0
DA:67,0
DA:68,0
DA:69,0
DA:70,0
DA:71,0
DA:72,0
DA:81,0
DA:87,0
DA:93,0
DA:94,0
DA:96,0
DA:97,0
DA:98,0
DA:99,0
DA:100,0
DA:102,0
DA:104,0
DA:105,0
DA:106,0
DA:109,0
DA:110,0
LF:26
LH:0
end_of_record
TN:
SF:/usr/include/c++/13/bits/chrono.h
FN:273,291,_ZNSt6chrono13duration_castINS_8durationIlSt5ratioILl1ELl1000000000EEEElS3_EENSt9enable_ifIXsrNS_13__is_durationIT_EE5valueES7_E4typeERKNS1_IT0_T1_EE
FN:573,574,_ZNSt6chrono8durationIdSt5ratioILl1ELl1000000000EEEC1IdvEERKT_
FN:573,574,_ZNSt6chrono8durationIlSt5ratioILl1ELl1000EEEC2IlvEERKT_
FN:589,590,_ZNKSt6chrono8durationIdSt5ratioILl1ELl1000000000EEE5countEv
FN:589,590,_ZNKSt6chrono8durationIlSt5ratioILl1ELl1000000000EEE5countEv
FN:625,629,_ZNSt6chrono8durationIdSt5ratioILl1ELl1000000000EEEpLERKS3_
FN:646,650,_ZNSt6chrono8durationIdSt5ratioILl1ELl1000000000EEEdVERKd
FN:949,950,_ZNKSt6chrono10time_pointINS_3_V212steady_clockENS_8durationIlSt5ratioILl1ELl1000000000EEEEE16time_since_epochEv
FNDA:478,_ZNSt6chrono13duration_castINS_8durationIlSt5ratioILl1ELl1000000000EEEElS3_EENSt9enable_ifIXsrNS_13__is_durationIT_EE5valueES7_E4typeERKNS1_IT0_T1_EE
FNDA:0,_ZNSt6chrono8durationIdSt5ratioILl1ELl1000000000EEEC1IdvEERKT_
FNDA:0,_ZNSt6chrono8durationIlSt5ratioILl1ELl1000EEEC2IlvEERKT_
FNDA:0,_ZNKSt6chrono8durationIdSt5ratioILl1ELl1000000000EEE5countEv
FNDA:478,_ZNKSt6chrono8durationIlSt5ratioILl1ELl1000000000EEE5countEv
FNDA:0,_ZNSt6chrono8durationIdSt5ratioILl1ELl1000000000EEEpLERKS3_
FNDA:0,_ZNSt6chrono8durationIdSt5ratioILl1ELl1000000000EEEdVERKd
FNDA:478,_ZNKSt6chrono10time_pointINS_3_V212steady_clockENS_8durationIlSt5ratioILl1ELl1000000000EEEEE16time_since_epochEv
FNF:8
FNH:3
DA:273,478
DA:277,478
DA:573,0
DA:574,0
DA:589,478
DA:590,478
DA:625,0
DA:627,0
DA:628,0
DA:646,0
DA:648,0
DA:649,0
DA:949,478
DA:950,478
LF:14
LH:6
end_of_record
TN:
SF:/usr/include/c++/13/bits/cpp_type_traits.h
FN:607,608,_ZSt12__miter_baseIN9__gnu_cxx17__normal_iteratorIPKN5Catch12ReporterSpecESt6vectorIS3_SaIS3_EEEEET_SA_
FN:607,608,_ZSt12__miter_baseIN9__gnu_cxx17__normal_iteratorIPKN5Catch5Clara3ArgESt6vectorIS4_SaIS4_EEEEET_SB_
FN:607,608,_ZSt12__miter_baseIN9__gnu_cxx17__normal_iteratorIPKN5Catch5Clara3OptESt6vectorIS4_SaIS4_EEEEET_SB_
FN:607,608,_ZSt12__miter_baseIN9__gnu_cxx17__normal_iteratorIPKN5Catch9StringRefESt6vectorIS3_SaIS3_EEEEET_SA_
FN:607,608,_ZSt12__miter_baseIN9__gnu_cxx17__normal_iteratorIPKNSt6chrono8durationIdSt5ratioILl1ELl1000000000EEEESt6vectorIS6_SaIS6_EEEEET_SD_
FN:607,608,_ZSt12__miter_baseIN9__gnu_cxx17__normal_iteratorIPKNSt7__cxx1112basic_stringIcSt11char_traitsIcESaIcEEESt6vectorIS7_SaIS7_EEEEET_SE_
FN:607,608,_ZSt12__miter_baseIN9__gnu_cxx17__normal_iteratorIPKNSt7__cxx119sub_matchINS1_IPKcNS2_12basic_stringIcSt11char_traitsIcESaIcEEEEEEESt6vectorISC_SaISC_EEEEET_SJ_
FN:607,608,_ZSt12__miter_baseIN9__gnu_cxx17__normal_iteratorIPKPKN5Catch14TestCaseHandleESt6vectorIS5_SaIS5_EEEEET_SC_
FN:607,608,_ZSt12__miter_baseIN9__gnu_cxx17__normal_iteratorIPKcSt6vectorIcSaIcEEEEET_S8_
FN:607,608,_ZSt12__miter_baseIN9__gnu_cxx17__normal_iteratorIPN5Catch11MessageInfoESt6vectorIS3_SaIS3_EEEEET_S9_
FN:607,608,_ZSt12__miter_baseIN9__gnu_cxx17__normal_iteratorIPN5Catch14TestCaseHandleESt6vectorIS3_SaIS3_EEEEET_S9_
FN:607,608,_ZSt12__miter_baseIN9__gnu_cxx17__normal_iteratorIPN5Catch3TagESt6vectorIS3_SaIS3_EEEEET_S9_
FN:607,608,_ZSt12__miter_baseIN9__gnu_cxx17__normal_iteratorIPN5Catch5Clara6Detail5TokenESt6vectorIS5_SaIS5_EEEEET_SB_
FN:607,608,_ZSt12__miter_baseIN9__gnu_cxx17__normal_iteratorIPNSt7__cxx1112basic_stringIcSt11char_traitsIcESaIcEEESt6vectorIS7_SaIS7_EEEEET_SD_
FN:607,608,_ZSt12__miter_baseIN9__gnu_cxx17__normal_iteratorIPSt4pairImN5Catch14TestCaseHandleEESt6vectorIS5_SaIS5_EEEEET_SB_
FN:607,608,_ZSt12__miter_baseIN9__gnu_cxx17__normal_iteratorIPcSt6vectorIcSaIcEEEEET_S7_
FN:607,608,_ZSt12__miter_baseIN9__gnu_cxx17__normal_iteratorIPdSt6vectorIdSaIdEEEEET_S7_
FN:607,608,_ZSt12__miter_baseIPKcET_S2_
FN:607,608,_ZSt12__miter_baseIPKdET_S2_
FN:607,608,_ZSt12__miter_baseIPN5Catch12ReporterSpecEET_S3_
FN:607,608,_ZSt12__miter_baseIPN5Catch5Clara3ArgEET_S4_
FN:607,608,_ZSt12__miter_baseIPN5Catch5Clara3OptEET_S4_
FN:607,608,_ZSt12__miter_baseIPN5Catch6Detail10unique_ptrINS0_14IEventListenerEEEET_S6_
FN:607,608,_ZSt12__miter_baseIPN5Catch9StringRefEET_S3_
FN:607,608,_ZSt12__miter_baseIPNSt7__cxx1112basic_stringIcSt11char_traitsIcESaIcEEEET_S7_
FN:607,608,_ZSt12__miter_baseIPNSt7__cxx119sub_matchIN9__gnu_cxx17__normal_iteratorIPKcNS0_12basic_stringIcSt11char_traitsIcESaIcEEEEEEEET_SE_
FN:607,608,_ZSt12__miter_baseIPPN5Catch12JsonReporter6WriterEET_S5_
FN:607,608,_ZSt12__miter_baseIPPN5Catch15JsonArrayWriterEET_S4_
FN:607,608,_ZSt12__miter_baseIPPN5Catch16JsonObjectWriterEET_S4_
FN:607,608,_ZSt12__miter_baseIPPNSt8__detail9_StateSeqINSt7__cxx1112regex_traitsIcEEEEET_S8_
FN:607,608,_ZSt12__miter_baseIPPcET_S2_
FN:607,608,_ZSt12__miter_baseIPPlET_S2_
FN:607,608,_ZSt12__miter_baseIPcET_S1_
FN:607,608,_ZSt12__miter_baseIPdET_S1_
FNDA:0,_ZSt12__miter_baseIN9__gnu_cxx17__normal_iteratorIPKN5Catch12ReporterSpecESt6vectorIS3_SaIS3_EEEEET_SA_
FNDA:0,_ZSt12__miter_baseIN9__gnu_cxx17__normal_iteratorIPKN5Catch5Clara3ArgESt6vectorIS4_SaIS4_EEEEET_SB_
FNDA:0,_ZSt12__miter_baseIN9__gnu_cxx17__normal_iteratorIPKN5Catch5Clara3OptESt6vectorIS4_SaIS4_EEEEET_SB_
FNDA:0,_ZSt12__miter_baseIN9__gnu_cxx17__normal_iteratorIPKN5Catch9StringRefESt6vectorIS3_SaIS3_EEEEET_SA_
FNDA:0,_ZSt12__miter_baseIN9__gnu_cxx17__normal_iteratorIPKNSt6chrono8durationIdSt5ratioILl1ELl1000000000EEEESt6vectorIS6_SaIS6_EEEEET_SD_
FNDA:0,_ZSt12__miter_baseIN9__gnu_cxx17__normal_iteratorIPKNSt7__cxx1112basic_stringIcSt11char_traitsIcESaIcEEESt6vectorIS7_SaIS7_EEEEET_SE_
FNDA:0,_ZSt12__miter_baseIN9__gnu_cxx17__normal_iteratorIPKNSt7__cxx119sub_matchINS1_IPKcNS2_12basic_stringIcSt11char_traitsIcESaIcEEEEEEESt6vectorISC_SaISC_EEEEET_SJ_
FNDA:0,_ZSt12__miter_baseIN9__gnu_cxx17__normal_iteratorIPKPKN5Catch14TestCaseHandleESt6vectorIS5_SaIS5_EEEEET_SC_
FNDA:0,_ZSt12__miter_baseIN9__gnu_cxx17__normal_iteratorIPKcSt6vectorIcSaIcEEEEET_S8_
FNDA:0,_ZSt12__miter_baseIN9__gnu_cxx17__normal_iteratorIPN5Catch11MessageInfoESt6vectorIS3_SaIS3_EEEEET_S9_
FNDA:0,_ZSt12__miter_baseIN9__gnu_cxx17__normal_iteratorIPN5Catch14TestCaseHandleESt6vectorIS3_SaIS3_EEEEET_S9_
FNDA:0,_ZSt12__miter_baseIN9__gnu_cxx17__normal_iteratorIPN5Catch3TagESt6vectorIS3_SaIS3_EEEEET_S9_
FNDA:0,_ZSt12__miter_baseIN9__gnu_cxx17__normal_iteratorIPN5Catch5Clara6Detail5TokenESt6vectorIS5_SaIS5_EEEEET_SB_
FNDA:0,_ZSt12__miter_baseIN9__gnu_cxx17__normal_iteratorIPNSt7__cxx1112basic_stringIcSt11char_traitsIcESaIcEEESt6vectorIS7_SaIS7_EEEEET_SD_
FNDA:4,_ZSt12__miter_baseIN9__gnu_cxx17__normal_iteratorIPSt4pairImN5Catch14TestCaseHandleEESt6vectorIS5_SaIS5_EEEEET_SB_
FNDA:0,_ZSt12__miter_baseIN9__gnu_cxx17__normal_iteratorIPcSt6vectorIcSaIcEEEEET_S7_
FNDA:0,_ZSt12__miter_baseIN9__gnu_cxx17__normal_iteratorIPdSt6vectorIdSaIdEEEEET_S7_
FNDA:0,_ZSt12__miter_baseIPKcET_S2_
FNDA:0,_ZSt12__miter_baseIPKdET_S2_
FNDA:0,_ZSt12__miter_baseIPN5Catch12ReporterSpecEET_S3_
FNDA:0,_ZSt12__miter_baseIPN5Catch5Clara3ArgEET_S4_
FNDA:0,_ZSt12__miter_baseIPN5Catch5Clara3OptEET_S4_
FNDA:0,_ZSt12__miter_baseIPN5Catch6Detail10unique_ptrINS0_14IEventListenerEEEET_S6_
FNDA:0,_ZSt12__miter_baseIPN5Catch9StringRefEET_S3_
FNDA:0,_ZSt12__miter_baseIPNSt7__cxx1112basic_stringIcSt11char_traitsIcESaIcEEEET_S7_
FNDA:0,_ZSt12__miter_baseIPNSt7__cxx119sub_matchIN9__gnu_cxx17__normal_iteratorIPKcNS0_12basic_stringIcSt11char_traitsIcESaIcEEEEEEEET_SE_
FNDA:0,_ZSt12__miter_baseIPPN5Catch12JsonReporter6WriterEET_S5_
FNDA:0,_ZSt12__miter_baseIPPN5Catch15JsonArrayWriterEET_S4_
FNDA:0,_ZSt12__miter_baseIPPN5Catch16JsonObjectWriterEET_S4_
FNDA:0,_ZSt12__miter_baseIPPNSt8__detail9_StateSeqINSt7__cxx1112regex_traitsIcEEEEET_S8_
FNDA:0,_ZSt12__miter_baseIPPcET_S2_
FNDA:0,_ZSt12__miter_baseIPPlET_S2_
FNDA:0,_ZSt12__miter_baseIPcET_S1_
FNDA:0,_ZSt12__miter_baseIPdET_S1_
FNF:34
FNH:1
DA:607,4
DA:608,4
LF:2
LH:2
end_of_record
TN:
SF:/usr/include/c++/13/bits/deque.tcc
FN:164,180,_ZNSt5dequeIN5Catch12JsonReporter6WriterESaIS2_EE12emplace_backIJS2_EEERS2_DpOT_
FN:164,180,_ZNSt5dequeIN5Catch15JsonArrayWriterESaIS1_EE12emplace_backIJS1_EEERS1_DpOT_
FN:164,180,_ZNSt5dequeIN5Catch16JsonObjectWriterESaIS1_EE12emplace_backIJRSoEEERS1_DpOT_
FN:164,180,_ZNSt5dequeIN5Catch16JsonObjectWriterESaIS1_EE12emplace_backIJS1_EEERS1_DpOT_
FN:164,180,_ZNSt5dequeINSt8__detail9_StateSeqINSt7__cxx1112regex_traitsIcEEEESaIS5_EE12emplace_backIJS5_EEERS5_DpOT_
FN:484,516,_ZNSt5dequeIN5Catch12JsonReporter6WriterESaIS2_EE16_M_push_back_auxIJS2_EEEvDpOT_
FN:484,516,_ZNSt5dequeIN5Catch15JsonArrayWriterESaIS1_EE16_M_push_back_auxIJS1_EEEvDpOT_
FN:484,516,_ZNSt5dequeIN5Catch16JsonObjectWriterESaIS1_EE16_M_push_back_auxIJRSoEEEvDpOT_
FN:484,516,_ZNSt5dequeIN5Catch16JsonObjectWriterESaIS1_EE16_M_push_back_auxIJS1_EEEvDpOT_
FN:484,516,_ZNSt5dequeINSt8__detail9_StateSeqINSt7__cxx1112regex_traitsIcEEEESaIS5_EE16_M_push_back_auxIJRKS5_EEEvDpOT_
FN:484,516,_ZNSt5dequeINSt8__detail9_StateSeqINSt7__cxx1112regex_traitsIcEEEESaIS5_EE16_M_push_back_auxIJS5_EEEvDpOT_
FN:484,516,_ZNSt5dequeIcSaIcEE16_M_push_back_auxIJRKcEEEvDpOT_
FN:484,516,_ZNSt5dequeIlSaIlEE16_M_push_back_auxIJRKlEEEvDpOT_
FN:560,568,_ZNSt5dequeIN5Catch12JsonReporter6WriterESaIS2_EE15_M_pop_back_auxEv
FN:560,568,_ZNSt5dequeIN5Catch15JsonArrayWriterESaIS1_EE15_M_pop_back_auxEv
FN:560,568,_ZNSt5dequeIN5Catch16JsonObjectWriterESaIS1_EE15_M_pop_back_auxEv
FN:560,568,_ZNSt5dequeINSt8__detail9_StateSeqINSt7__cxx1112regex_traitsIcEEEESaIS5_EE15_M_pop_back_auxEv
FN:560,568,_ZNSt5dequeIcSaIcEE15_M_pop_back_auxEv
FN:560,568,_ZNSt5dequeIlSaIlEE15_M_pop_back_auxEv
FN:859,877,_ZNSt5dequeIN5Catch15JsonArrayWriterESaIS1_EE19_M_destroy_data_auxESt15_Deque_iteratorIS1_RS1_PS1_ES7_
FN:859,877,_ZNSt5dequeIN5Catch16JsonObjectWriterESaIS1_EE19_M_destroy_data_auxESt15_Deque_iteratorIS1_RS1_PS1_ES7_
FN:931,973,_ZNSt5dequeIN5Catch12JsonReporter6WriterESaIS2_EE17_M_reallocate_mapEmb
FN:931,973,_ZNSt5dequeIN5Catch15JsonArrayWriterESaIS1_EE17_M_reallocate_mapEmb
FN:931,973,_ZNSt5dequeIN5Catch16JsonObjectWriterESaIS1_EE17_M_reallocate_mapEmb
FN:931,973,_ZNSt5dequeINSt8__detail9_StateSeqINSt7__cxx1112regex_traitsIcEEEESaIS5_EE17_M_reallocate_mapEmb
FN:931,973,_ZNSt5dequeIcSaIcEE17_M_reallocate_mapEmb
FN:931,973,_ZNSt5dequeIlSaIlEE17_M_reallocate_mapEmb
FNDA:0,_ZNSt5dequeIN5Catch12JsonReporter6WriterESaIS2_EE12emplace_backIJS2_EEERS2_DpOT_
FNDA:0,_ZNSt5dequeIN5Catch15JsonArrayWriterESaIS1_EE12emplace_backIJS1_EEERS1_DpOT_
FNDA:0,_ZNSt5dequeIN5Catch16JsonObjectWriterESaIS1_EE12emplace_backIJRSoEEERS1_DpOT_
FNDA:0,_ZNSt5dequeIN5Catch16JsonObjectWriterESaIS1_EE12emplace_backIJS1_EEERS1_DpOT_
FNDA:0,_ZNSt5dequeINSt8__detail9_StateSeqINSt7__cxx1112regex_traitsIcEEEESaIS5_EE12emplace_backIJS5_EEERS5_DpOT_
FNDA:0,_ZNSt5dequeIN5Catch12JsonReporter6WriterESaIS2_EE16_M_push_back_auxIJS2_EEEvDpOT_
FNDA:0,_ZNSt5dequeIN5Catch15JsonArrayWriterESaIS1_EE16_M_push_back_auxIJS1_EEEvDpOT_
FNDA:0,_ZNSt5dequeIN5Catch16JsonObjectWriterESaIS1_EE16_M_push_back_auxIJRSoEEEvDpOT_
FNDA:0,_ZNSt5dequeIN5Catch16JsonObjectWriterESaIS1_EE16_M_push_back_auxIJS1_EEEvDpOT_
FNDA:0,_ZNSt5dequeINSt8__detail9_StateSeqINSt7__cxx1112regex_traitsIcEEEESaIS5_EE16_M_push_back_auxIJRKS5_EEEvDpOT_
FNDA:0,_ZNSt5dequeINSt8__detail9_StateSeqINSt7__cxx1112regex_traitsIcEEEESaIS5_EE16_M_push_back_auxIJS5_EEEvDpOT_
FNDA:0,_ZNSt5dequeIcSaIcEE16_M_push_back_auxIJRKcEEEvDpOT_
FNDA:0,_ZNSt5dequeIlSaIlEE16_M_push_back_auxIJRKlEEEvDpOT_
FNDA:0,_ZNSt5dequeIN5Catch12JsonReporter6WriterESaIS2_EE15_M_pop_back_auxEv
FNDA:0,_ZNSt5dequeIN5Catch15JsonArrayWriterESaIS1_EE15_M_pop_back_auxEv
FNDA:0,_ZNSt5dequeIN5Catch16JsonObjectWriterESaIS1_EE15_M_pop_back_auxEv
FNDA:0,_ZNSt5dequeINSt8__detail9_StateSeqINSt7__cxx1112regex_traitsIcEEEESaIS5_EE15_M_pop_back_auxEv
FNDA:0,_ZNSt5dequeIcSaIcEE15_M_pop_back_auxEv
FNDA:0,_ZNSt5dequeIlSaIlEE15_M_pop_back_auxEv
FNDA:0,_ZNSt5dequeIN5Catch15JsonArrayWriterESaIS1_EE19_M_destroy_data_auxESt15_Deque_iteratorIS1_RS1_PS1_ES7_
FNDA:0,_ZNSt5dequeIN5Catch16JsonObjectWriterESaIS1_EE19_M_destroy_data_auxESt15_Deque_iteratorIS1_RS1_PS1_ES7_
FNDA:0,_ZNSt5dequeIN5Catch12JsonReporter6WriterESaIS2_EE17_M_reallocate_mapEmb
FNDA:0,_ZNSt5dequeIN5Catch15JsonArrayWriterESaIS1_EE17_M_reallocate_mapEmb
FNDA:0,_ZNSt5dequeIN5Catch16JsonObjectWriterESaIS1_EE17_M_reallocate_mapEmb
FNDA:0,_ZNSt5dequeINSt8__detail9_StateSeqINSt7__cxx1112regex_traitsIcEEEESaIS5_EE17_M_reallocate_mapEmb
FNDA:0,_ZNSt5dequeIcSaIcEE17_M_reallocate_mapEmb
FNDA:0,_ZNSt5dequeIlSaIlEE17_M_reallocate_mapEmb
FNF:27
FNH:0
DA:164,0
DA:167,0
DA:168,0
DA:170,0
DA:173,0
DA:176,0
DA:178,0
DA:484,0
DA:492,0
DA:493,0
DA:496,0
DA:497,0
DA:501,0
DA:507,0
DA:509,0
DA:511,0
DA:513,0
DA:514,0
DA:516,0
DA:560,0
DA:563,0
DA:564,0
DA:565,0
DA:566,0
DA:568,0
DA:859,0
DA:862,0
DA:863,0
DA:864,0
DA:865,0
DA:867,0
DA:869,0
DA:870,0
DA:871,0
DA:872,0
DA:875,0
DA:876,0
DA:877,0
DA:931,0
DA:934,0
DA:935,0
DA:936,0
DA:939,0
DA:941,0
DA:942,0
DA:943,0
DA:944,0
DA:945,0
DA:946,0
DA:949,0
DA:950,0
DA:951,0
DA:955,0
DA:956,0
DA:959,0
DA:960,0
DA:961,0
DA:962,0
DA:963,0
DA:965,0
DA:967,0
DA:968,0
DA:971,0
DA:972,0
DA:973,0
LF:65
LH:0
end_of_record
TN:
SF:/usr/include/c++/13/bits/exception.h
FN:62,62,_ZNSt9exceptionC2Ev
FN:65,65,_ZNSt9exceptionC2ERKS_
FNDA:0,_ZNSt9exceptionC2Ev
FNDA:0,_ZNSt9exceptionC2ERKS_
FNF:2
FNH:0
DA:62,0
DA:65,0
LF:2
LH:0
end_of_record
TN:
SF:/usr/include/c++/13/bits/exception_ptr.h
FN:119,121,_ZNSt15__exception_ptr13exception_ptrC2EDn
FN:123,125,_ZNSt15__exception_ptr13exception_ptrC2EOS0_
FN:172,174,_ZNSt15__exception_ptreqERKNS_13exception_ptrES2_
FN:195,201,_ZNSt15__exception_ptr13exception_ptrC2ERKS0_
FN:205,209,_ZNSt15__exception_ptr13exception_ptrD2Ev
FNDA:0,_ZNSt15__exception_ptr13exception_ptrC2EDn
FNDA:0,_ZNSt15__exception_ptr13exception_ptrC2EOS0_
FNDA:0,_ZNSt15__exception_ptreqERKNS_13exception_ptrES2_
FNDA:0,_ZNSt15__exception_ptr13exception_ptrC2ERKS0_
FNDA:0,_ZNSt15__exception_ptr13exception_ptrD2Ev
FNF:5
FNH:0
DA:119,0
DA:120,0
DA:121,0
DA:123,0
DA:124,0
DA:125,0
DA:172,0
DA:174,0
DA:195,0
DA:196,0
DA:197,0
DA:199,0
DA:200,0
DA:201,0
DA:205,0
DA:207,0
DA:208,0
DA:209,0
LF:18
LH:0
end_of_record
TN:
SF:/usr/include/c++/13/bits/invoke.h
FN:104,117,_ZSt10__invoke_rIbRNSt8__detail11_AnyMatcherINSt7__cxx1112regex_traitsIcEELb0ELb0ELb0EEEJcEENSt9enable_ifIX16is_invocable_r_vIT_T0_DpT1_EES8_E4typeEOS9_DpOSA_
FN:104,117,_ZSt10__invoke_rIbRNSt8__detail11_AnyMatcherINSt7__cxx1112regex_traitsIcEELb0ELb0ELb1EEEJcEENSt9enable_ifIX16is_invocable_r_vIT_T0_DpT1_EES8_E4typeEOS9_DpOSA_
FN:104,117,_ZSt10__invoke_rIbRNSt8__detail11_AnyMatcherINSt7__cxx1112regex_traitsIcEELb0ELb1ELb0EEEJcEENSt9enable_ifIX16is_invocable_r_vIT_T0_DpT1_EES8_E4typeEOS9_DpOSA_
FN:104,117,_ZSt10__invoke_rIbRNSt8__detail11_AnyMatcherINSt7__cxx1112regex_traitsIcEELb0ELb1ELb1EEEJcEENSt9enable_ifIX16is_invocable_r_vIT_T0_DpT1_EES8_E4typeEOS9_DpOSA_
FN:104,117,_ZSt10__invoke_rIbRNSt8__detail11_AnyMatcherINSt7__cxx1112regex_traitsIcEELb1ELb0ELb0EEEJcEENSt9enable_ifIX16is_invocable_r_vIT_T0_DpT1_EES8_E4typeEOS9_DpOSA_
FN:104,117,_ZSt10__invoke_rIbRNSt8__detail11_AnyMatcherINSt7__cxx1112regex_traitsIcEELb1ELb0ELb1EEEJcEENSt9enable_ifIX16is_invocable_r_vIT_T0_DpT1_EES8_E4typeEOS9_DpOSA_
FN:104,117,_ZSt10__invoke_rIbRNSt8__detail11_AnyMatcherINSt7__cxx1112regex_traitsIcEELb1ELb1ELb0EEEJcEENSt9enable_ifIX16is_invocable_r_vIT_T0_DpT1_EES8_E4typeEOS9_DpOSA_
FN:104,117,_ZSt10__invoke_rIbRNSt8__detail11_AnyMatcherINSt7__cxx1112regex_traitsIcEELb1ELb1ELb1EEEJcEENSt9enable_ifIX16is_invocable_r_vIT_T0_DpT1_EES8_E4typeEOS9_DpOSA_
FN:104,117,_ZSt10__invoke_rIbRNSt8__detail12_CharMatcherINSt7__cxx1112regex_traitsIcEELb0ELb0EEEJcEENSt9enable_ifIX16is_invocable_r_vIT_T0_DpT1_EES8_E4typeEOS9_DpOSA_
FN:104,117,_ZSt10__invoke_rIbRNSt8__detail12_CharMatcherINSt7__cxx1112regex_traitsIcEELb0ELb1EEEJcEENSt9enable_ifIX16is_invocable_r_vIT_T0_DpT1_EES8_E4typeEOS9_DpOSA_
FN:104,117,_ZSt10__invoke_rIbRNSt8__detail12_CharMatcherINSt7__cxx1112regex_traitsIcEELb1ELb0EEEJcEENSt9enable_ifIX16is_invocable_r_vIT_T0_DpT1_EES8_E4typeEOS9_DpOSA_
FN:104,117,_ZSt10__invoke_rIbRNSt8__detail12_CharMatcherINSt7__cxx1112regex_traitsIcEELb1ELb1EEEJcEENSt9enable_ifIX16is_invocable_r_vIT_T0_DpT1_EES8_E4typeEOS9_DpOSA_
FN:104,117,_ZSt10__invoke_rIbRNSt8__detail15_BracketMatcherINSt7__cxx1112regex_traitsIcEELb0ELb0EEEJcEENSt9enable_ifIX16is_invocable_r_vIT_T0_DpT1_EES8_E4typeEOS9_DpOSA_
FN:104,117,_ZSt10__invoke_rIbRNSt8__detail15_BracketMatcherINSt7__cxx1112regex_traitsIcEELb0ELb1EEEJcEENSt9enable_ifIX16is_invocable_r_vIT_T0_DpT1_EES8_E4typeEOS9_DpOSA_
FN:104,117,_ZSt10__invoke_rIbRNSt8__detail15_BracketMatcherINSt7__cxx1112regex_traitsIcEELb1ELb0EEEJcEENSt9enable_ifIX16is_invocable_r_vIT_T0_DpT1_EES8_E4typeEOS9_DpOSA_
FN:104,117,_ZSt10__invoke_rIbRNSt8__detail15_BracketMatcherINSt7__cxx1112regex_traitsIcEELb1ELb1EEEJcEENSt9enable_ifIX16is_invocable_r_vIT_T0_DpT1_EES8_E4typeEOS9_DpOSA_
FN:60,61,_ZSt13__invoke_implIbRNSt8__detail11_AnyMatcherINSt7__cxx1112regex_traitsIcEELb0ELb0ELb0EEEJcEET_St14__invoke_otherOT0_DpOT1_
FN:60,61,_ZSt13__invoke_implIbRNSt8__detail11_AnyMatcherINSt7__cxx1112regex_traitsIcEELb0ELb0ELb1EEEJcEET_St14__invoke_otherOT0_DpOT1_
FN:60,61,_ZSt13__invoke_implIbRNSt8__detail11_AnyMatcherINSt7__cxx1112regex_traitsIcEELb0ELb1ELb0EEEJcEET_St14__invoke_otherOT0_DpOT1_
FN:60,61,_ZSt13__invoke_implIbRNSt8__detail11_AnyMatcherINSt7__cxx1112regex_traitsIcEELb0ELb1ELb1EEEJcEET_St14__invoke_otherOT0_DpOT1_
FN:60,61,_ZSt13__invoke_implIbRNSt8__detail11_AnyMatcherINSt7__cxx1112regex_traitsIcEELb1ELb0ELb0EEEJcEET_St14__invoke_otherOT0_DpOT1_
FN:60,61,_ZSt13__invoke_implIbRNSt8__detail11_AnyMatcherINSt7__cxx1112regex_traitsIcEELb1ELb0ELb1EEEJcEET_St14__invoke_otherOT0_DpOT1_
FN:60,61,_ZSt13__invoke_implIbRNSt8__detail11_AnyMatcherINSt7__cxx1112regex_traitsIcEELb1ELb1ELb0EEEJcEET_St14__invoke_otherOT0_DpOT1_
FN:60,61,_ZSt13__invoke_implIbRNSt8__detail11_AnyMatcherINSt7__cxx1112regex_traitsIcEELb1ELb1ELb1EEEJcEET_St14__invoke_otherOT0_DpOT1_
FN:60,61,_ZSt13__invoke_implIbRNSt8__detail12_CharMatcherINSt7__cxx1112regex_traitsIcEELb0ELb0EEEJcEET_St14__invoke_otherOT0_DpOT1_
FN:60,61,_ZSt13__invoke_implIbRNSt8__detail12_CharMatcherINSt7__cxx1112regex_traitsIcEELb0ELb1EEEJcEET_St14__invoke_otherOT0_DpOT1_
FN:60,61,_ZSt13__invoke_implIbRNSt8__detail12_CharMatcherINSt7__cxx1112regex_traitsIcEELb1ELb0EEEJcEET_St14__invoke_otherOT0_DpOT1_
FN:60,61,_ZSt13__invoke_implIbRNSt8__detail12_CharMatcherINSt7__cxx1112regex_traitsIcEELb1ELb1EEEJcEET_St14__invoke_otherOT0_DpOT1_
FN:60,61,_ZSt13__invoke_implIbRNSt8__detail15_BracketMatcherINSt7__cxx1112regex_traitsIcEELb0ELb0EEEJcEET_St14__invoke_otherOT0_DpOT1_
FN:60,61,_ZSt13__invoke_implIbRNSt8__detail15_BracketMatcherINSt7__cxx1112regex_traitsIcEELb0ELb1EEEJcEET_St14__invoke_otherOT0_DpOT1_
FN:60,61,_ZSt13__invoke_implIbRNSt8__detail15_BracketMatcherINSt7__cxx1112regex_traitsIcEELb1ELb0EEEJcEET_St14__invoke_otherOT0_DpOT1_
FN:60,61,_ZSt13__invoke_implIbRNSt8__detail15_BracketMatcherINSt7__cxx1112regex_traitsIcEELb1ELb1EEEJcEET_St14__invoke_otherOT0_DpOT1_
FNDA:0,_ZSt10__invoke_rIbRNSt8__detail11_AnyMatcherINSt7__cxx1112regex_traitsIcEELb0ELb0ELb0EEEJcEENSt9enable_ifIX16is_invocable_r_vIT_T0_DpT1_EES8_E4typeEOS9_DpOSA_
FNDA:0,_ZSt10__invoke_rIbRNSt8__detail11_AnyMatcherINSt7__cxx1112regex_traitsIcEELb0ELb0ELb1EEEJcEENSt9enable_ifIX16is_invocable_r_vIT_T0_DpT1_EES8_E4typeEOS9_DpOSA_
FNDA:0,_ZSt10__invoke_rIbRNSt8__detail11_AnyMatcherINSt7__cxx1112regex_traitsIcEELb0ELb1ELb0EEEJcEENSt9enable_ifIX16is_invocable_r_vIT_T0_DpT1_EES8_E4typeEOS9_DpOSA_
FNDA:0,_ZSt10__invoke_rIbRNSt8__detail11_AnyMatcherINSt7__cxx1112regex_traitsIcEELb0ELb1ELb1EEEJcEENSt9enable_ifIX16is_invocable_r_vIT_T0_DpT1_EES8_E4typeEOS9_DpOSA_
FNDA:0,_ZSt10__invoke_rIbRNSt8__detail11_AnyMatcherINSt7__cxx1112regex_traitsIcEELb1ELb0ELb0EEEJcEENSt9enable_ifIX16is_invocable_r_vIT_T0_DpT1_EES8_E4typeEOS9_DpOSA_
FNDA:0,_ZSt10__invoke_rIbRNSt8__detail11_AnyMatcherINSt7__cxx1112regex_traitsIcEELb1ELb0ELb1EEEJcEENSt9enable_ifIX16is_invocable_r_vIT_T0_DpT1_EES8_E4typeEOS9_DpOSA_
FNDA:0,_ZSt10__invoke_rIbRNSt8__detail11_AnyMatcherINSt7__cxx1112regex_traitsIcEELb1ELb1ELb0EEEJcEENSt9enable_ifIX16is_invocable_r_vIT_T0_DpT1_EES8_E4typeEOS9_DpOSA_
FNDA:0,_ZSt10__invoke_rIbRNSt8__detail11_AnyMatcherINSt7__cxx1112regex_traitsIcEELb1ELb1ELb1EEEJcEENSt9enable_ifIX16is_invocable_r_vIT_T0_DpT1_EES8_E4typeEOS9_DpOSA_
FNDA:0,_ZSt10__invoke_rIbRNSt8__detail12_CharMatcherINSt7__cxx1112regex_traitsIcEELb0ELb0EEEJcEENSt9enable_ifIX16is_invocable_r_vIT_T0_DpT1_EES8_E4typeEOS9_DpOSA_
FNDA:0,_ZSt10__invoke_rIbRNSt8__detail12_CharMatcherINSt7__cxx1112regex_traitsIcEELb0ELb1EEEJcEENSt9enable_ifIX16is_invocable_r_vIT_T0_DpT1_EES8_E4typeEOS9_DpOSA_
FNDA:0,_ZSt10__invoke_rIbRNSt8__detail12_CharMatcherINSt7__cxx1112regex_traitsIcEELb1ELb0EEEJcEENSt9enable_ifIX16is_invocable_r_vIT_T0_DpT1_EES8_E4typeEOS9_DpOSA_
FNDA:0,_ZSt10__invoke_rIbRNSt8__detail12_CharMatcherINSt7__cxx1112regex_traitsIcEELb1ELb1EEEJcEENSt9enable_ifIX16is_invocable_r_vIT_T0_DpT1_EES8_E4typeEOS9_DpOSA_
FNDA:0,_ZSt10__invoke_rIbRNSt8__detail15_BracketMatcherINSt7__cxx1112regex_traitsIcEELb0ELb0EEEJcEENSt9enable_ifIX16is_invocable_r_vIT_T0_DpT1_EES8_E4typeEOS9_DpOSA_
FNDA:0,_ZSt10__invoke_rIbRNSt8__detail15_BracketMatcherINSt7__cxx1112regex_traitsIcEELb0ELb1EEEJcEENSt9enable_ifIX16is_invocable_r_vIT_T0_DpT1_EES8_E4typeEOS9_DpOSA_
FNDA:0,_ZSt10__invoke_rIbRNSt8__detail15_BracketMatcherINSt7__cxx1112regex_traitsIcEELb1ELb0EEEJcEENSt9enable_ifIX16is_invocable_r_vIT_T0_DpT1_EES8_E4typeEOS9_DpOSA_
FNDA:0,_ZSt10__invoke_rIbRNSt8__detail15_BracketMatcherINSt7__cxx1112regex_traitsIcEELb1ELb1EEEJcEENSt9enable_ifIX16is_invocable_r_vIT_T0_DpT1_EES8_E4typeEOS9_DpOSA_
FNDA:0,_ZSt13__invoke_implIbRNSt8__detail11_AnyMatcherINSt7__cxx1112regex_traitsIcEELb0ELb0ELb0EEEJcEET_St14__invoke_otherOT0_DpOT1_
FNDA:0,_ZSt13__invoke_implIbRNSt8__detail11_AnyMatcherINSt7__cxx1112regex_traitsIcEELb0ELb0ELb1EEEJcEET_St14__invoke_otherOT0_DpOT1_
FNDA:0,_ZSt13__invoke_implIbRNSt8__detail11_AnyMatcherINSt7__cxx1112regex_traitsIcEELb0ELb1ELb0EEEJcEET_St14__invoke_otherOT0_DpOT1_
FNDA:0,_ZSt13__invoke_implIbRNSt8__detail11_AnyMatcherINSt7__cxx1112regex_traitsIcEELb0ELb1ELb1EEEJcEET_St14__invoke_otherOT0_DpOT1_
FNDA:0,_ZSt13__invoke_implIbRNSt8__detail11_AnyMatcherINSt7__cxx1112regex_traitsIcEELb1ELb0ELb0EEEJcEET_St14__invoke_otherOT0_DpOT1_
FNDA:0,_ZSt13__invoke_implIbRNSt8__detail11_AnyMatcherINSt7__cxx1112regex_traitsIcEELb1ELb0ELb1EEEJcEET_St14__invoke_otherOT0_DpOT1_
FNDA:0,_ZSt13__invoke_implIbRNSt8__detail11_AnyMatcherINSt7__cxx1112regex_traitsIcEELb1ELb1ELb0EEEJcEET_St14__invoke_otherOT0_DpOT1_
FNDA:0,_ZSt13__invoke_implIbRNSt8__detail11_AnyMatcherINSt7__cxx1112regex_traitsIcEELb1ELb1ELb1EEEJcEET_St14__invoke_otherOT0_DpOT1_
FNDA:0,_ZSt13__invoke_implIbRNSt8__detail12_CharMatcherINSt7__cxx1112regex_traitsIcEELb0ELb0EEEJcEET_St14__invoke_otherOT0_DpOT1_
FNDA:0,_ZSt13__invoke_implIbRNSt8__detail12_CharMatcherINSt7__cxx1112regex_traitsIcEELb0ELb1EEEJcEET_St14__invoke_otherOT0_DpOT1_
FNDA:0,_ZSt13__invoke_implIbRNSt8__detail12_CharMatcherINSt7__cxx1112regex_traitsIcEELb1ELb0EEEJcEET_St14__invoke_otherOT0_DpOT1_
FNDA:0,_ZSt13__invoke_implIbRNSt8__detail12_CharMatcherINSt7__cxx1112regex_traitsIcEELb1ELb1EEEJcEET_St14__invoke_otherOT0_DpOT1_
FNDA:0,_ZSt13__invoke_implIbRNSt8__detail15_BracketMatcherINSt7__cxx1112regex_traitsIcEELb0ELb0EEEJcEET_St14__invoke_otherOT0_DpOT1_
FNDA:0,_ZSt13__invoke_implIbRNSt8__detail15_BracketMatcherINSt7__cxx1112regex_traitsIcEELb0ELb1EEEJcEET_St14__invoke_otherOT0_DpOT1_
FNDA:0,_ZSt13__invoke_implIbRNSt8__detail15_BracketMatcherINSt7__cxx1112regex_traitsIcEELb1ELb0EEEJcEET_St14__invoke_otherOT0_DpOT1_
FNDA:0,_ZSt13__invoke_implIbRNSt8__detail15_BracketMatcherINSt7__cxx1112regex_traitsIcEELb1ELb1EEEJcEET_St14__invoke_otherOT0_DpOT1_
FNF:32
FNH:0
DA:60,0
DA:61,0
