TN:
SF:/home/Kurbanov/lab3/cont/array.cpp
FN:104,110,_ZN7MyArray8pushBackERKNSt7__cxx1112basic_stringIcSt11char_traitsIcESaIcEEE
FN:112,128,_ZN7MyArray6insertEmRKNSt7__cxx1112basic_stringIcSt11char_traitsIcESaIcEEE
FN:13,23,_ZN7MyArrayC2Em
FN:130,140,_ZN7MyArray8removeAtEm
FN:142,148,_ZN7MyArray2atB5cxx11Em
FN:150,156,_ZNK7MyArray2atB5cxx11Em
FN:158,164,_ZN7MyArray3setEmRKNSt7__cxx1112basic_stringIcSt11char_traitsIcESaIcEEE
FN:168,171,_ZN7MyArrayixB5cxx11Em
FN:173,176,_ZNK7MyArrayixB5cxx11Em
FN:180,183,_ZNK7MyArray4sizeEv
FN:185,188,_ZNK7MyArray11getCapacityEv
FN:190,193,_ZNK7MyArray5emptyEv
FN:195,205,_ZNK7MyArray5printEv
FN:207,223,_ZN7MyArray6resizeEm
FN:227,233,_ZNK7MyArray13serializeTextERSo
FN:235,254,_ZN7MyArray15deserializeTextERSi
FN:25,31,_ZN7MyArrayD2Ev
FN:258,263,_ZNK7MyArray9serializeB5cxx11Ev
FN:265,269,_ZN7MyArray11deserializeERKNSt7__cxx1112basic_stringIcSt11char_traitsIcESaIcEEE
FN:273,290,_ZNK7MyArray15serializeBinaryERSo
FN:292,323,_ZN7MyArray17deserializeBinaryERSi
FN:35,44,_ZN7MyArrayC2ERKS_
FN:48,56,_ZN7MyArrayC2EOS_
FN:60,69,_ZN7MyArrayaSERKS_
FN:73,90,_ZN7MyArrayaSEOS_
FN:94,100,_ZN7MyArray4swapERS_
FNDA:63,_ZN7MyArray8pushBackERKNSt7__cxx1112basic_stringIcSt11char_traitsIcESaIcEEE
FNDA:4,_ZN7MyArray6insertEmRKNSt7__cxx1112basic_stringIcSt11char_traitsIcESaIcEEE
FNDA:31,_ZN7MyArrayC2Em
FNDA:5,_ZN7MyArray8removeAtEm
FNDA:40,_ZN7MyArray2atB5cxx11Em
FNDA:3,_ZNK7MyArray2atB5cxx11Em
FNDA:3,_ZN7MyArray3setEmRKNSt7__cxx1112basic_stringIcSt11char_traitsIcESaIcEEE
FNDA:27,_ZN7MyArrayixB5cxx11Em
FNDA:1,_ZNK7MyArrayixB5cxx11Em
FNDA:44,_ZNK7MyArray4sizeEv
FNDA:17,_ZNK7MyArray11getCapacityEv
FNDA:3,_ZNK7MyArray5emptyEv
FNDA:0,_ZNK7MyArray5printEv
FNDA:8,_ZN7MyArray6resizeEm
FNDA:2,_ZNK7MyArray13serializeTextERSo
FNDA:2,_ZN7MyArray15deserializeTextERSi
FNDA:34,_ZN7MyArrayD2Ev
FNDA:1,_ZNK7MyArray9serializeB5cxx11Ev
FNDA:1,_ZN7MyArray11deserializeERKNSt7__cxx1112basic_stringIcSt11char_traitsIcESaIcEEE
FNDA:1,_ZNK7MyArray15serializeBinaryERSo
FNDA:1,_ZN7MyArray17deserializeBinaryERSi
FNDA:2,_ZN7MyArrayC2ERKS_
FNDA:1,_ZN7MyArrayC2EOS_
FNDA:2,_ZN7MyArrayaSERKS_
FNDA:1,_ZN7MyArrayaSEOS_
FNDA:2,_ZN7MyArray4swapERS_
FNF:26
FNH:25
DA:13,31
DA:14,31
DA:15,31
DA:16,31
DA:18,31
DA:19,1
DA:22,238
DA:23,31
DA:25,34
DA:27,259
DA:28,34
DA:29,34
DA:30,34
DA:31,34
DA:35,2
DA:36,2
DA:37,2
DA:38,2
DA:40,18
DA:41,7
DA:42,5
DA:44,2
DA:48,1
DA:49,1
DA:50,1
DA:51,1
DA:53,1
DA:54,1
DA:55,1
DA:56,1
DA:60,2
DA:62,2
DA:63,1
DA:66,1
DA:67,1
DA:68,1
DA:69,1
DA:73,1
DA:75,1
DA:76,0
DA:79,9
DA:81,1
DA:82,1
DA:83,1
DA:85,1
DA:86,1
DA:87,1
DA:89,1
DA:94,2
DA:97,2
DA:98,2
DA:99,2
DA:100,2
DA:104,63
DA:106,63
DA:107,2
DA:109,63
DA:110,63
DA:112,4
DA:114,4
DA:115,1
DA:118,3
DA:119,3
DA:122,6
DA:123,3
DA:126,3
DA:127,3
DA:128,3
DA:130,5
DA:132,5
DA:133,2
DA:136,8
DA:137,5
DA:139,3
DA:140,3
DA:142,40
DA:144,40
DA:145,1
DA:147,39
DA:150,3
DA:152,3
DA:153,1
DA:155,2
DA:158,3
DA:160,3
DA:161,1
DA:163,2
DA:164,2
DA:168,27
DA:170,27
DA:173,1
DA:175,1
DA:180,44
DA:182,44
DA:185,17
DA:187,17
DA:190,3
DA:192,3
DA:195,0
DA:197,0
DA:198,0
DA:199,0
DA:200,0
DA:201,0
DA:204,0
DA:205,0
DA:207,8
DA:209,8
DA:210,1
DA:213,8
DA:215,36
DA:216,23
DA:217,15
DA:220,26
DA:221,8
DA:222,8
DA:223,8
DA:227,2
DA:229,2
DA:230,8
DA:231,6
DA:233,2
DA:235,2
DA:237,2
DA:238,2
DA:239,0
DA:242,2
DA:244,2
DA:245,0
DA:248,2
DA:249,8
DA:250,6
DA:251,0
DA:254,2
DA:258,1
DA:260,1
DA:261,1
DA:262,2
DA:263,1
DA:265,1
DA:267,1
DA:268,1
DA:269,1
DA:273,1
DA:275,1
DA:276,1
DA:278,5
DA:279,4
DA:280,4
DA:281,4
DA:282,4
DA:283,3
DA:287,1
DA:288,0
DA:290,1
DA:292,1
DA:294,1
DA:295,1
DA:296,1
DA:297,0
DA:300,1
DA:301,0
DA:304,1
DA:306,5
DA:307,4
DA:308,4
DA:309,4
DA:310,0
DA:313,4
DA:314,4
DA:315,4
DA:316,3
DA:317,3
DA:318,0
DA:321,4
DA:322,4
DA:323,1
LF:177
LH:160
end_of_record
TN:
SF:/home/Kurbanov/lab3/cont/avltree.cpp
FN:13,17,_ZN7AvlTreeC2Ev
FN:139,146,_ZN7AvlTree6insertERKNSt7__cxx1112basic_stringIcSt11char_traitsIcESaIcEEE
FN:150,223,_ZN7AvlTree10removeNodeEPNS_4NodeERKNSt7__cxx1112basic_stringIcSt11char_traitsIcESaIcEEERb
FN:19,24,_ZN7AvlTreeD2Ev
FN:226,233,_ZN7AvlTree6removeERKNSt7__cxx1112basic_stringIcSt11char_traitsIcESaIcEEE
FN:238,250,_ZN7AvlTree12containsNodeEPNS_4NodeERKNSt7__cxx1112basic_stringIcSt11char_traitsIcESaIcEEE
FN:252,255,_ZNK7AvlTree8containsERKNSt7__cxx1112basic_stringIcSt11char_traitsIcESaIcEEE
FN:259,271,_ZN7AvlTree8printRecEPNS_4NodeEi
FN:273,276,_ZNK7AvlTree5printEv
FN:28,36,_ZN7AvlTree12clearSubtreeEPNS_4NodeE
FN:280,283,_ZNK7AvlTree4sizeEv
FN:285,288,_ZNK7AvlTree5emptyEv
FN:292,302,_ZN7AvlTree12serializeRecERNSt7__cxx1119basic_ostringstreamIcSt11char_traitsIcESaIcEEEPNS_4NodeE
FN:304,309,_ZNK7AvlTree9serializeB5cxx11Ev
FN:311,327,_ZN7AvlTree14deserializeRecERNSt7__cxx1119basic_istringstreamIcSt11char_traitsIcESaIcEEE
FN:329,356,_ZN7AvlTree11deserializeERKNSt7__cxx1112basic_stringIcSt11char_traitsIcESaIcEEE
FN:360,376,_ZN7AvlTree18serializeBinaryRecERSoPNS_4NodeE
FN:378,384,_ZNK7AvlTree15serializeBinaryERSo
FN:38,49,_ZN7AvlTree12cloneSubtreeEPNS_4NodeE
FN:386,418,_ZN7AvlTree20deserializeBinaryRecERSi
FN:420,446,_ZN7AvlTree17deserializeBinaryERSi
FN:450,455,_ZN7AvlTreeC2ERKS_
FN:457,463,_ZN7AvlTreeC2EOS_
FN:465,474,_ZN7AvlTreeaSERKS_
FN:476,490,_ZN7AvlTreeaSEOS_
FN:494,499,_ZN7AvlTree4swapERS_
FN:53,56,_ZN7AvlTree8heightOfEPNS_4NodeE
FN:58,61,_ZN7AvlTree13balanceFactorEPNS_4NodeE
FN:65,77,_ZN7AvlTree11rotateRightEPNS_4NodeE
FN:79,91,_ZN7AvlTree10rotateLeftEPNS_4NodeE
FN:95,137,_ZN7AvlTree10insertNodeEPNS_4NodeERKNSt7__cxx1112basic_stringIcSt11char_traitsIcESaIcEEERb
FNDA:25,_ZN7AvlTreeC2Ev
FNDA:60,_ZN7AvlTree6insertERKNSt7__cxx1112basic_stringIcSt11char_traitsIcESaIcEEE
FNDA:9,_ZN7AvlTree10removeNodeEPNS_4NodeERKNSt7__cxx1112basic_stringIcSt11char_traitsIcESaIcEEERb
FNDA:28,_ZN7AvlTreeD2Ev
FNDA:3,_ZN7AvlTree6removeERKNSt7__cxx1112basic_stringIcSt11char_traitsIcESaIcEEE
FNDA:97,_ZN7AvlTree12containsNodeEPNS_4NodeERKNSt7__cxx1112basic_stringIcSt11char_traitsIcESaIcEEE
FNDA:50,_ZNK7AvlTree8containsERKNSt7__cxx1112basic_stringIcSt11char_traitsIcESaIcEEE
FNDA:8,_ZN7AvlTree8printRecEPNS_4NodeEi
FNDA:2,_ZNK7AvlTree5printEv
FNDA:180,_ZN7AvlTree12clearSubtreeEPNS_4NodeE
FNDA:37,_ZNK7AvlTree4sizeEv
FNDA:4,_ZNK7AvlTree5emptyEv
FNDA:14,_ZN7AvlTree12serializeRecERNSt7__cxx1119basic_ostringstreamIcSt11char_traitsIcESaIcEEEPNS_4NodeE
FNDA:2,_ZNK7AvlTree9serializeB5cxx11Ev
FNDA:15,_ZN7AvlTree14deserializeRecERNSt7__cxx1119basic_istringstreamIcSt11char_traitsIcESaIcEEE
FNDA:3,_ZN7AvlTree11deserializeERKNSt7__cxx1112basic_stringIcSt11char_traitsIcESaIcEEE
FNDA:16,_ZN7AvlTree18serializeBinaryRecERSoPNS_4NodeE
FNDA:2,_ZNK7AvlTree15serializeBinaryERSo
FNDA:12,_ZN7AvlTree12cloneSubtreeEPNS_4NodeE
FNDA:12,_ZN7AvlTree20deserializeBinaryRecERSi
FNDA:2,_ZN7AvlTree17deserializeBinaryERSi
FNDA:2,_ZN7AvlTreeC2ERKS_
FNDA:1,_ZN7AvlTreeC2EOS_
FNDA:2,_ZN7AvlTreeaSERKS_
FNDA:1,_ZN7AvlTreeaSEOS_
FNDA:2,_ZN7AvlTree4swapERS_
FNDA:274,_ZN7AvlTree8heightOfEPNS_4NodeE
FNDA:57,_ZN7AvlTree13balanceFactorEPNS_4NodeE
FNDA:2,_ZN7AvlTree11rotateRightEPNS_4NodeE
FNDA:4,_ZN7AvlTree10rotateLeftEPNS_4NodeE
FNDA:110,_ZN7AvlTree10insertNodeEPNS_4NodeERKNSt7__cxx1112basic_stringIcSt11char_traitsIcESaIcEEERb
FNF:31
FNH:31
DA:13,25
DA:14,25
DA:15,25
DA:17,25
DA:19,28
DA:21,28
DA:22,28
DA:23,28
DA:24,28
DA:28,180
DA:30,180
DA:31,107
DA:33,73
DA:34,73
DA:35,73
DA:38,12
DA:40,12
DA:41,7
DA:44,5
DA:45,5
DA:46,5
DA:47,5
DA:48,5
DA:53,274
DA:55,274
DA:58,57
DA:60,57
DA:65,2
DA:67,2
DA:68,2
DA:70,2
DA:71,2
DA:73,2
DA:74,2
DA:76,2
DA:79,4
DA:81,4
DA:82,4
DA:84,4
DA:85,4
DA:87,4
DA:88,4
DA:90,4
DA:95,110
DA:97,110
DA:98,59
DA:99,59
DA:102,51
DA:103,13
DA:104,38
DA:105,37
DA:107,1
DA:108,1
DA:111,50
DA:112,50
DA:115,50
DA:116,1
DA:120,49
DA:121,3
DA:125,46
DA:126,1
DA:127,1
DA:131,45
DA:132,0
DA:133,0
DA:136,45
DA:139,60
DA:141,60
DA:142,60
DA:143,60
DA:144,59
DA:146,60
DA:150,9
DA:152,9
DA:153,1
DA:156,8
DA:157,0
DA:158,8
DA:159,5
DA:162,3
DA:165,3
DA:166,2
DA:168,2
DA:170,1
DA:171,1
DA:175,1
DA:176,1
DA:177,1
DA:178,1
DA:180,1
DA:181,1
DA:182,0
DA:185,1
DA:187,1
DA:192,7
DA:193,0
DA:197,7
DA:198,7
DA:201,7
DA:202,0
DA:206,7
DA:207,0
DA:208,0
DA:212,7
DA:213,0
DA:217,7
DA:218,0
DA:219,0
DA:222,7
DA:226,3
DA:228,3
DA:229,3
DA:230,3
DA:231,2
DA:233,3
DA:238,97
DA:240,97
DA:241,9
DA:243,88
DA:244,41
DA:246,47
DA:247,12
DA:249,35
DA:252,50
DA:254,50
DA:259,8
DA:261,8
DA:262,5
DA:265,3
DA:266,5
DA:267,2
DA:269,3
DA:270,3
DA:273,2
DA:275,2
DA:276,2
DA:280,37
DA:282,37
DA:285,4
DA:287,4
DA:292,14
DA:294,14
DA:295,8
DA:296,8
DA:299,6
DA:300,6
DA:301,6
DA:304,2
DA:306,2
DA:307,2
DA:308,4
DA:309,2
DA:311,15
DA:313,15
DA:314,15
DA:315,1
DA:318,14
DA:319,8
DA:322,6
DA:323,6
DA:324,6
DA:325,6
DA:326,6
DA:327,15
DA:329,3
DA:331,3
DA:332,3
DA:333,3
DA:335,3
DA:336,3
DA:339,3
DA:340,3
DA:341,3
DA:342,2
DA:344,9
DA:345,6
DA:346,6
DA:347,6
DA:348,6
DA:349,1
DA:351,6
DA:352,3
DA:355,3
DA:356,3
DA:360,16
DA:362,16
DA:363,16
DA:364,16
DA:365,9
DA:368,7
DA:369,7
DA:370,7
DA:371,7
DA:374,7
DA:375,7
DA:378,2
DA:380,2
DA:381,2
DA:382,1
DA:384,1
DA:386,12
DA:388,12
DA:389,12
DA:390,12
DA:391,1
DA:394,11
DA:395,6
DA:398,5
DA:399,5
DA:400,5
DA:401,0
DA:404,5
DA:405,5
DA:406,5
DA:407,5
DA:408,5
DA:409,0
DA:413,5
DA:414,5
DA:415,5
DA:416,5
DA:417,5
DA:418,5
DA:420,2
DA:422,2
DA:423,2
DA:424,2
DA:426,2
DA:429,1
DA:430,1
DA:431,1
DA:432,1
DA:434,6
DA:435,5
DA:436,5
DA:437,5
DA:438,5
DA:439,1
DA:441,5
DA:442,3
DA:445,1
DA:446,1
DA:450,2
DA:451,2
DA:452,2
DA:455,2
DA:457,1
DA:458,1
DA:459,1
DA:461,1
DA:462,1
DA:463,1
DA:465,2
DA:467,2
DA:468,1
DA:471,1
DA:472,1
DA:473,1
DA:474,1
DA:476,1
DA:478,1
DA:479,0
DA:482,1
DA:483,1
DA:484,1
DA:486,1
DA:487,1
DA:489,1
DA:494,2
DA:497,2
DA:498,2
DA:499,2
LF:272
LH:258
end_of_record
TN:
SF:/home/Kurbanov/lab3/cont/avltree.h
FN:49,54,_ZN7AvlTree4NodeC2ERKNSt7__cxx1112basic_stringIcSt11char_traitsIcESaIcEEE
FNDA:75,_ZN7AvlTree4NodeC2ERKNSt7__cxx1112basic_stringIcSt11char_traitsIcESaIcEEE
FNF:1
FNH:1
DA:49,75
DA:50,75
DA:51,75
DA:52,75
DA:53,75
DA:54,75
LF:6
LH:6
end_of_record
TN:
SF:/home/Kurbanov/lab3/cont/forward_list.cpp
FN:10,10,_ZN11ForwardListC2Ev
FN:108,120,_ZN11ForwardList11insertAfterERKNSt7__cxx1112basic_stringIcSt11char_traitsIcESaIcEEES7_
FN:12,15,_ZN11ForwardListD2Ev
FN:122,144,_ZN11ForwardList12insertBeforeERKNSt7__cxx1112basic_stringIcSt11char_traitsIcESaIcEEES7_
FN:146,158,_ZN11ForwardList11removeAfterERKNSt7__cxx1112basic_stringIcSt11char_traitsIcESaIcEEE
FN:160,184,_ZN11ForwardList12removeBeforeERKNSt7__cxx1112basic_stringIcSt11char_traitsIcESaIcEEE
FN:17,24,_ZN11ForwardList5clearEv
FN:186,198,_ZNK11ForwardList5printEv
FN:202,209,_ZNK11ForwardList13serializeTextERSo
FN:211,221,_ZN11ForwardList15deserializeTextERSi
FN:223,228,_ZNK11ForwardList9serializeB5cxx11Ev
FN:230,234,_ZN11ForwardList11deserializeERKNSt7__cxx1112basic_stringIcSt11char_traitsIcESaIcEEE
FN:238,264,_ZNK11ForwardList15serializeBinaryERSo
FN:26,31,_ZN11ForwardList9pushFrontERKNSt7__cxx1112basic_stringIcSt11char_traitsIcESaIcEEE
FN:266,297,_ZN11ForwardList17deserializeBinaryERSi
FN:33,46,_ZN11ForwardList8pushBackERKNSt7__cxx1112basic_stringIcSt11char_traitsIcESaIcEEE
FN:48,56,_ZN11ForwardList8popFrontEv
FN:58,75,_ZN11ForwardList7popBackEv
FN:77,94,_ZN11ForwardList13removeByValueERKNSt7__cxx1112basic_stringIcSt11char_traitsIcESaIcEEE
FN:96,106,_ZNK11ForwardList8findNodeERKNSt7__cxx1112basic_stringIcSt11char_traitsIcESaIcEEE
FNDA:33,_ZN11ForwardListC2Ev
FNDA:3,_ZN11ForwardList11insertAfterERKNSt7__cxx1112basic_stringIcSt11char_traitsIcESaIcEEES7_
FNDA:33,_ZN11ForwardListD2Ev
FNDA:4,_ZN11ForwardList12insertBeforeERKNSt7__cxx1112basic_stringIcSt11char_traitsIcESaIcEEES7_
FNDA:3,_ZN11ForwardList11removeAfterERKNSt7__cxx1112basic_stringIcSt11char_traitsIcESaIcEEE
FNDA:5,_ZN11ForwardList12removeBeforeERKNSt7__cxx1112basic_stringIcSt11char_traitsIcESaIcEEE
FNDA:41,_ZN11ForwardList5clearEv
FNDA:1,_ZNK11ForwardList5printEv
FNDA:1,_ZNK11ForwardList13serializeTextERSo
FNDA:5,_ZN11ForwardList15deserializeTextERSi
FNDA:1,_ZNK11ForwardList9serializeB5cxx11Ev
FNDA:3,_ZN11ForwardList11deserializeERKNSt7__cxx1112basic_stringIcSt11char_traitsIcESaIcEEE
FNDA:3,_ZNK11ForwardList15serializeBinaryERSo
FNDA:3,_ZN11ForwardList9pushFrontERKNSt7__cxx1112basic_stringIcSt11char_traitsIcESaIcEEE
FNDA:3,_ZN11ForwardList17deserializeBinaryERSi
FNDA:82,_ZN11ForwardList8pushBackERKNSt7__cxx1112basic_stringIcSt11char_traitsIcESaIcEEE
FNDA:3,_ZN11ForwardList8popFrontEv
FNDA:2,_ZN11ForwardList7popBackEv
FNDA:2,_ZN11ForwardList13removeByValueERKNSt7__cxx1112basic_stringIcSt11char_traitsIcESaIcEEE
FNDA:73,_ZNK11ForwardList8findNodeERKNSt7__cxx1112basic_stringIcSt11char_traitsIcESaIcEEE
FNF:20
FNH:20
DA:10,33
DA:12,33
DA:14,33
DA:15,33
DA:17,41
DA:19,159
DA:20,77
DA:21,77
DA:22,77
DA:24,41
DA:26,3
DA:28,3
DA:29,3
DA:30,3
DA:31,3
DA:33,82
DA:35,82
DA:36,82
DA:37,28
DA:38,28
DA:41,54
DA:42,106
DA:43,52
DA:45,54
DA:48,3
DA:50,3
DA:51,0
DA:53,3
DA:54,3
DA:55,3
DA:58,2
DA:60,2
DA:61,0
DA:63,2
DA:64,0
DA:65,0
DA:66,0
DA:69,2
DA:70,3
DA:71,1
DA:73,2
DA:74,2
DA:77,2
DA:80,2
DA:81,0
DA:84,2
DA:85,14
DA:86,12
DA:87,4
DA:88,4
DA:89,4
DA:91,8
DA:94,2
DA:96,73
DA:98,73
DA:99,150
DA:100,132
DA:101,55
DA:103,77
DA:105,18
DA:108,3
DA:110,3
DA:111,7
DA:112,6
DA:113,2
DA:114,2
DA:115,2
DA:116,2
DA:118,4
DA:122,4
DA:124,4
DA:125,1
DA:127,3
DA:128,1
DA:129,1
DA:132,2
DA:133,2
DA:134,2
DA:135,1
DA:136,1
DA:137,1
DA:138,1
DA:139,1
DA:141,0
DA:142,0
DA:146,3
DA:148,3
DA:149,7
DA:150,5
DA:151,1
DA:152,1
DA:153,1
DA:154,1
DA:156,4
DA:160,5
DA:162,5
DA:163,2
DA:165,3
DA:166,1
DA:167,1
DA:170,2
DA:171,2
DA:172,2
DA:173,3
DA:174,2
DA:175,1
DA:176,1
DA:177,1
DA:178,1
DA:180,1
DA:181,1
DA:182,1
DA:186,1
DA:188,1
DA:189,1
DA:190,4
DA:191,3
DA:192,3
DA:193,2
DA:195,3
DA:197,1
DA:198,1
DA:202,1
DA:204,1
DA:205,4
DA:206,3
DA:207,3
DA:209,1
DA:211,5
DA:213,5
DA:215,5
DA:216,18
DA:217,8
DA:218,5
DA:221,5
DA:223,1
DA:225,1
DA:226,1
DA:227,2
DA:228,1
DA:230,3
DA:232,3
DA:233,3
DA:234,3
DA:238,3
DA:241,3
DA:242,3
DA:243,9
DA:244,6
DA:245,6
DA:248,3
DA:250,3
DA:251,9
DA:253,6
DA:254,6
DA:255,6
DA:256,5
DA:258,6
DA:261,3
DA:262,1
DA:264,2
DA:266,3
DA:268,3
DA:270,3
DA:271,3
DA:272,3
DA:274,1
DA:277,6
DA:278,4
DA:279,4
DA:280,4
DA:282,0
DA:285,4
DA:286,4
DA:287,4
DA:288,3
DA:290,3
DA:292,0
DA:295,4
DA:296,4
DA:297,2
LF:181
LH:171
end_of_record
TN:
SF:/home/Kurbanov/lab3/cont/forward_list.h
FN:12,15,_ZN5FNodeC2ENSt7__cxx1112basic_stringIcSt11char_traitsIcESaIcEEE
FN:17,20,_ZNK5FNode8getValueB5cxx11Ev
FN:22,25,_ZNK5FNode7getNextEv
FNDA:88,_ZN5FNodeC2ENSt7__cxx1112basic_stringIcSt11char_traitsIcESaIcEEE
FNDA:2,_ZNK5FNode8getValueB5cxx11Ev
FNDA:12,_ZNK5FNode7getNextEv
FNF:3
FNH:3
DA:12,88
DA:13,88
DA:15,88
DA:17,2
DA:19,2
DA:22,12
DA:24,12
LF:7
LH:7
end_of_record
TN:
SF:/home/Kurbanov/lab3/cont/hashtable.cpp
FN:129,145,_ZN9HashTableC2ERKS_
FN:147,155,_ZN9HashTableC2EOS_
FN:15,23,_ZN12_GLOBAL__N_17rawHashERKNSt7__cxx1112basic_stringIcSt11char_traitsIcESaIcEEE
FN:157,183,_ZN9HashTableaSERKS_
FN:185,203,_ZN9HashTableaSEOS_
FN:207,232,_ZN9HashTable6insertERKNSt7__cxx1112basic_stringIcSt11char_traitsIcESaIcEEES7_
FN:234,258,_ZN9HashTable5eraseERKNSt7__cxx1112basic_stringIcSt11char_traitsIcESaIcEEE
FN:260,276,_ZN9HashTable4findERKNSt7__cxx1112basic_stringIcSt11char_traitsIcESaIcEEE
FN:278,294,_ZNK9HashTable4findERKNSt7__cxx1112basic_stringIcSt11char_traitsIcESaIcEEE
FN:296,307,_ZN9HashTableixERKNSt7__cxx1112basic_stringIcSt11char_traitsIcESaIcEEE
FN:30,37,_ZN9HashTableC2Ev
FN:309,312,_ZNK9HashTable4sizeEv
FN:314,317,_ZNK9HashTable5emptyEv
FN:319,322,_ZNK9HashTable11bucketCountEv
FN:324,341,_ZNK9HashTable5printEv
FN:345,355,_ZNK9HashTable13serializeTextERSo
FN:357,362,_ZNK9HashTable9serializeB5cxx11Ev
FN:364,401,_ZN9HashTable15deserializeTextERSi
FN:39,46,_ZN9HashTableC2Em
FN:403,407,_ZN9HashTable11deserializeERKNSt7__cxx1112basic_stringIcSt11char_traitsIcESaIcEEE
FN:411,446,_ZNK9HashTable15serializeBinaryERSo
FN:448,493,_ZN9HashTable17deserializeBinaryERSi
FN:48,55,_ZN9HashTableD2Ev
FN:499,503,_ZN13HashTableOpenC2Ev
FN:505,509,_ZN13HashTableOpenC2Em
FN:511,517,_ZN13HashTableOpenD2Ev
FN:519,525,_ZNK13HashTableOpen10hashStringERKNSt7__cxx1112basic_stringIcSt11char_traitsIcESaIcEEE
FN:527,535,_ZN13HashTableOpenC2ERKS_
FN:537,545,_ZN13HashTableOpenC2EOS_
FN:547,564,_ZN13HashTableOpenaSERKS_
FN:566,583,_ZN13HashTableOpenaSEOS_
FN:57,72,_ZN9HashTable11freeBucketsEv
FN:585,598,_ZNK13HashTableOpen17findSlotForInsertERKNSt7__cxx1112basic_stringIcSt11char_traitsIcESaIcEEE
FN:600,615,_ZNK13HashTableOpen14findSlotForKeyERKNSt7__cxx1112basic_stringIcSt11char_traitsIcESaIcEEE
FN:617,637,_ZN13HashTableOpen6rehashEm
FN:639,662,_ZN13HashTableOpen6insertERKNSt7__cxx1112basic_stringIcSt11char_traitsIcESaIcEEES7_
FN:664,673,_ZN13HashTableOpen5eraseERKNSt7__cxx1112basic_stringIcSt11char_traitsIcESaIcEEE
FN:675,682,_ZN13HashTableOpen4findERKNSt7__cxx1112basic_stringIcSt11char_traitsIcESaIcEEE
FN:684,691,_ZNK13HashTableOpen4findERKNSt7__cxx1112basic_stringIcSt11char_traitsIcESaIcEEE
FN:693,702,_ZN13HashTableOpenixERKNSt7__cxx1112basic_stringIcSt11char_traitsIcESaIcEEE
FN:704,707,_ZNK13HashTableOpen4sizeEv
FN:709,712,_ZNK13HashTableOpen5emptyEv
FN:714,717,_ZNK13HashTableOpen8capacityEv
FN:719,728,_ZN13HashTableOpen5clearEv
FN:730,746,_ZNK13HashTableOpen5printEv
FN:74,77,_ZN9HashTable5clearEv
FN:750,759,_ZNK13HashTableOpen13serializeTextERSo
FN:761,766,_ZNK13HashTableOpen9serializeB5cxx11Ev
FN:768,791,_ZN13HashTableOpen15deserializeTextERSi
FN:79,85,_ZNK9HashTable10hashStringERKNSt7__cxx1112basic_stringIcSt11char_traitsIcESaIcEEE
FN:793,797,_ZN13HashTableOpen11deserializeERKNSt7__cxx1112basic_stringIcSt11char_traitsIcESaIcEEE
FN:801,831,_ZNK13HashTableOpen15serializeBinaryERSo
FN:833,878,_ZN13HashTableOpen17deserializeBinaryERSi
FN:87,125,_ZN9HashTable6rehashEm
FNDA:1,_ZN9HashTableC2ERKS_
FNDA:1,_ZN9HashTableC2EOS_
FNDA:159,_ZN12_GLOBAL__N_17rawHashERKNSt7__cxx1112basic_stringIcSt11char_traitsIcESaIcEEE
FNDA:2,_ZN9HashTableaSERKS_
FNDA:1,_ZN9HashTableaSEOS_
FNDA:39,_ZN9HashTable6insertERKNSt7__cxx1112basic_stringIcSt11char_traitsIcESaIcEEES7_
FNDA:2,_ZN9HashTable5eraseERKNSt7__cxx1112basic_stringIcSt11char_traitsIcESaIcEEE
FNDA:34,_ZN9HashTable4findERKNSt7__cxx1112basic_stringIcSt11char_traitsIcESaIcEEE
FNDA:3,_ZNK9HashTable4findERKNSt7__cxx1112basic_stringIcSt11char_traitsIcESaIcEEE
FNDA:2,_ZN9HashTableixERKNSt7__cxx1112basic_stringIcSt11char_traitsIcESaIcEEE
FNDA:19,_ZN9HashTableC2Ev
FNDA:25,_ZNK9HashTable4sizeEv
FNDA:5,_ZNK9HashTable5emptyEv
FNDA:11,_ZNK9HashTable11bucketCountEv
FNDA:1,_ZNK9HashTable5printEv
FNDA:1,_ZNK9HashTable13serializeTextERSo
FNDA:1,_ZNK9HashTable9serializeB5cxx11Ev
FNDA:4,_ZN9HashTable15deserializeTextERSi
FNDA:3,_ZN9HashTableC2Em
FNDA:1,_ZN9HashTable11deserializeERKNSt7__cxx1112basic_stringIcSt11char_traitsIcESaIcEEE
FNDA:2,_ZNK9HashTable15serializeBinaryERSo
FNDA:2,_ZN9HashTable17deserializeBinaryERSi
FNDA:24,_ZN9HashTableD2Ev
FNDA:21,_ZN13HashTableOpenC2Ev
FNDA:3,_ZN13HashTableOpenC2Em
FNDA:26,_ZN13HashTableOpenD2Ev
FNDA:77,_ZNK13HashTableOpen10hashStringERKNSt7__cxx1112basic_stringIcSt11char_traitsIcESaIcEEE
FNDA:1,_ZN13HashTableOpenC2ERKS_
FNDA:1,_ZN13HashTableOpenC2EOS_
FNDA:2,_ZN13HashTableOpenaSERKS_
FNDA:1,_ZN13HashTableOpenaSEOS_
FNDA:34,_ZN9HashTable11freeBucketsEv
FNDA:39,_ZNK13HashTableOpen17findSlotForInsertERKNSt7__cxx1112basic_stringIcSt11char_traitsIcESaIcEEE
FNDA:38,_ZNK13HashTableOpen14findSlotForKeyERKNSt7__cxx1112basic_stringIcSt11char_traitsIcESaIcEEE
FNDA:1,_ZN13HashTableOpen6rehashEm
FNDA:39,_ZN13HashTableOpen6insertERKNSt7__cxx1112basic_stringIcSt11char_traitsIcESaIcEEES7_
FNDA:3,_ZN13HashTableOpen5eraseERKNSt7__cxx1112basic_stringIcSt11char_traitsIcESaIcEEE
FNDA:33,_ZN13HashTableOpen4findERKNSt7__cxx1112basic_stringIcSt11char_traitsIcESaIcEEE
FNDA:2,_ZNK13HashTableOpen4findERKNSt7__cxx1112basic_stringIcSt11char_traitsIcESaIcEEE
FNDA:2,_ZN13HashTableOpenixERKNSt7__cxx1112basic_stringIcSt11char_traitsIcESaIcEEE
FNDA:25,_ZNK13HashTableOpen4sizeEv
FNDA:4,_ZNK13HashTableOpen5emptyEv
FNDA:13,_ZNK13HashTableOpen8capacityEv
FNDA:9,_ZN13HashTableOpen5clearEv
FNDA:1,_ZNK13HashTableOpen5printEv
FNDA:34,_ZN9HashTable5clearEv
FNDA:1,_ZNK13HashTableOpen13serializeTextERSo
FNDA:1,_ZNK13HashTableOpen9serializeB5cxx11Ev
FNDA:4,_ZN13HashTableOpen15deserializeTextERSi
FNDA:82,_ZNK9HashTable10hashStringERKNSt7__cxx1112basic_stringIcSt11char_traitsIcESaIcEEE
FNDA:1,_ZN13HashTableOpen11deserializeERKNSt7__cxx1112basic_stringIcSt11char_traitsIcESaIcEEE
FNDA:3,_ZNK13HashTableOpen15serializeBinaryERSo
FNDA:3,_ZN13HashTableOpen17deserializeBinaryERSi
FNDA:1,_ZN9HashTable6rehashEm
FNF:54
FNH:54
DA:15,159
DA:17,159
DA:18,565
DA:19,406
DA:20,406
DA:22,159
DA:30,19
DA:31,19
DA:33,19
DA:34,171
DA:35,152
DA:37,19
DA:39,3
DA:40,3
DA:42,3
DA:43,22
DA:44,19
DA:46,3
DA:48,24
DA:50,24
DA:51,24
DA:52,24
DA:53,24
DA:54,24
DA:55,24
DA:57,34
DA:59,34
DA:60,2
DA:62,285
DA:63,253
DA:64,293
DA:65,40
DA:66,40
DA:67,40
DA:69,253
DA:71,32
DA:74,34
DA:76,34
DA:77,34
DA:79,82
DA:81,82
DA:82,0
DA:84,82
DA:87,1
DA:89,1
DA:90,0
DA:93,1
DA:94,1
DA:96,1
DA:97,5
DA:98,4
DA:100,1
DA:101,1
DA:104,3
DA:105,2
DA:106,4
DA:107,2
DA:109,2
DA:110,2
DA:112,2
DA:115,2
DA:116,2
DA:117,2
DA:119,2
DA:120,2
DA:124,1
DA:125,1
DA:129,1
DA:130,1
DA:132,1
DA:133,9
DA:134,8
DA:137,9
DA:138,8
DA:140,11
DA:141,3
DA:142,3
DA:145,1
DA:147,1
DA:148,1
DA:149,1
DA:150,1
DA:152,1
DA:153,1
DA:154,1
DA:155,1
DA:157,2
DA:159,2
DA:160,1
DA:163,1
DA:164,1
DA:166,1
DA:167,1
DA:169,1
DA:170,9
DA:171,8
DA:174,9
DA:175,8
DA:176,10
DA:177,2
DA:178,2
DA:182,1
DA:185,1
DA:187,1
DA:188,0
DA:191,1
DA:192,1
DA:194,1
DA:195,1
DA:196,1
DA:198,1
DA:199,1
DA:200,1
DA:202,1
DA:207,39
DA:209,39
DA:210,0
DA:213,39
DA:214,39
DA:216,42
DA:217,4
DA:218,1
DA:219,1
DA:221,3
DA:224,38
DA:225,38
DA:226,38
DA:229,38
DA:230,1
DA:234,2
DA:236,2
DA:237,0
DA:240,2
DA:241,2
DA:242,2
DA:244,2
DA:245,1
DA:246,1
DA:247,1
DA:249,0
DA:251,1
DA:252,1
DA:253,1
DA:255,0
DA:256,0
DA:260,34
DA:262,34
DA:263,1
DA:266,33
DA:267,33
DA:269,37
DA:270,29
DA:271,25
DA:273,4
DA:275,8
DA:278,3
DA:280,3
DA:281,0
DA:284,3
DA:285,3
DA:287,4
DA:288,3
DA:289,2
DA:291,1
DA:293,1
DA:296,2
DA:298,2
DA:299,2
DA:300,1
DA:303,1
DA:304,1
DA:306,1
DA:309,25
DA:311,25
DA:314,5
DA:316,5
DA:319,11
DA:321,11
DA:324,1
DA:326,1
DA:327,1
DA:328,9
DA:329,8
DA:330,8
DA:331,8
DA:332,0
DA:333,0
DA:334,0
DA:335,0
DA:337,0
DA:339,8
DA:341,1
DA:345,1
DA:347,1
DA:348,9
DA:349,8
DA:350,11
DA:351,3
DA:352,3
DA:355,1
DA:357,1
DA:359,1
DA:360,1
DA:361,2
DA:362,1
DA:364,4
DA:366,4
DA:368,4
DA:369,4
DA:371,1
DA:372,1
DA:374,3
DA:376,6
DA:377,5
DA:378,5
DA:380,5
DA:381,1
DA:383,4
DA:384,1
DA:387,3
DA:389,3
DA:390,3
DA:391,3
DA:393,0
DA:394,0
DA:395,0
DA:397,0
DA:399,3
DA:400,7
DA:403,1
DA:405,1
DA:406,1
DA:407,1
DA:411,2
DA:413,2
DA:414,2
DA:416,18
DA:417,16
DA:418,20
DA:419,4
DA:420,4
DA:423,4
DA:425,4
DA:427,4
DA:428,4
DA:429,4
DA:433,4
DA:434,4
DA:435,3
DA:439,4
DA:443,2
DA:444,1
DA:446,1
DA:448,2
DA:450,2
DA:452,2
DA:453,2
DA:454,2
DA:455,1
DA:458,4
DA:459,3
DA:460,3
DA:461,3
DA:462,0
DA:465,3
DA:466,3
DA:467,3
DA:468,3
DA:470,3
DA:471,0
DA:475,3
DA:476,3
DA:477,3
DA:478,0
DA:481,3
DA:482,3
DA:483,3
DA:484,2
DA:486,2
DA:487,0
DA:491,3
DA:492,3
DA:493,1
DA:499,21
DA:500,21
DA:502,189
DA:503,21
DA:505,3
DA:506,3
DA:508,22
DA:509,3
DA:511,26
DA:513,215
DA:514,26
DA:515,26
DA:516,26
DA:517,26
DA:519,77
DA:521,77
DA:522,0
DA:524,77
DA:527,1
DA:528,1
DA:529,1
DA:531,9
DA:532,9
DA:533,8
DA:535,1
DA:537,1
DA:538,1
DA:539,1
DA:540,1
DA:542,1
DA:543,1
DA:544,1
DA:545,1
DA:547,2
DA:549,2
DA:550,1
DA:553,9
DA:555,1
DA:556,1
DA:558,9
DA:559,9
DA:560,8
DA:563,1
DA:566,1
DA:568,1
DA:569,0
DA:572,9
DA:574,1
DA:575,1
DA:576,1
DA:578,1
DA:579,1
DA:580,1
DA:582,1
DA:585,39
DA:587,39
DA:588,39
DA:590,43
DA:591,46
DA:592,3
DA:593,3
DA:594,0
DA:597,39
DA:600,38
DA:602,38
DA:603,38
DA:605,48
DA:606,38
DA:607,28
DA:609,10
DA:610,10
DA:611,0
DA:614,10
DA:617,1
DA:619,1
DA:620,0
DA:623,1
DA:624,1
DA:626,5
DA:627,1
DA:628,1
DA:630,3
DA:631,2
DA:632,1
DA:636,4
DA:637,1
DA:639,39
DA:641,39
DA:642,0
DA:645,39
DA:646,1
DA:649,39
DA:650,39
DA:652,39
DA:653,1
DA:654,1
DA:657,38
DA:658,38
DA:659,38
DA:660,38
DA:661,38
DA:664,3
DA:666,3
DA:667,3
DA:668,1
DA:670,2
DA:671,2
DA:672,2
DA:675,33
DA:677,33
DA:678,33
DA:679,8
DA:681,25
DA:684,2
DA:686,2
DA:687,2
DA:688,1
DA:690,1
DA:693,2
DA:695,2
DA:696,2
DA:697,1
DA:699,1
DA:700,1
DA:701,1
DA:704,25
DA:706,25
DA:709,4
DA:711,4
DA:714,13
DA:716,13
DA:719,9
DA:721,81
DA:722,72
DA:723,72
DA:724,72
DA:725,72
DA:727,9
DA:728,9
DA:730,1
DA:732,1
DA:733,1
DA:734,9
DA:735,8
DA:736,8
DA:737,8
DA:738,8
DA:739,0
DA:740,0
DA:742,0
DA:744,8
DA:746,1
DA:750,1
DA:752,1
DA:753,9
DA:754,8
DA:755,8
DA:756,3
DA:759,1
DA:761,1
DA:763,1
DA:764,1
DA:765,2
DA:766,1
DA:768,4
DA:770,4
DA:772,4
DA:773,4
DA:774,1
DA:775,1
DA:777,3
DA:779,6
DA:780,5
DA:781,5
DA:783,5
DA:784,1
DA:786,4
DA:787,1
DA:789,3
DA:790,7
DA:793,1
DA:795,1
DA:796,1
DA:797,1
DA:801,3
DA:803,3
DA:804,3
DA:806,27
DA:807,24
DA:808,24
DA:810,5
DA:812,5
DA:814,5
DA:815,5
DA:816,5
DA:820,5
DA:821,5
DA:822,4
DA:828,3
DA:829,1
DA:831,2
DA:833,3
DA:835,3
DA:837,3
DA:838,3
DA:839,3
DA:840,1
DA:843,6
DA:844,4
DA:845,4
DA:846,4
DA:847,0
DA:850,4
DA:851,4
DA:852,4
DA:853,4
DA:855,4
DA:856,0
DA:860,4
DA:861,4
DA:862,4
DA:863,0
DA:866,4
DA:867,4
DA:868,4
DA:869,3
DA:871,3
DA:872,0
DA:876,4
DA:877,4
DA:878,2
LF:514
LH:479
end_of_record
TN:
SF:/home/Kurbanov/lab3/cont/hashtable.h
FN:19,26,_ZN9HashTable4NodeC2ENSt7__cxx1112basic_stringIcSt11char_traitsIcESaIcEEES6_PS0_
FN:28,31,_ZNK9HashTable4Node6getKeyB5cxx11Ev
FN:33,36,_ZNK9HashTable4Node8getValueB5cxx11Ev
FN:38,41,_ZN9HashTable4Node11getValueRefB5cxx11Ev
FN:43,46,_ZNK9HashTable4Node7getNextEv
FN:48,51,_ZN9HashTable4Node10getNextRefEv
FNDA:41,_ZN9HashTable4NodeC2ENSt7__cxx1112basic_stringIcSt11char_traitsIcESaIcEEES6_PS0_
FNDA:51,_ZNK9HashTable4Node6getKeyB5cxx11Ev
FNDA:14,_ZNK9HashTable4Node8getValueB5cxx11Ev
FNDA:30,_ZN9HashTable4Node11getValueRefB5cxx11Ev
FNDA:63,_ZNK9HashTable4Node7getNextEv
FNDA:2,_ZN9HashTable4Node10getNextRefEv
FNF:6
FNH:6
DA:19,41
DA:22,41
DA:23,41
DA:24,41
DA:26,41
DA:28,51
DA:30,51
DA:33,14
DA:35,14
DA:38,30
DA:40,30
DA:43,63
DA:45,63
DA:48,2
DA:50,2
LF:15
LH:15
end_of_record
TN:
SF:/home/Kurbanov/lab3/cont/list.cpp
FN:10,10,_ZN4ListC2Ev
FN:12,15,_ZN4ListD2Ev
FN:124,134,_ZN4List8findNodeERKNSt7__cxx1112basic_stringIcSt11char_traitsIcESaIcEEE
FN:136,157,_ZN4List11insertAfterERKNSt7__cxx1112basic_stringIcSt11char_traitsIcESaIcEEES7_
FN:159,180,_ZN4List12insertBeforeERKNSt7__cxx1112basic_stringIcSt11char_traitsIcESaIcEEES7_
FN:17,27,_ZN4List5clearEv
FN:182,202,_ZN4List11removeAfterERKNSt7__cxx1112basic_stringIcSt11char_traitsIcESaIcEEE
FN:204,224,_ZN4List12removeBeforeERKNSt7__cxx1112basic_stringIcSt11char_traitsIcESaIcEEE
FN:226,238,_ZNK4List5printEv
FN:242,249,_ZNK4List13serializeTextERSo
FN:251,261,_ZN4List15deserializeTextERSi
FN:263,268,_ZNK4List9serializeB5cxx11Ev
FN:270,274,_ZN4List11deserializeERKNSt7__cxx1112basic_stringIcSt11char_traitsIcESaIcEEE
FN:278,305,_ZNK4List15serializeBinaryERSo
FN:29,43,_ZN4List9pushFrontERKNSt7__cxx1112basic_stringIcSt11char_traitsIcESaIcEEE
FN:307,338,_ZN4List17deserializeBinaryERSi
FN:45,59,_ZN4List8pushBackERKNSt7__cxx1112basic_stringIcSt11char_traitsIcESaIcEEE
FN:61,77,_ZN4List8popFrontEv
FN:79,95,_ZN4List7popBackEv
FN:97,122,_ZN4List13removeByValueERKNSt7__cxx1112basic_stringIcSt11char_traitsIcESaIcEEE
FNDA:38,_ZN4ListC2Ev
FNDA:38,_ZN4ListD2Ev
FNDA:87,_ZN4List8findNodeERKNSt7__cxx1112basic_stringIcSt11char_traitsIcESaIcEEE
FNDA:3,_ZN4List11insertAfterERKNSt7__cxx1112basic_stringIcSt11char_traitsIcESaIcEEES7_
FNDA:4,_ZN4List12insertBeforeERKNSt7__cxx1112basic_stringIcSt11char_traitsIcESaIcEEES7_
FNDA:46,_ZN4List5clearEv
FNDA:3,_ZN4List11removeAfterERKNSt7__cxx1112basic_stringIcSt11char_traitsIcESaIcEEE
FNDA:5,_ZN4List12removeBeforeERKNSt7__cxx1112basic_stringIcSt11char_traitsIcESaIcEEE
FNDA:1,_ZNK4List5printEv
FNDA:1,_ZNK4List13serializeTextERSo
FNDA:5,_ZN4List15deserializeTextERSi
FNDA:1,_ZNK4List9serializeB5cxx11Ev
FNDA:3,_ZN4List11deserializeERKNSt7__cxx1112basic_stringIcSt11char_traitsIcESaIcEEE
FNDA:3,_ZNK4List15serializeBinaryERSo
FNDA:2,_ZN4List9pushFrontERKNSt7__cxx1112basic_stringIcSt11char_traitsIcESaIcEEE
FNDA:3,_ZN4List17deserializeBinaryERSi
FNDA:86,_ZN4List8pushBackERKNSt7__cxx1112basic_stringIcSt11char_traitsIcESaIcEEE
FNDA:3,_ZN4List8popFrontEv
FNDA:3,_ZN4List7popBackEv
FNDA:2,_ZN4List13removeByValueERKNSt7__cxx1112basic_stringIcSt11char_traitsIcESaIcEEE
FNF:20
FNH:20
DA:10,38
DA:12,38
DA:14,38
DA:15,38
DA:17,46
DA:19,46
DA:20,127
DA:21,81
DA:22,81
DA:23,81
DA:25,46
DA:26,46
DA:27,46
DA:29,2
DA:31,2
DA:32,2
DA:33,2
DA:35,2
DA:36,1
DA:38,2
DA:40,2
DA:41,1
DA:43,2
DA:45,86
DA:47,86
DA:48,86
DA:49,86
DA:51,86
DA:52,55
DA:54,86
DA:56,86
DA:57,31
DA:59,86
DA:61,3
DA:63,3
DA:64,1
DA:67,2
DA:68,2
DA:70,2
DA:71,1
DA:73,1
DA:76,2
DA:79,3
DA:81,3
DA:82,1
DA:85,2
DA:86,2
DA:88,2
DA:89,1
DA:91,1
DA:94,2
DA:97,2
DA:99,2
DA:100,16
DA:101,14
DA:102,4
DA:104,4
DA:105,4
DA:107,0
DA:110,4
DA:111,3
DA:113,1
DA:116,4
DA:117,4
DA:119,10
DA:122,2
DA:124,87
DA:126,87
DA:127,184
DA:128,166
DA:129,69
DA:131,97
DA:133,18
DA:136,3
DA:138,3
DA:139,9
DA:140,8
DA:141,2
DA:142,2
DA:143,2
DA:145,2
DA:146,1
DA:148,2
DA:150,2
DA:151,1
DA:153,2
DA:155,6
DA:159,4
DA:161,4
DA:162,6
DA:163,4
DA:164,2
DA:165,2
DA:166,2
DA:168,2
DA:169,1
DA:171,2
DA:173,2
DA:174,1
DA:176,2
DA:178,2
DA:182,3
DA:184,3
DA:185,7
DA:186,5
DA:187,1
DA:188,1
DA:190,1
DA:191,1
DA:193,1
DA:194,0
DA:197,1
DA:198,1
DA:200,4
DA:204,5
DA:206,5
DA:207,14
DA:208,11
DA:209,2
DA:210,2
DA:212,2
DA:213,1
DA:215,2
DA:216,1
DA:219,2
DA:220,2
DA:222,9
DA:226,1
DA:228,1
DA:229,1
DA:230,4
DA:231,3
DA:232,3
DA:233,2
DA:235,3
DA:237,1
DA:238,1
DA:242,1
DA:244,1
DA:245,4
DA:246,3
DA:247,3
DA:249,1
DA:251,5
DA:253,5
DA:255,5
DA:256,17
DA:257,7
DA:258,5
DA:261,5
DA:263,1
DA:265,1
DA:266,1
DA:267,2
DA:268,1
DA:270,3
DA:272,3
DA:273,3
DA:274,3
DA:278,3
DA:280,3
DA:281,3
DA:282,9
DA:283,6
DA:284,6
DA:287,3
DA:289,3
DA:290,9
DA:292,6
DA:293,6
DA:295,6
DA:296,5
DA:299,6
DA:302,3
DA:303,1
DA:305,2
DA:307,3
DA:309,3
DA:311,3
DA:312,3
DA:313,3
DA:315,1
DA:318,6
DA:319,4
DA:320,4
DA:321,4
DA:323,0
DA:326,4
DA:327,4
DA:328,4
DA:329,3
DA:331,3
DA:333,0
DA:336,4
DA:337,4
DA:338,2
LF:196
LH:192
end_of_record
TN:
SF:/home/Kurbanov/lab3/cont/list.h
FN:12,15,_ZN5LNodeC2ENSt7__cxx1112basic_stringIcSt11char_traitsIcESaIcEEE
FN:22,25,_ZNK5LNode7getNextEv
FN:27,30,_ZNK5LNode7getPrevEv
FNDA:92,_ZN5LNodeC2ENSt7__cxx1112basic_stringIcSt11char_traitsIcESaIcEEE
FNDA:22,_ZNK5LNode7getNextEv
FNDA:24,_ZNK5LNode7getPrevEv
FNF:3
FNH:3
DA:12,92
DA:13,92
DA:15,92
DA:22,22
DA:24,22
DA:27,24
DA:29,24
LF:7
LH:7
end_of_record
TN:
SF:/home/Kurbanov/lab3/cont/queue.cpp
FN:106,121,_ZN5Queue3popB5cxx11Ev
FN:11,11,_ZN5QueueC2Ev
FN:123,129,_ZNK5Queue5frontB5cxx11Ev
FN:13,16,_ZN5QueueD2Ev
FN:131,137,_ZNK5Queue4backB5cxx11Ev
FN:139,142,_ZNK5Queue4sizeEv
FN:144,147,_ZNK5Queue5emptyEv
FN:149,161,_ZNK5Queue5printEv
FN:165,172,_ZNK5Queue13serializeTextERSo
FN:174,183,_ZN5Queue15deserializeTextERSi
FN:18,29,_ZN5Queue5clearEv
FN:185,190,_ZNK5Queue9serializeB5cxx11Ev
FN:192,196,_ZN5Queue11deserializeERKNSt7__cxx1112basic_stringIcSt11char_traitsIcESaIcEEE
FN:200,221,_ZNK5Queue15serializeBinaryERSo
FN:223,254,_ZN5Queue17deserializeBinaryERSi
FN:33,43,_ZN5QueueC2ERKS_
FN:45,53,_ZN5QueueC2EOS_
FN:55,64,_ZN5QueueaSERKS_
FN:66,82,_ZN5QueueaSEOS_
FN:84,90,_ZN5Queue4swapERS_
FN:94,104,_ZN5Queue4pushERKNSt7__cxx1112basic_stringIcSt11char_traitsIcESaIcEEE
FNDA:15,_ZN5Queue3popB5cxx11Ev
FNDA:25,_ZN5QueueC2Ev
FNDA:17,_ZNK5Queue5frontB5cxx11Ev
FNDA:28,_ZN5QueueD2Ev
FNDA:14,_ZNK5Queue4backB5cxx11Ev
FNDA:30,_ZNK5Queue4sizeEv
FNDA:13,_ZNK5Queue5emptyEv
FNDA:1,_ZNK5Queue5printEv
FNDA:1,_ZNK5Queue13serializeTextERSo
FNDA:5,_ZN5Queue15deserializeTextERSi
FNDA:37,_ZN5Queue5clearEv
FNDA:1,_ZNK5Queue9serializeB5cxx11Ev
FNDA:3,_ZN5Queue11deserializeERKNSt7__cxx1112basic_stringIcSt11char_traitsIcESaIcEEE
FNDA:3,_ZNK5Queue15serializeBinaryERSo
FNDA:3,_ZN5Queue17deserializeBinaryERSi
FNDA:2,_ZN5QueueC2ERKS_
FNDA:1,_ZN5QueueC2EOS_
FNDA:2,_ZN5QueueaSERKS_
FNDA:1,_ZN5QueueaSEOS_
FNDA:2,_ZN5Queue4swapERS_
FNDA:55,_ZN5Queue4pushERKNSt7__cxx1112basic_stringIcSt11char_traitsIcESaIcEEE
FNF:21
FNH:21
DA:11,25
DA:13,28
DA:15,28
DA:16,28
DA:18,37
DA:20,37
DA:21,78
DA:22,41
DA:23,41
DA:24,41
DA:26,37
DA:27,37
DA:28,37
DA:29,37
DA:33,2
DA:34,2
DA:35,2
DA:36,2
DA:38,2
DA:39,7
DA:40,5
DA:41,5
DA:43,2
DA:45,1
DA:46,1
DA:47,1
DA:48,1
DA:50,1
DA:51,1
DA:52,1
DA:53,1
DA:55,2
DA:57,2
DA:58,1
DA:61,1
DA:62,1
DA:63,1
DA:64,1
DA:66,1
DA:68,1
DA:69,0
DA:72,1
DA:73,1
DA:74,1
DA:75,1
DA:77,1
DA:78,1
DA:79,1
DA:81,1
DA:84,2
DA:87,2
DA:88,2
DA:89,2
DA:90,2
DA:94,55
DA:96,55
DA:97,55
DA:98,33
DA:100,22
DA:102,55
DA:103,55
DA:104,55
DA:106,15
DA:108,15
DA:109,1
DA:112,14
DA:113,14
DA:114,14
DA:115,14
DA:116,5
DA:118,14
DA:119,14
DA:120,14
DA:123,17
DA:125,17
DA:126,5
DA:128,12
DA:131,14
DA:133,14
DA:134,2
DA:136,12
DA:139,30
DA:141,30
DA:144,13
DA:146,13
DA:149,1
DA:151,1
DA:152,1
DA:153,4
DA:154,3
DA:155,3
DA:156,2
DA:158,3
DA:160,1
DA:161,1
DA:165,1
DA:167,1
DA:168,4
DA:169,3
DA:170,3
DA:172,1
DA:174,5
DA:176,5
DA:177,5
DA:178,18
DA:179,8
DA:180,5
DA:183,5
DA:185,1
DA:187,1
DA:188,1
DA:189,2
DA:190,1
DA:192,3
DA:194,3
DA:195,3
DA:196,3
DA:200,3
DA:202,3
DA:203,3
DA:205,3
DA:206,9
DA:208,6
DA:209,6
DA:211,6
DA:212,5
DA:215,6
DA:218,3
DA:219,1
DA:221,2
DA:223,3
DA:225,3
DA:227,3
DA:228,3
DA:229,3
DA:231,1
DA:234,6
DA:235,4
DA:236,4
DA:237,4
DA:239,0
DA:242,4
DA:243,4
DA:244,4
DA:245,3
DA:247,3
DA:249,0
DA:252,4
DA:253,4
DA:254,2
LF:150
LH:147
end_of_record
TN:
SF:/home/Kurbanov/lab3/cont/queue.h
FN:49,52,_ZN5Queue4NodeC2ENSt7__cxx1112basic_stringIcSt11char_traitsIcESaIcEEE
FNDA:55,_ZN5Queue4NodeC2ENSt7__cxx1112basic_stringIcSt11char_traitsIcESaIcEEE
FNF:1
FNH:1
DA:49,55
DA:50,55
DA:52,55
LF:3
LH:3
end_of_record
TN:
SF:/home/Kurbanov/lab3/cont/stack.cpp
FN:105,109,_ZN5Stack11deserializeERKNSt7__cxx1112basic_stringIcSt11char_traitsIcESaIcEEE
FN:11,11,_ZN5StackC2Ev
FN:113,141,_ZNK5Stack15serializeBinaryERSo
FN:13,16,_ZN5StackD2Ev
FN:143,182,_ZN5Stack17deserializeBinaryERSi
FN:18,27,_ZN5Stack5clearEv
FN:29,34,_ZN5Stack4pushERKNSt7__cxx1112basic_stringIcSt11char_traitsIcESaIcEEE
FN:36,48,_ZN5Stack3popB5cxx11Ev
FN:50,62,_ZNK5Stack5printEv
FN:64,67,_ZNK5Stack5emptyEv
FN:71,74,_ZNK5Stack13serializeTextERSo
FN:76,92,_ZN5Stack15deserializeTextERSi
FN:98,103,_ZNK5Stack9serializeB5cxx11Ev
FNDA:3,_ZN5Stack11deserializeERKNSt7__cxx1112basic_stringIcSt11char_traitsIcESaIcEEE
FNDA:9,_ZN5StackC2Ev
FNDA:2,_ZNK5Stack15serializeBinaryERSo
FNDA:9,_ZN5StackD2Ev
FNDA:2,_ZN5Stack17deserializeBinaryERSi
FNDA:14,_ZN5Stack5clearEv
FNDA:21,_ZN5Stack4pushERKNSt7__cxx1112basic_stringIcSt11char_traitsIcESaIcEEE
FNDA:10,_ZN5Stack3popB5cxx11Ev
FNDA:0,_ZNK5Stack5printEv
FNDA:8,_ZNK5Stack5emptyEv
FNDA:1,_ZNK5Stack13serializeTextERSo
FNDA:3,_ZN5Stack15deserializeTextERSi
FNDA:1,_ZNK5Stack9serializeB5cxx11Ev
FNF:13
FNH:12
DA:11,9
DA:13,9
DA:15,9
DA:16,9
DA:18,14
DA:20,14
DA:21,25
DA:22,11
DA:23,11
DA:24,11
DA:26,14
DA:27,14
DA:29,21
DA:31,21
DA:32,21
DA:33,21
DA:34,21
DA:36,10
DA:38,10
DA:39,0
DA:42,10
DA:43,10
DA:44,10
DA:45,10
DA:47,10
DA:50,0
DA:52,0
DA:53,0
DA:54,0
DA:55,0
DA:56,0
DA:57,0
DA:59,0
DA:61,0
DA:62,0
DA:64,8
DA:66,8
DA:71,1
DA:72,4
DA:73,3
DA:74,1
DA:76,3
DA:78,3
DA:80,3
DA:81,3
DA:83,9
DA:84,3
DA:85,3
DA:90,6
DA:91,3
DA:92,3
DA:98,1
DA:100,1
DA:101,1
DA:102,2
DA:103,1
DA:105,3
DA:107,3
DA:108,3
DA:109,3
DA:113,2
DA:116,2
DA:117,2
DA:118,6
DA:119,4
DA:120,4
DA:123,2
DA:125,2
DA:126,6
DA:128,4
DA:129,4
DA:131,4
DA:132,3
DA:135,4
DA:138,2
DA:139,0
DA:141,2
DA:143,2
DA:145,2
DA:147,2
DA:148,2
DA:149,2
DA:151,0
DA:154,2
DA:155,2
DA:157,6
DA:158,4
DA:159,4
DA:160,4
DA:162,0
DA:165,4
DA:166,4
DA:167,4
DA:168,3
DA:170,3
DA:172,0
DA:175,4
DA:176,4
DA:179,6
DA:180,4
DA:182,2
LF:101
LH:86
end_of_record
TN:
SF:/home/Kurbanov/lab3/cont/stack.h
FN:12,15,_ZN9StackNodeC2ENSt7__cxx1112basic_stringIcSt11char_traitsIcESaIcEEE
FNDA:21,_ZN9StackNodeC2ENSt7__cxx1112basic_stringIcSt11char_traitsIcESaIcEEE
FNF:1
FNH:1
DA:12,21
DA:13,21
DA:15,21
LF:3
LH:3
end_of_record
TN:
SF:/usr/include/c++/13/bit
FN:195,237,_ZSt13__countl_zeroImEiT_
FN:365,369,_ZSt11__bit_widthImEiT_
FNDA:133,_ZSt13__countl_zeroImEiT_
FNDA:133,_ZSt11__bit_widthImEiT_
FNF:2
FNH:2
DA:195,133
DA:198,133
DA:200,133
DA:201,0
DA:203,133
DA:204,133
DA:205,133
DA:214,133
DA:215,133
DA:365,133
DA:367,133
DA:368,133
LF:12
LH:11
end_of_record
TN:
SF:/usr/include/c++/13/bits/alloc_traits.h
FNF:0
FNH:0
DA:482,867
DA:517,867
DA:538,2903
DA:542,2903
DA:562,1632
DA:574,893
DA:588,8
DA:661,41
DA:675,41
DA:722,0
DA:755,6
DA:759,6
DA:792,0
DA:948,1025
DA:949,1025
LF:15
LH:13
end_of_record
TN:
SF:/usr/include/c++/13/bits/allocated_ptr.h
FN:53,55,_ZNSt15__allocated_ptrISaISt23_Sp_counted_ptr_inplaceIN5Catch5Clara6Detail11BoundLambdaIZNS1_21makeCommandLineParserERNS1_10ConfigDataEEUlRKNSt7__cxx1112basic_stringIcSt11char_traitsIcESaIcEEEE0_EESaIvELN9__gnu_cxx12_Lock_policyE2EEEEC2ERSL_PSK_
FN:53,55,_ZNSt15__allocated_ptrISaISt23_Sp_counted_ptr_inplaceIN5Catch5Clara6Detail11BoundLambdaIZNS1_21makeCommandLineParserERNS1_10ConfigDataEEUlRKNSt7__cxx1112basic_stringIcSt11char_traitsIcESaIcEEEE1_EESaIvELN9__gnu_cxx12_Lock_policyE2EEEEC2ERSL_PSK_
FN:53,55,_ZNSt15__allocated_ptrISaISt23_Sp_counted_ptr_inplaceIN5Catch5Clara6Detail11BoundLambdaIZNS1_21makeCommandLineParserERNS1_10ConfigDataEEUlRKNSt7__cxx1112basic_stringIcSt11char_traitsIcESaIcEEEE2_EESaIvELN9__gnu_cxx12_Lock_policyE2EEEEC2ERSL_PSK_
FN:53,55,_ZNSt15__allocated_ptrISaISt23_Sp_counted_ptr_inplaceIN5Catch5Clara6Detail11BoundLambdaIZNS1_21makeCommandLineParserERNS1_10ConfigDataEEUlRKNSt7__cxx1112basic_stringIcSt11char_traitsIcESaIcEEEE3_EESaIvELN9__gnu_cxx12_Lock_policyE2EEEEC2ERSL_PSK_
FN:53,55,_ZNSt15__allocated_ptrISaISt23_Sp_counted_ptr_inplaceIN5Catch5Clara6Detail11BoundLambdaIZNS1_21makeCommandLineParserERNS1_10ConfigDataEEUlRKNSt7__cxx1112basic_stringIcSt11char_traitsIcESaIcEEEE4_EESaIvELN9__gnu_cxx12_Lock_policyE2EEEEC2ERSL_PSK_
FN:53,55,_ZNSt15__allocated_ptrISaISt23_Sp_counted_ptr_inplaceIN5Catch5Clara6Detail11BoundLambdaIZNS1_21makeCommandLineParserERNS1_10ConfigDataEEUlRKNSt7__cxx1112basic_stringIcSt11char_traitsIcESaIcEEEE5_EESaIvELN9__gnu_cxx12_Lock_policyE2EEEEC2ERSL_PSK_
FN:53,55,_ZNSt15__allocated_ptrISaISt23_Sp_counted_ptr_inplaceIN5Catch5Clara6Detail11BoundLambdaIZNS1_21makeCommandLineParserERNS1_10ConfigDataEEUlRKNSt7__cxx1112basic_stringIcSt11char_traitsIcESaIcEEEE7_EESaIvELN9__gnu_cxx12_Lock_policyE2EEEEC2ERSL_PSK_
FN:53,55,_ZNSt15__allocated_ptrISaISt23_Sp_counted_ptr_inplaceIN5Catch5Clara6Detail11BoundLambdaIZNS1_21makeCommandLineParserERNS1_10ConfigDataEEUlRKNSt7__cxx1112basic_stringIcSt11char_traitsIcESaIcEEEE8_EESaIvELN9__gnu_cxx12_Lock_policyE2EEEEC2ERSL_PSK_
FN:53,55,_ZNSt15__allocated_ptrISaISt23_Sp_counted_ptr_inplaceIN5Catch5Clara6Detail11BoundLambdaIZNS1_21makeCommandLineParserERNS1_10ConfigDataEEUlbE0_EESaIvELN9__gnu_cxx12_Lock_policyE2EEEEC2ERSD_PSC_
FN:53,55,_ZNSt15__allocated_ptrISaISt23_Sp_counted_ptr_inplaceIN5Catch5Clara6Detail11BoundLambdaIZNS1_21makeCommandLineParserERNS1_10ConfigDataEEUliE_EESaIvELN9__gnu_cxx12_Lock_policyE2EEEEC2ERSD_PSC_
FN:53,55,_ZNSt15__allocated_ptrISaISt23_Sp_counted_ptr_inplaceIN5Catch5Clara6Detail12BoundFlagRefESaIvELN9__gnu_cxx12_Lock_policyE2EEEEC2ERS9_PS8_
FN:53,55,_ZNSt15__allocated_ptrISaISt23_Sp_counted_ptr_inplaceIN5Catch5Clara6Detail13BoundValueRefINSt7__cxx1112basic_stringIcSt11char_traitsIcESaIcEEEEESaIvELN9__gnu_cxx12_Lock_policyE2EEEEC2ERSG_PSF_
FN:53,55,_ZNSt15__allocated_ptrISaISt23_Sp_counted_ptr_inplaceIN5Catch5Clara6Detail13BoundValueRefISt6vectorINSt7__cxx1112basic_stringIcSt11char_traitsIcESaIcEEESaISB_EEEESaIvELN9__gnu_cxx12_Lock_policyE2EEEEC2ERSJ_PSI_
FN:53,55,_ZNSt15__allocated_ptrISaISt23_Sp_counted_ptr_inplaceIN5Catch5Clara6Detail13BoundValueRefIdEESaIvELN9__gnu_cxx12_Lock_policyE2EEEEC2ERSA_PS9_
FN:53,55,_ZNSt15__allocated_ptrISaISt23_Sp_counted_ptr_inplaceIN5Catch5Clara6Detail13BoundValueRefIjEESaIvELN9__gnu_cxx12_Lock_policyE2EEEEC2ERSA_PS9_
FN:53,55,_ZNSt15__allocated_ptrISaISt23_Sp_counted_ptr_inplaceIN5Catch5Clara6Detail13BoundValueRefIlEESaIvELN9__gnu_cxx12_Lock_policyE2EEEEC2ERSA_PS9_
FN:53,55,_ZNSt15__allocated_ptrISaISt23_Sp_counted_ptr_inplaceIN5Catch5Clara6Detail15BoundFlagLambdaIZNS1_21makeCommandLineParserERNS1_10ConfigDataEEUlbE_EESaIvELN9__gnu_cxx12_Lock_policyE2EEEEC2ERSD_PSC_
FN:53,55,_ZNSt15__allocated_ptrISaISt23_Sp_counted_ptr_inplaceIN5Catch5Clara6Detail15BoundFlagLambdaIZNS2_4HelpC4ERbEUlbE_EESaIvELN9__gnu_cxx12_Lock_policyE2EEEEC2ERSD_PSC_
FN:53,55,_ZNSt15__allocated_ptrISaISt23_Sp_counted_ptr_inplaceIN5Catch5Clara6Detail15BoundManyLambdaIZNS1_21makeCommandLineParserERNS1_10ConfigDataEEUlRKNSt7__cxx1112basic_stringIcSt11char_traitsIcESaIcEEEE6_EESaIvELN9__gnu_cxx12_Lock_policyE2EEEEC2ERSL_PSK_
FN:53,55,_ZNSt15__allocated_ptrISaISt23_Sp_counted_ptr_inplaceIN5Catch5Clara6Detail15BoundManyLambdaIZNS1_21makeCommandLineParserERNS1_10ConfigDataEEUlRKNSt7__cxx1112basic_stringIcSt11char_traitsIcESaIcEEEE_EESaIvELN9__gnu_cxx12_Lock_policyE2EEEEC2ERSL_PSK_
FN:53,55,_ZNSt15__allocated_ptrISaISt23_Sp_counted_ptr_inplaceINSt7__cxx1112basic_stringIcSt11char_traitsIcESaIcEEESaIvELN9__gnu_cxx12_Lock_policyE2EEEEC2ERSB_PSA_
FN:53,55,_ZNSt15__allocated_ptrISaISt23_Sp_counted_ptr_inplaceINSt8__detail4_NFAINSt7__cxx1112regex_traitsIcEEEESaIvELN9__gnu_cxx12_Lock_policyE2EEEEC2ERSB_PSA_
FN:71,75,_ZNSt15__allocated_ptrISaISt23_Sp_counted_ptr_inplaceIN5Catch5Clara6Detail11BoundLambdaIZNS1_21makeCommandLineParserERNS1_10ConfigDataEEUlRKNSt7__cxx1112basic_stringIcSt11char_traitsIcESaIcEEEE0_EESaIvELN9__gnu_cxx12_Lock_policyE2EEEED2Ev
FN:71,75,_ZNSt15__allocated_ptrISaISt23_Sp_counted_ptr_inplaceIN5Catch5Clara6Detail11BoundLambdaIZNS1_21makeCommandLineParserERNS1_10ConfigDataEEUlRKNSt7__cxx1112basic_stringIcSt11char_traitsIcESaIcEEEE1_EESaIvELN9__gnu_cxx12_Lock_policyE2EEEED2Ev
FN:71,75,_ZNSt15__allocated_ptrISaISt23_Sp_counted_ptr_inplaceIN5Catch5Clara6Detail11BoundLambdaIZNS1_21makeCommandLineParserERNS1_10ConfigDataEEUlRKNSt7__cxx1112basic_stringIcSt11char_traitsIcESaIcEEEE2_EESaIvELN9__gnu_cxx12_Lock_policyE2EEEED2Ev
FN:71,75,_ZNSt15__allocated_ptrISaISt23_Sp_counted_ptr_inplaceIN5Catch5Clara6Detail11BoundLambdaIZNS1_21makeCommandLineParserERNS1_10ConfigDataEEUlRKNSt7__cxx1112basic_stringIcSt11char_traitsIcESaIcEEEE3_EESaIvELN9__gnu_cxx12_Lock_policyE2EEEED2Ev
FN:71,75,_ZNSt15__allocated_ptrISaISt23_Sp_counted_ptr_inplaceIN5Catch5Clara6Detail11BoundLambdaIZNS1_21makeCommandLineParserERNS1_10ConfigDataEEUlRKNSt7__cxx1112basic_stringIcSt11char_traitsIcESaIcEEEE4_EESaIvELN9__gnu_cxx12_Lock_policyE2EEEED2Ev
FN:71,75,_ZNSt15__allocated_ptrISaISt23_Sp_counted_ptr_inplaceIN5Catch5Clara6Detail11BoundLambdaIZNS1_21makeCommandLineParserERNS1_10ConfigDataEEUlRKNSt7__cxx1112basic_stringIcSt11char_traitsIcESaIcEEEE5_EESaIvELN9__gnu_cxx12_Lock_policyE2EEEED2Ev
FN:71,75,_ZNSt15__allocated_ptrISaISt23_Sp_counted_ptr_inplaceIN5Catch5Clara6Detail11BoundLambdaIZNS1_21makeCommandLineParserERNS1_10ConfigDataEEUlRKNSt7__cxx1112basic_stringIcSt11char_traitsIcESaIcEEEE7_EESaIvELN9__gnu_cxx12_Lock_policyE2EEEED2Ev
FN:71,75,_ZNSt15__allocated_ptrISaISt23_Sp_counted_ptr_inplaceIN5Catch5Clara6Detail11BoundLambdaIZNS1_21makeCommandLineParserERNS1_10ConfigDataEEUlRKNSt7__cxx1112basic_stringIcSt11char_traitsIcESaIcEEEE8_EESaIvELN9__gnu_cxx12_Lock_policyE2EEEED2Ev
FN:71,75,_ZNSt15__allocated_ptrISaISt23_Sp_counted_ptr_inplaceIN5Catch5Clara6Detail11BoundLambdaIZNS1_21makeCommandLineParserERNS1_10ConfigDataEEUlbE0_EESaIvELN9__gnu_cxx12_Lock_policyE2EEEED2Ev
FN:71,75,_ZNSt15__allocated_ptrISaISt23_Sp_counted_ptr_inplaceIN5Catch5Clara6Detail11BoundLambdaIZNS1_21makeCommandLineParserERNS1_10ConfigDataEEUliE_EESaIvELN9__gnu_cxx12_Lock_policyE2EEEED2Ev
FN:71,75,_ZNSt15__allocated_ptrISaISt23_Sp_counted_ptr_inplaceIN5Catch5Clara6Detail12BoundFlagRefESaIvELN9__gnu_cxx12_Lock_policyE2EEEED2Ev
FN:71,75,_ZNSt15__allocated_ptrISaISt23_Sp_counted_ptr_inplaceIN5Catch5Clara6Detail13BoundValueRefINSt7__cxx1112basic_stringIcSt11char_traitsIcESaIcEEEEESaIvELN9__gnu_cxx12_Lock_policyE2EEEED2Ev
FN:71,75,_ZNSt15__allocated_ptrISaISt23_Sp_counted_ptr_inplaceIN5Catch5Clara6Detail13BoundValueRefISt6vectorINSt7__cxx1112basic_stringIcSt11char_traitsIcESaIcEEESaISB_EEEESaIvELN9__gnu_cxx12_Lock_policyE2EEEED2Ev
FN:71,75,_ZNSt15__allocated_ptrISaISt23_Sp_counted_ptr_inplaceIN5Catch5Clara6Detail13BoundValueRefIdEESaIvELN9__gnu_cxx12_Lock_policyE2EEEED2Ev
FN:71,75,_ZNSt15__allocated_ptrISaISt23_Sp_counted_ptr_inplaceIN5Catch5Clara6Detail13BoundValueRefIjEESaIvELN9__gnu_cxx12_Lock_policyE2EEEED2Ev
FN:71,75,_ZNSt15__allocated_ptrISaISt23_Sp_counted_ptr_inplaceIN5Catch5Clara6Detail13BoundValueRefIlEESaIvELN9__gnu_cxx12_Lock_policyE2EEEED2Ev
FN:71,75,_ZNSt15__allocated_ptrISaISt23_Sp_counted_ptr_inplaceIN5Catch5Clara6Detail15BoundFlagLambdaIZNS1_21makeCommandLineParserERNS1_10ConfigDataEEUlbE_EESaIvELN9__gnu_cxx12_Lock_policyE2EEEED2Ev
FN:71,75,_ZNSt15__allocated_ptrISaISt23_Sp_counted_ptr_inplaceIN5Catch5Clara6Detail15BoundFlagLambdaIZNS2_4HelpC4ERbEUlbE_EESaIvELN9__gnu_cxx12_Lock_policyE2EEEED2Ev
FN:71,75,_ZNSt15__allocated_ptrISaISt23_Sp_counted_ptr_inplaceIN5Catch5Clara6Detail15BoundManyLambdaIZNS1_21makeCommandLineParserERNS1_10ConfigDataEEUlRKNSt7__cxx1112basic_stringIcSt11char_traitsIcESaIcEEEE6_EESaIvELN9__gnu_cxx12_Lock_policyE2EEEED2Ev
FN:71,75,_ZNSt15__allocated_ptrISaISt23_Sp_counted_ptr_inplaceIN5Catch5Clara6Detail15BoundManyLambdaIZNS1_21makeCommandLineParserERNS1_10ConfigDataEEUlRKNSt7__cxx1112basic_stringIcSt11char_traitsIcESaIcEEEE_EESaIvELN9__gnu_cxx12_Lock_policyE2EEEED2Ev
FN:71,75,_ZNSt15__allocated_ptrISaISt23_Sp_counted_ptr_inplaceINSt7__cxx1112basic_stringIcSt11char_traitsIcESaIcEEESaIvELN9__gnu_cxx12_Lock_policyE2EEEED2Ev
FN:71,75,_ZNSt15__allocated_ptrISaISt23_Sp_counted_ptr_inplaceINSt8__detail4_NFAINSt7__cxx1112regex_traitsIcEEEESaIvELN9__gnu_cxx12_Lock_policyE2EEEED2Ev
FN:79,83,_ZNSt15__allocated_ptrISaISt23_Sp_counted_ptr_inplaceIN5Catch5Clara6Detail11BoundLambdaIZNS1_21makeCommandLineParserERNS1_10ConfigDataEEUlRKNSt7__cxx1112basic_stringIcSt11char_traitsIcESaIcEEEE0_EESaIvELN9__gnu_cxx12_Lock_policyE2EEEEaSEDn
FN:79,83,_ZNSt15__allocated_ptrISaISt23_Sp_counted_ptr_inplaceIN5Catch5Clara6Detail11BoundLambdaIZNS1_21makeCommandLineParserERNS1_10ConfigDataEEUlRKNSt7__cxx1112basic_stringIcSt11char_traitsIcESaIcEEEE1_EESaIvELN9__gnu_cxx12_Lock_policyE2EEEEaSEDn
FN:79,83,_ZNSt15__allocated_ptrISaISt23_Sp_counted_ptr_inplaceIN5Catch5Clara6Detail11BoundLambdaIZNS1_21makeCommandLineParserERNS1_10ConfigDataEEUlRKNSt7__cxx1112basic_stringIcSt11char_traitsIcESaIcEEEE2_EESaIvELN9__gnu_cxx12_Lock_policyE2EEEEaSEDn
FN:79,83,_ZNSt15__allocated_ptrISaISt23_Sp_counted_ptr_inplaceIN5Catch5Clara6Detail11BoundLambdaIZNS1_21makeCommandLineParserERNS1_10ConfigDataEEUlRKNSt7__cxx1112basic_stringIcSt11char_traitsIcESaIcEEEE3_EESaIvELN9__gnu_cxx12_Lock_policyE2EEEEaSEDn
FN:79,83,_ZNSt15__allocated_ptrISaISt23_Sp_counted_ptr_inplaceIN5Catch5Clara6Detail11BoundLambdaIZNS1_21makeCommandLineParserERNS1_10ConfigDataEEUlRKNSt7__cxx1112basic_stringIcSt11char_traitsIcESaIcEEEE4_EESaIvELN9__gnu_cxx12_Lock_policyE2EEEEaSEDn
FN:79,83,_ZNSt15__allocated_ptrISaISt23_Sp_counted_ptr_inplaceIN5Catch5Clara6Detail11BoundLambdaIZNS1_21makeCommandLineParserERNS1_10ConfigDataEEUlRKNSt7__cxx1112basic_stringIcSt11char_traitsIcESaIcEEEE5_EESaIvELN9__gnu_cxx12_Lock_policyE2EEEEaSEDn
FN:79,83,_ZNSt15__allocated_ptrISaISt23_Sp_counted_ptr_inplaceIN5Catch5Clara6Detail11BoundLambdaIZNS1_21makeCommandLineParserERNS1_10ConfigDataEEUlRKNSt7__cxx1112basic_stringIcSt11char_traitsIcESaIcEEEE7_EESaIvELN9__gnu_cxx12_Lock_policyE2EEEEaSEDn
FN:79,83,_ZNSt15__allocated_ptrISaISt23_Sp_counted_ptr_inplaceIN5Catch5Clara6Detail11BoundLambdaIZNS1_21makeCommandLineParserERNS1_10ConfigDataEEUlRKNSt7__cxx1112basic_stringIcSt11char_traitsIcESaIcEEEE8_EESaIvELN9__gnu_cxx12_Lock_policyE2EEEEaSEDn
FN:79,83,_ZNSt15__allocated_ptrISaISt23_Sp_counted_ptr_inplaceIN5Catch5Clara6Detail11BoundLambdaIZNS1_21makeCommandLineParserERNS1_10ConfigDataEEUlbE0_EESaIvELN9__gnu_cxx12_Lock_policyE2EEEEaSEDn
FN:79,83,_ZNSt15__allocated_ptrISaISt23_Sp_counted_ptr_inplaceIN5Catch5Clara6Detail11BoundLambdaIZNS1_21makeCommandLineParserERNS1_10ConfigDataEEUliE_EESaIvELN9__gnu_cxx12_Lock_policyE2EEEEaSEDn
FN:79,83,_ZNSt15__allocated_ptrISaISt23_Sp_counted_ptr_inplaceIN5Catch5Clara6Detail12BoundFlagRefESaIvELN9__gnu_cxx12_Lock_policyE2EEEEaSEDn
FN:79,83,_ZNSt15__allocated_ptrISaISt23_Sp_counted_ptr_inplaceIN5Catch5Clara6Detail13BoundValueRefINSt7__cxx1112basic_stringIcSt11char_traitsIcESaIcEEEEESaIvELN9__gnu_cxx12_Lock_policyE2EEEEaSEDn
FN:79,83,_ZNSt15__allocated_ptrISaISt23_Sp_counted_ptr_inplaceIN5Catch5Clara6Detail13BoundValueRefISt6vectorINSt7__cxx1112basic_stringIcSt11char_traitsIcESaIcEEESaISB_EEEESaIvELN9__gnu_cxx12_Lock_policyE2EEEEaSEDn
FN:79,83,_ZNSt15__allocated_ptrISaISt23_Sp_counted_ptr_inplaceIN5Catch5Clara6Detail13BoundValueRefIdEESaIvELN9__gnu_cxx12_Lock_policyE2EEEEaSEDn
FN:79,83,_ZNSt15__allocated_ptrISaISt23_Sp_counted_ptr_inplaceIN5Catch5Clara6Detail13BoundValueRefIjEESaIvELN9__gnu_cxx12_Lock_policyE2EEEEaSEDn
FN:79,83,_ZNSt15__allocated_ptrISaISt23_Sp_counted_ptr_inplaceIN5Catch5Clara6Detail13BoundValueRefIlEESaIvELN9__gnu_cxx12_Lock_policyE2EEEEaSEDn
FN:79,83,_ZNSt15__allocated_ptrISaISt23_Sp_counted_ptr_inplaceIN5Catch5Clara6Detail15BoundFlagLambdaIZNS1_21makeCommandLineParserERNS1_10ConfigDataEEUlbE_EESaIvELN9__gnu_cxx12_Lock_policyE2EEEEaSEDn
FN:79,83,_ZNSt15__allocated_ptrISaISt23_Sp_counted_ptr_inplaceIN5Catch5Clara6Detail15BoundFlagLambdaIZNS2_4HelpC4ERbEUlbE_EESaIvELN9__gnu_cxx12_Lock_policyE2EEEEaSEDn
FN:79,83,_ZNSt15__allocated_ptrISaISt23_Sp_counted_ptr_inplaceIN5Catch5Clara6Detail15BoundManyLambdaIZNS1_21makeCommandLineParserERNS1_10ConfigDataEEUlRKNSt7__cxx1112basic_stringIcSt11char_traitsIcESaIcEEEE6_EESaIvELN9__gnu_cxx12_Lock_policyE2EEEEaSEDn
FN:79,83,_ZNSt15__allocated_ptrISaISt23_Sp_counted_ptr_inplaceIN5Catch5Clara6Detail15BoundManyLambdaIZNS1_21makeCommandLineParserERNS1_10ConfigDataEEUlRKNSt7__cxx1112basic_stringIcSt11char_traitsIcESaIcEEEE_EESaIvELN9__gnu_cxx12_Lock_policyE2EEEEaSEDn
FN:79,83,_ZNSt15__allocated_ptrISaISt23_Sp_counted_ptr_inplaceINSt7__cxx1112basic_stringIcSt11char_traitsIcESaIcEEESaIvELN9__gnu_cxx12_Lock_policyE2EEEEaSEDn
FN:79,83,_ZNSt15__allocated_ptrISaISt23_Sp_counted_ptr_inplaceINSt8__detail4_NFAINSt7__cxx1112regex_traitsIcEEEESaIvELN9__gnu_cxx12_Lock_policyE2EEEEaSEDn
FN:86,86,_ZNSt15__allocated_ptrISaISt23_Sp_counted_ptr_inplaceIN5Catch5Clara6Detail11BoundLambdaIZNS1_21makeCommandLineParserERNS1_10ConfigDataEEUlRKNSt7__cxx1112basic_stringIcSt11char_traitsIcESaIcEEEE0_EESaIvELN9__gnu_cxx12_Lock_policyE2EEEE3getEv
FN:86,86,_ZNSt15__allocated_ptrISaISt23_Sp_counted_ptr_inplaceIN5Catch5Clara6Detail11BoundLambdaIZNS1_21makeCommandLineParserERNS1_10ConfigDataEEUlRKNSt7__cxx1112basic_stringIcSt11char_traitsIcESaIcEEEE1_EESaIvELN9__gnu_cxx12_Lock_policyE2EEEE3getEv
FN:86,86,_ZNSt15__allocated_ptrISaISt23_Sp_counted_ptr_inplaceIN5Catch5Clara6Detail11BoundLambdaIZNS1_21makeCommandLineParserERNS1_10ConfigDataEEUlRKNSt7__cxx1112basic_stringIcSt11char_traitsIcESaIcEEEE2_EESaIvELN9__gnu_cxx12_Lock_policyE2EEEE3getEv
FN:86,86,_ZNSt15__allocated_ptrISaISt23_Sp_counted_ptr_inplaceIN5Catch5Clara6Detail11BoundLambdaIZNS1_21makeCommandLineParserERNS1_10ConfigDataEEUlRKNSt7__cxx1112basic_stringIcSt11char_traitsIcESaIcEEEE3_EESaIvELN9__gnu_cxx12_Lock_policyE2EEEE3getEv
FN:86,86,_ZNSt15__allocated_ptrISaISt23_Sp_counted_ptr_inplaceIN5Catch5Clara6Detail11BoundLambdaIZNS1_21makeCommandLineParserERNS1_10ConfigDataEEUlRKNSt7__cxx1112basic_stringIcSt11char_traitsIcESaIcEEEE4_EESaIvELN9__gnu_cxx12_Lock_policyE2EEEE3getEv
FN:86,86,_ZNSt15__allocated_ptrISaISt23_Sp_counted_ptr_inplaceIN5Catch5Clara6Detail11BoundLambdaIZNS1_21makeCommandLineParserERNS1_10ConfigDataEEUlRKNSt7__cxx1112basic_stringIcSt11char_traitsIcESaIcEEEE5_EESaIvELN9__gnu_cxx12_Lock_policyE2EEEE3getEv
FN:86,86,_ZNSt15__allocated_ptrISaISt23_Sp_counted_ptr_inplaceIN5Catch5Clara6Detail11BoundLambdaIZNS1_21makeCommandLineParserERNS1_10ConfigDataEEUlRKNSt7__cxx1112basic_stringIcSt11char_traitsIcESaIcEEEE7_EESaIvELN9__gnu_cxx12_Lock_policyE2EEEE3getEv
FN:86,86,_ZNSt15__allocated_ptrISaISt23_Sp_counted_ptr_inplaceIN5Catch5Clara6Detail11BoundLambdaIZNS1_21makeCommandLineParserERNS1_10ConfigDataEEUlRKNSt7__cxx1112basic_stringIcSt11char_traitsIcESaIcEEEE8_EESaIvELN9__gnu_cxx12_Lock_policyE2EEEE3getEv
FN:86,86,_ZNSt15__allocated_ptrISaISt23_Sp_counted_ptr_inplaceIN5Catch5Clara6Detail11BoundLambdaIZNS1_21makeCommandLineParserERNS1_10ConfigDataEEUlbE0_EESaIvELN9__gnu_cxx12_Lock_policyE2EEEE3getEv
FN:86,86,_ZNSt15__allocated_ptrISaISt23_Sp_counted_ptr_inplaceIN5Catch5Clara6Detail11BoundLambdaIZNS1_21makeCommandLineParserERNS1_10ConfigDataEEUliE_EESaIvELN9__gnu_cxx12_Lock_policyE2EEEE3getEv
FN:86,86,_ZNSt15__allocated_ptrISaISt23_Sp_counted_ptr_inplaceIN5Catch5Clara6Detail12BoundFlagRefESaIvELN9__gnu_cxx12_Lock_policyE2EEEE3getEv
FN:86,86,_ZNSt15__allocated_ptrISaISt23_Sp_counted_ptr_inplaceIN5Catch5Clara6Detail13BoundValueRefINSt7__cxx1112basic_stringIcSt11char_traitsIcESaIcEEEEESaIvELN9__gnu_cxx12_Lock_policyE2EEEE3getEv
FN:86,86,_ZNSt15__allocated_ptrISaISt23_Sp_counted_ptr_inplaceIN5Catch5Clara6Detail13BoundValueRefISt6vectorINSt7__cxx1112basic_stringIcSt11char_traitsIcESaIcEEESaISB_EEEESaIvELN9__gnu_cxx12_Lock_policyE2EEEE3getEv
FN:86,86,_ZNSt15__allocated_ptrISaISt23_Sp_counted_ptr_inplaceIN5Catch5Clara6Detail13BoundValueRefIdEESaIvELN9__gnu_cxx12_Lock_policyE2EEEE3getEv
FN:86,86,_ZNSt15__allocated_ptrISaISt23_Sp_counted_ptr_inplaceIN5Catch5Clara6Detail13BoundValueRefIjEESaIvELN9__gnu_cxx12_Lock_policyE2EEEE3getEv
FN:86,86,_ZNSt15__allocated_ptrISaISt23_Sp_counted_ptr_inplaceIN5Catch5Clara6Detail13BoundValueRefIlEESaIvELN9__gnu_cxx12_Lock_policyE2EEEE3getEv
FN:86,86,_ZNSt15__allocated_ptrISaISt23_Sp_counted_ptr_inplaceIN5Catch5Clara6Detail15BoundFlagLambdaIZNS1_21makeCommandLineParserERNS1_10ConfigDataEEUlbE_EESaIvELN9__gnu_cxx12_Lock_policyE2EEEE3getEv
FN:86,86,_ZNSt15__allocated_ptrISaISt23_Sp_counted_ptr_inplaceIN5Catch5Clara6Detail15BoundFlagLambdaIZNS2_4HelpC4ERbEUlbE_EESaIvELN9__gnu_cxx12_Lock_policyE2EEEE3getEv
FN:86,86,_ZNSt15__allocated_ptrISaISt23_Sp_counted_ptr_inplaceIN5Catch5Clara6Detail15BoundManyLambdaIZNS1_21makeCommandLineParserERNS1_10ConfigDataEEUlRKNSt7__cxx1112basic_stringIcSt11char_traitsIcESaIcEEEE6_EESaIvELN9__gnu_cxx12_Lock_policyE2EEEE3getEv
FN:86,86,_ZNSt15__allocated_ptrISaISt23_Sp_counted_ptr_inplaceIN5Catch5Clara6Detail15BoundManyLambdaIZNS1_21makeCommandLineParserERNS1_10ConfigDataEEUlRKNSt7__cxx1112basic_stringIcSt11char_traitsIcESaIcEEEE_EESaIvELN9__gnu_cxx12_Lock_policyE2EEEE3getEv
FN:86,86,_ZNSt15__allocated_ptrISaISt23_Sp_counted_ptr_inplaceINSt7__cxx1112basic_stringIcSt11char_traitsIcESaIcEEESaIvELN9__gnu_cxx12_Lock_policyE2EEEE3getEv
FN:86,86,_ZNSt15__allocated_ptrISaISt23_Sp_counted_ptr_inplaceINSt8__detail4_NFAINSt7__cxx1112regex_traitsIcEEEESaIvELN9__gnu_cxx12_Lock_policyE2EEEE3getEv
FN:96,99,_ZSt18__allocate_guardedISaISt23_Sp_counted_ptr_inplaceIN5Catch5Clara6Detail11BoundLambdaIZNS1_21makeCommandLineParserERNS1_10ConfigDataEEUlRKNSt7__cxx1112basic_stringIcSt11char_traitsIcESaIcEEEE0_EESaIvELN9__gnu_cxx12_Lock_policyE2EEEESt15__allocated_ptrIT_ERSN_
FN:96,99,_ZSt18__allocate_guardedISaISt23_Sp_counted_ptr_inplaceIN5Catch5Clara6Detail11BoundLambdaIZNS1_21makeCommandLineParserERNS1_10ConfigDataEEUlRKNSt7__cxx1112basic_stringIcSt11char_traitsIcESaIcEEEE1_EESaIvELN9__gnu_cxx12_Lock_policyE2EEEESt15__allocated_ptrIT_ERSN_
FN:96,99,_ZSt18__allocate_guardedISaISt23_Sp_counted_ptr_inplaceIN5Catch5Clara6Detail11BoundLambdaIZNS1_21makeCommandLineParserERNS1_10ConfigDataEEUlRKNSt7__cxx1112basic_stringIcSt11char_traitsIcESaIcEEEE2_EESaIvELN9__gnu_cxx12_Lock_policyE2EEEESt15__allocated_ptrIT_ERSN_
FN:96,99,_ZSt18__allocate_guardedISaISt23_Sp_counted_ptr_inplaceIN5Catch5Clara6Detail11BoundLambdaIZNS1_21makeCommandLineParserERNS1_10ConfigDataEEUlRKNSt7__cxx1112basic_stringIcSt11char_traitsIcESaIcEEEE3_EESaIvELN9__gnu_cxx12_Lock_policyE2EEEESt15__allocated_ptrIT_ERSN_
FN:96,99,_ZSt18__allocate_guardedISaISt23_Sp_counted_ptr_inplaceIN5Catch5Clara6Detail11BoundLambdaIZNS1_21makeCommandLineParserERNS1_10ConfigDataEEUlRKNSt7__cxx1112basic_stringIcSt11char_traitsIcESaIcEEEE4_EESaIvELN9__gnu_cxx12_Lock_policyE2EEEESt15__allocated_ptrIT_ERSN_
FN:96,99,_ZSt18__allocate_guardedISaISt23_Sp_counted_ptr_inplaceIN5Catch5Clara6Detail11BoundLambdaIZNS1_21makeCommandLineParserERNS1_10ConfigDataEEUlRKNSt7__cxx1112basic_stringIcSt11char_traitsIcESaIcEEEE5_EESaIvELN9__gnu_cxx12_Lock_policyE2EEEESt15__allocated_ptrIT_ERSN_
FN:96,99,_ZSt18__allocate_guardedISaISt23_Sp_counted_ptr_inplaceIN5Catch5Clara6Detail11BoundLambdaIZNS1_21makeCommandLineParserERNS1_10ConfigDataEEUlRKNSt7__cxx1112basic_stringIcSt11char_traitsIcESaIcEEEE7_EESaIvELN9__gnu_cxx12_Lock_policyE2EEEESt15__allocated_ptrIT_ERSN_
FN:96,99,_ZSt18__allocate_guardedISaISt23_Sp_counted_ptr_inplaceIN5Catch5Clara6Detail11BoundLambdaIZNS1_21makeCommandLineParserERNS1_10ConfigDataEEUlRKNSt7__cxx1112basic_stringIcSt11char_traitsIcESaIcEEEE8_EESaIvELN9__gnu_cxx12_Lock_policyE2EEEESt15__allocated_ptrIT_ERSN_
FN:96,99,_ZSt18__allocate_guardedISaISt23_Sp_counted_ptr_inplaceIN5Catch5Clara6Detail11BoundLambdaIZNS1_21makeCommandLineParserERNS1_10ConfigDataEEUlbE0_EESaIvELN9__gnu_cxx12_Lock_policyE2EEEESt15__allocated_ptrIT_ERSF_
FN:96,99,_ZSt18__allocate_guardedISaISt23_Sp_counted_ptr_inplaceIN5Catch5Clara6Detail11BoundLambdaIZNS1_21makeCommandLineParserERNS1_10ConfigDataEEUliE_EESaIvELN9__gnu_cxx12_Lock_policyE2EEEESt15__allocated_ptrIT_ERSF_
FN:96,99,_ZSt18__allocate_guardedISaISt23_Sp_counted_ptr_inplaceIN5Catch5Clara6Detail12BoundFlagRefESaIvELN9__gnu_cxx12_Lock_policyE2EEEESt15__allocated_ptrIT_ERSB_
FN:96,99,_ZSt18__allocate_guardedISaISt23_Sp_counted_ptr_inplaceIN5Catch5Clara6Detail13BoundValueRefINSt7__cxx1112basic_stringIcSt11char_traitsIcESaIcEEEEESaIvELN9__gnu_cxx12_Lock_policyE2EEEESt15__allocated_ptrIT_ERSI_
FN:96,99,_ZSt18__allocate_guardedISaISt23_Sp_counted_ptr_inplaceIN5Catch5Clara6Detail13BoundValueRefISt6vectorINSt7__cxx1112basic_stringIcSt11char_traitsIcESaIcEEESaISB_EEEESaIvELN9__gnu_cxx12_Lock_policyE2EEEESt15__allocated_ptrIT_ERSL_
FN:96,99,_ZSt18__allocate_guardedISaISt23_Sp_counted_ptr_inplaceIN5Catch5Clara6Detail13BoundValueRefIdEESaIvELN9__gnu_cxx12_Lock_policyE2EEEESt15__allocated_ptrIT_ERSC_
FN:96,99,_ZSt18__allocate_guardedISaISt23_Sp_counted_ptr_inplaceIN5Catch5Clara6Detail13BoundValueRefIjEESaIvELN9__gnu_cxx12_Lock_policyE2EEEESt15__allocated_ptrIT_ERSC_
FN:96,99,_ZSt18__allocate_guardedISaISt23_Sp_counted_ptr_inplaceIN5Catch5Clara6Detail13BoundValueRefIlEESaIvELN9__gnu_cxx12_Lock_policyE2EEEESt15__allocated_ptrIT_ERSC_
FN:96,99,_ZSt18__allocate_guardedISaISt23_Sp_counted_ptr_inplaceIN5Catch5Clara6Detail15BoundFlagLambdaIZNS1_21makeCommandLineParserERNS1_10ConfigDataEEUlbE_EESaIvELN9__gnu_cxx12_Lock_policyE2EEEESt15__allocated_ptrIT_ERSF_
FN:96,99,_ZSt18__allocate_guardedISaISt23_Sp_counted_ptr_inplaceIN5Catch5Clara6Detail15BoundFlagLambdaIZNS2_4HelpC4ERbEUlbE_EESaIvELN9__gnu_cxx12_Lock_policyE2EEEESt15__allocated_ptrIT_ERSF_
FN:96,99,_ZSt18__allocate_guardedISaISt23_Sp_counted_ptr_inplaceIN5Catch5Clara6Detail15BoundManyLambdaIZNS1_21makeCommandLineParserERNS1_10ConfigDataEEUlRKNSt7__cxx1112basic_stringIcSt11char_traitsIcESaIcEEEE6_EESaIvELN9__gnu_cxx12_Lock_policyE2EEEESt15__allocated_ptrIT_ERSN_
FN:96,99,_ZSt18__allocate_guardedISaISt23_Sp_counted_ptr_inplaceIN5Catch5Clara6Detail15BoundManyLambdaIZNS1_21makeCommandLineParserERNS1_10ConfigDataEEUlRKNSt7__cxx1112basic_stringIcSt11char_traitsIcESaIcEEEE_EESaIvELN9__gnu_cxx12_Lock_policyE2EEEESt15__allocated_ptrIT_ERSN_
FN:96,99,_ZSt18__allocate_guardedISaISt23_Sp_counted_ptr_inplaceINSt7__cxx1112basic_stringIcSt11char_traitsIcESaIcEEESaIvELN9__gnu_cxx12_Lock_policyE2EEEESt15__allocated_ptrIT_ERSD_
FN:96,99,_ZSt18__allocate_guardedISaISt23_Sp_counted_ptr_inplaceINSt8__detail4_NFAINSt7__cxx1112regex_traitsIcEEEESaIvELN9__gnu_cxx12_Lock_policyE2EEEESt15__allocated_ptrIT_ERSD_
FNDA:2,_ZNSt15__allocated_ptrISaISt23_Sp_counted_ptr_inplaceIN5Catch5Clara6Detail11BoundLambdaIZNS1_21makeCommandLineParserERNS1_10ConfigDataEEUlRKNSt7__cxx1112basic_stringIcSt11char_traitsIcESaIcEEEE0_EESaIvELN9__gnu_cxx12_Lock_policyE2EEEEC2ERSL_PSK_
FNDA:2,_ZNSt15__allocated_ptrISaISt23_Sp_counted_ptr_inplaceIN5Catch5Clara6Detail11BoundLambdaIZNS1_21makeCommandLineParserERNS1_10ConfigDataEEUlRKNSt7__cxx1112basic_stringIcSt11char_traitsIcESaIcEEEE1_EESaIvELN9__gnu_cxx12_Lock_policyE2EEEEC2ERSL_PSK_
FNDA:2,_ZNSt15__allocated_ptrISaISt23_Sp_counted_ptr_inplaceIN5Catch5Clara6Detail11BoundLambdaIZNS1_21makeCommandLineParserERNS1_10ConfigDataEEUlRKNSt7__cxx1112basic_stringIcSt11char_traitsIcESaIcEEEE2_EESaIvELN9__gnu_cxx12_Lock_policyE2EEEEC2ERSL_PSK_
FNDA:2,_ZNSt15__allocated_ptrISaISt23_Sp_counted_ptr_inplaceIN5Catch5Clara6Detail11BoundLambdaIZNS1_21makeCommandLineParserERNS1_10ConfigDataEEUlRKNSt7__cxx1112basic_stringIcSt11char_traitsIcESaIcEEEE3_EESaIvELN9__gnu_cxx12_Lock_policyE2EEEEC2ERSL_PSK_
FNDA:2,_ZNSt15__allocated_ptrISaISt23_Sp_counted_ptr_inplaceIN5Catch5Clara6Detail11BoundLambdaIZNS1_21makeCommandLineParserERNS1_10ConfigDataEEUlRKNSt7__cxx1112basic_stringIcSt11char_traitsIcESaIcEEEE4_EESaIvELN9__gnu_cxx12_Lock_policyE2EEEEC2ERSL_PSK_
FNDA:2,_ZNSt15__allocated_ptrISaISt23_Sp_counted_ptr_inplaceIN5Catch5Clara6Detail11BoundLambdaIZNS1_21makeCommandLineParserERNS1_10ConfigDataEEUlRKNSt7__cxx1112basic_stringIcSt11char_traitsIcESaIcEEEE5_EESaIvELN9__gnu_cxx12_Lock_policyE2EEEEC2ERSL_PSK_
FNDA:2,_ZNSt15__allocated_ptrISaISt23_Sp_counted_ptr_inplaceIN5Catch5Clara6Detail11BoundLambdaIZNS1_21makeCommandLineParserERNS1_10ConfigDataEEUlRKNSt7__cxx1112basic_stringIcSt11char_traitsIcESaIcEEEE7_EESaIvELN9__gnu_cxx12_Lock_policyE2EEEEC2ERSL_PSK_
FNDA:2,_ZNSt15__allocated_ptrISaISt23_Sp_counted_ptr_inplaceIN5Catch5Clara6Detail11BoundLambdaIZNS1_21makeCommandLineParserERNS1_10ConfigDataEEUlRKNSt7__cxx1112basic_stringIcSt11char_traitsIcESaIcEEEE8_EESaIvELN9__gnu_cxx12_Lock_policyE2EEEEC2ERSL_PSK_
FNDA:2,_ZNSt15__allocated_ptrISaISt23_Sp_counted_ptr_inplaceIN5Catch5Clara6Detail11BoundLambdaIZNS1_21makeCommandLineParserERNS1_10ConfigDataEEUlbE0_EESaIvELN9__gnu_cxx12_Lock_policyE2EEEEC2ERSD_PSC_
FNDA:2,_ZNSt15__allocated_ptrISaISt23_Sp_counted_ptr_inplaceIN5Catch5Clara6Detail11BoundLambdaIZNS1_21makeCommandLineParserERNS1_10ConfigDataEEUliE_EESaIvELN9__gnu_cxx12_Lock_policyE2EEEEC2ERSD_PSC_
FNDA:26,_ZNSt15__allocated_ptrISaISt23_Sp_counted_ptr_inplaceIN5Catch5Clara6Detail12BoundFlagRefESaIvELN9__gnu_cxx12_Lock_policyE2EEEEC2ERS9_PS8_
FNDA:8,_ZNSt15__allocated_ptrISaISt23_Sp_counted_ptr_inplaceIN5Catch5Clara6Detail13BoundValueRefINSt7__cxx1112basic_stringIcSt11char_traitsIcESaIcEEEEESaIvELN9__gnu_cxx12_Lock_policyE2EEEEC2ERSG_PSF_
FNDA:4,_ZNSt15__allocated_ptrISaISt23_Sp_counted_ptr_inplaceIN5Catch5Clara6Detail13BoundValueRefISt6vectorINSt7__cxx1112basic_stringIcSt11char_traitsIcESaIcEEESaISB_EEEESaIvELN9__gnu_cxx12_Lock_policyE2EEEEC2ERSJ_PSI_
FNDA:4,_ZNSt15__allocated_ptrISaISt23_Sp_counted_ptr_inplaceIN5Catch5Clara6Detail13BoundValueRefIdEESaIvELN9__gnu_cxx12_Lock_policyE2EEEEC2ERSA_PS9_
FNDA:4,_ZNSt15__allocated_ptrISaISt23_Sp_counted_ptr_inplaceIN5Catch5Clara6Detail13BoundValueRefIjEESaIvELN9__gnu_cxx12_Lock_policyE2EEEEC2ERSA_PS9_
FNDA:2,_ZNSt15__allocated_ptrISaISt23_Sp_counted_ptr_inplaceIN5Catch5Clara6Detail13BoundValueRefIlEESaIvELN9__gnu_cxx12_Lock_policyE2EEEEC2ERSA_PS9_
FNDA:2,_ZNSt15__allocated_ptrISaISt23_Sp_counted_ptr_inplaceIN5Catch5Clara6Detail15BoundFlagLambdaIZNS1_21makeCommandLineParserERNS1_10ConfigDataEEUlbE_EESaIvELN9__gnu_cxx12_Lock_policyE2EEEEC2ERSD_PSC_
FNDA:2,_ZNSt15__allocated_ptrISaISt23_Sp_counted_ptr_inplaceIN5Catch5Clara6Detail15BoundFlagLambdaIZNS2_4HelpC4ERbEUlbE_EESaIvELN9__gnu_cxx12_Lock_policyE2EEEEC2ERSD_PSC_
FNDA:2,_ZNSt15__allocated_ptrISaISt23_Sp_counted_ptr_inplaceIN5Catch5Clara6Detail15BoundManyLambdaIZNS1_21makeCommandLineParserERNS1_10ConfigDataEEUlRKNSt7__cxx1112basic_stringIcSt11char_traitsIcESaIcEEEE6_EESaIvELN9__gnu_cxx12_Lock_policyE2EEEEC2ERSL_PSK_
FNDA:2,_ZNSt15__allocated_ptrISaISt23_Sp_counted_ptr_inplaceIN5Catch5Clara6Detail15BoundManyLambdaIZNS1_21makeCommandLineParserERNS1_10ConfigDataEEUlRKNSt7__cxx1112basic_stringIcSt11char_traitsIcESaIcEEEE_EESaIvELN9__gnu_cxx12_Lock_policyE2EEEEC2ERSL_PSK_
FNDA:6,_ZNSt15__allocated_ptrISaISt23_Sp_counted_ptr_inplaceINSt7__cxx1112basic_stringIcSt11char_traitsIcESaIcEEESaIvELN9__gnu_cxx12_Lock_policyE2EEEEC2ERSB_PSA_
FNDA:0,_ZNSt15__allocated_ptrISaISt23_Sp_counted_ptr_inplaceINSt8__detail4_NFAINSt7__cxx1112regex_traitsIcEEEESaIvELN9__gnu_cxx12_Lock_policyE2EEEEC2ERSB_PSA_
FNDA:2,_ZNSt15__allocated_ptrISaISt23_Sp_counted_ptr_inplaceIN5Catch5Clara6Detail11BoundLambdaIZNS1_21makeCommandLineParserERNS1_10ConfigDataEEUlRKNSt7__cxx1112basic_stringIcSt11char_traitsIcESaIcEEEE0_EESaIvELN9__gnu_cxx12_Lock_policyE2EEEED2Ev
FNDA:2,_ZNSt15__allocated_ptrISaISt23_Sp_counted_ptr_inplaceIN5Catch5Clara6Detail11BoundLambdaIZNS1_21makeCommandLineParserERNS1_10ConfigDataEEUlRKNSt7__cxx1112basic_stringIcSt11char_traitsIcESaIcEEEE1_EESaIvELN9__gnu_cxx12_Lock_policyE2EEEED2Ev
FNDA:2,_ZNSt15__allocated_ptrISaISt23_Sp_counted_ptr_inplaceIN5Catch5Clara6Detail11BoundLambdaIZNS1_21makeCommandLineParserERNS1_10ConfigDataEEUlRKNSt7__cxx1112basic_stringIcSt11char_traitsIcESaIcEEEE2_EESaIvELN9__gnu_cxx12_Lock_policyE2EEEED2Ev
FNDA:2,_ZNSt15__allocated_ptrISaISt23_Sp_counted_ptr_inplaceIN5Catch5Clara6Detail11BoundLambdaIZNS1_21makeCommandLineParserERNS1_10ConfigDataEEUlRKNSt7__cxx1112basic_stringIcSt11char_traitsIcESaIcEEEE3_EESaIvELN9__gnu_cxx12_Lock_policyE2EEEED2Ev
FNDA:2,_ZNSt15__allocated_ptrISaISt23_Sp_counted_ptr_inplaceIN5Catch5Clara6Detail11BoundLambdaIZNS1_21makeCommandLineParserERNS1_10ConfigDataEEUlRKNSt7__cxx1112basic_stringIcSt11char_traitsIcESaIcEEEE4_EESaIvELN9__gnu_cxx12_Lock_policyE2EEEED2Ev
FNDA:2,_ZNSt15__allocated_ptrISaISt23_Sp_counted_ptr_inplaceIN5Catch5Clara6Detail11BoundLambdaIZNS1_21makeCommandLineParserERNS1_10ConfigDataEEUlRKNSt7__cxx1112basic_stringIcSt11char_traitsIcESaIcEEEE5_EESaIvELN9__gnu_cxx12_Lock_policyE2EEEED2Ev
FNDA:2,_ZNSt15__allocated_ptrISaISt23_Sp_counted_ptr_inplaceIN5Catch5Clara6Detail11BoundLambdaIZNS1_21makeCommandLineParserERNS1_10ConfigDataEEUlRKNSt7__cxx1112basic_stringIcSt11char_traitsIcESaIcEEEE7_EESaIvELN9__gnu_cxx12_Lock_policyE2EEEED2Ev
FNDA:2,_ZNSt15__allocated_ptrISaISt23_Sp_counted_ptr_inplaceIN5Catch5Clara6Detail11BoundLambdaIZNS1_21makeCommandLineParserERNS1_10ConfigDataEEUlRKNSt7__cxx1112basic_stringIcSt11char_traitsIcESaIcEEEE8_EESaIvELN9__gnu_cxx12_Lock_policyE2EEEED2Ev
FNDA:2,_ZNSt15__allocated_ptrISaISt23_Sp_counted_ptr_inplaceIN5Catch5Clara6Detail11BoundLambdaIZNS1_21makeCommandLineParserERNS1_10ConfigDataEEUlbE0_EESaIvELN9__gnu_cxx12_Lock_policyE2EEEED2Ev
FNDA:2,_ZNSt15__allocated_ptrISaISt23_Sp_counted_ptr_inplaceIN5Catch5Clara6Detail11BoundLambdaIZNS1_21makeCommandLineParserERNS1_10ConfigDataEEUliE_EESaIvELN9__gnu_cxx12_Lock_policyE2EEEED2Ev
FNDA:26,_ZNSt15__allocated_ptrISaISt23_Sp_counted_ptr_inplaceIN5Catch5Clara6Detail12BoundFlagRefESaIvELN9__gnu_cxx12_Lock_policyE2EEEED2Ev
FNDA:8,_ZNSt15__allocated_ptrISaISt23_Sp_counted_ptr_inplaceIN5Catch5Clara6Detail13BoundValueRefINSt7__cxx1112basic_stringIcSt11char_traitsIcESaIcEEEEESaIvELN9__gnu_cxx12_Lock_policyE2EEEED2Ev
FNDA:4,_ZNSt15__allocated_ptrISaISt23_Sp_counted_ptr_inplaceIN5Catch5Clara6Detail13BoundValueRefISt6vectorINSt7__cxx1112basic_stringIcSt11char_traitsIcESaIcEEESaISB_EEEESaIvELN9__gnu_cxx12_Lock_policyE2EEEED2Ev
FNDA:4,_ZNSt15__allocated_ptrISaISt23_Sp_counted_ptr_inplaceIN5Catch5Clara6Detail13BoundValueRefIdEESaIvELN9__gnu_cxx12_Lock_policyE2EEEED2Ev
FNDA:4,_ZNSt15__allocated_ptrISaISt23_Sp_counted_ptr_inplaceIN5Catch5Clara6Detail13BoundValueRefIjEESaIvELN9__gnu_cxx12_Lock_policyE2EEEED2Ev
FNDA:2,_ZNSt15__allocated_ptrISaISt23_Sp_counted_ptr_inplaceIN5Catch5Clara6Detail13BoundValueRefIlEESaIvELN9__gnu_cxx12_Lock_policyE2EEEED2Ev
FNDA:2,_ZNSt15__allocated_ptrISaISt23_Sp_counted_ptr_inplaceIN5Catch5Clara6Detail15BoundFlagLambdaIZNS1_21makeCommandLineParserERNS1_10ConfigDataEEUlbE_EESaIvELN9__gnu_cxx12_Lock_policyE2EEEED2Ev
FNDA:2,_ZNSt15__allocated_ptrISaISt23_Sp_counted_ptr_inplaceIN5Catch5Clara6Detail15BoundFlagLambdaIZNS2_4HelpC4ERbEUlbE_EESaIvELN9__gnu_cxx12_Lock_policyE2EEEED2Ev
FNDA:2,_ZNSt15__allocated_ptrISaISt23_Sp_counted_ptr_inplaceIN5Catch5Clara6Detail15BoundManyLambdaIZNS1_21makeCommandLineParserERNS1_10ConfigDataEEUlRKNSt7__cxx1112basic_stringIcSt11char_traitsIcESaIcEEEE6_EESaIvELN9__gnu_cxx12_Lock_policyE2EEEED2Ev
FNDA:2,_ZNSt15__allocated_ptrISaISt23_Sp_counted_ptr_inplaceIN5Catch5Clara6Detail15BoundManyLambdaIZNS1_21makeCommandLineParserERNS1_10ConfigDataEEUlRKNSt7__cxx1112basic_stringIcSt11char_traitsIcESaIcEEEE_EESaIvELN9__gnu_cxx12_Lock_policyE2EEEED2Ev
FNDA:6,_ZNSt15__allocated_ptrISaISt23_Sp_counted_ptr_inplaceINSt7__cxx1112basic_stringIcSt11char_traitsIcESaIcEEESaIvELN9__gnu_cxx12_Lock_policyE2EEEED2Ev
FNDA:0,_ZNSt15__allocated_ptrISaISt23_Sp_counted_ptr_inplaceINSt8__detail4_NFAINSt7__cxx1112regex_traitsIcEEEESaIvELN9__gnu_cxx12_Lock_policyE2EEEED2Ev
FNDA:1,_ZNSt15__allocated_ptrISaISt23_Sp_counted_ptr_inplaceIN5Catch5Clara6Detail11BoundLambdaIZNS1_21makeCommandLineParserERNS1_10ConfigDataEEUlRKNSt7__cxx1112basic_stringIcSt11char_traitsIcESaIcEEEE0_EESaIvELN9__gnu_cxx12_Lock_policyE2EEEEaSEDn
FNDA:1,_ZNSt15__allocated_ptrISaISt23_Sp_counted_ptr_inplaceIN5Catch5Clara6Detail11BoundLambdaIZNS1_21makeCommandLineParserERNS1_10ConfigDataEEUlRKNSt7__cxx1112basic_stringIcSt11char_traitsIcESaIcEEEE1_EESaIvELN9__gnu_cxx12_Lock_policyE2EEEEaSEDn
FNDA:1,_ZNSt15__allocated_ptrISaISt23_Sp_counted_ptr_inplaceIN5Catch5Clara6Detail11BoundLambdaIZNS1_21makeCommandLineParserERNS1_10ConfigDataEEUlRKNSt7__cxx1112basic_stringIcSt11char_traitsIcESaIcEEEE2_EESaIvELN9__gnu_cxx12_Lock_policyE2EEEEaSEDn
FNDA:1,_ZNSt15__allocated_ptrISaISt23_Sp_counted_ptr_inplaceIN5Catch5Clara6Detail11BoundLambdaIZNS1_21makeCommandLineParserERNS1_10ConfigDataEEUlRKNSt7__cxx1112basic_stringIcSt11char_traitsIcESaIcEEEE3_EESaIvELN9__gnu_cxx12_Lock_policyE2EEEEaSEDn
FNDA:1,_ZNSt15__allocated_ptrISaISt23_Sp_counted_ptr_inplaceIN5Catch5Clara6Detail11BoundLambdaIZNS1_21makeCommandLineParserERNS1_10ConfigDataEEUlRKNSt7__cxx1112basic_stringIcSt11char_traitsIcESaIcEEEE4_EESaIvELN9__gnu_cxx12_Lock_policyE2EEEEaSEDn
FNDA:1,_ZNSt15__allocated_ptrISaISt23_Sp_counted_ptr_inplaceIN5Catch5Clara6Detail11BoundLambdaIZNS1_21makeCommandLineParserERNS1_10ConfigDataEEUlRKNSt7__cxx1112basic_stringIcSt11char_traitsIcESaIcEEEE5_EESaIvELN9__gnu_cxx12_Lock_policyE2EEEEaSEDn
FNDA:1,_ZNSt15__allocated_ptrISaISt23_Sp_counted_ptr_inplaceIN5Catch5Clara6Detail11BoundLambdaIZNS1_21makeCommandLineParserERNS1_10ConfigDataEEUlRKNSt7__cxx1112basic_stringIcSt11char_traitsIcESaIcEEEE7_EESaIvELN9__gnu_cxx12_Lock_policyE2EEEEaSEDn
FNDA:1,_ZNSt15__allocated_ptrISaISt23_Sp_counted_ptr_inplaceIN5Catch5Clara6Detail11BoundLambdaIZNS1_21makeCommandLineParserERNS1_10ConfigDataEEUlRKNSt7__cxx1112basic_stringIcSt11char_traitsIcESaIcEEEE8_EESaIvELN9__gnu_cxx12_Lock_policyE2EEEEaSEDn
FNDA:1,_ZNSt15__allocated_ptrISaISt23_Sp_counted_ptr_inplaceIN5Catch5Clara6Detail11BoundLambdaIZNS1_21makeCommandLineParserERNS1_10ConfigDataEEUlbE0_EESaIvELN9__gnu_cxx12_Lock_policyE2EEEEaSEDn
FNDA:1,_ZNSt15__allocated_ptrISaISt23_Sp_counted_ptr_inplaceIN5Catch5Clara6Detail11BoundLambdaIZNS1_21makeCommandLineParserERNS1_10ConfigDataEEUliE_EESaIvELN9__gnu_cxx12_Lock_policyE2EEEEaSEDn
FNDA:13,_ZNSt15__allocated_ptrISaISt23_Sp_counted_ptr_inplaceIN5Catch5Clara6Detail12BoundFlagRefESaIvELN9__gnu_cxx12_Lock_policyE2EEEEaSEDn
FNDA:4,_ZNSt15__allocated_ptrISaISt23_Sp_counted_ptr_inplaceIN5Catch5Clara6Detail13BoundValueRefINSt7__cxx1112basic_stringIcSt11char_traitsIcESaIcEEEEESaIvELN9__gnu_cxx12_Lock_policyE2EEEEaSEDn
FNDA:2,_ZNSt15__allocated_ptrISaISt23_Sp_counted_ptr_inplaceIN5Catch5Clara6Detail13BoundValueRefISt6vectorINSt7__cxx1112basic_stringIcSt11char_traitsIcESaIcEEESaISB_EEEESaIvELN9__gnu_cxx12_Lock_policyE2EEEEaSEDn
FNDA:2,_ZNSt15__allocated_ptrISaISt23_Sp_counted_ptr_inplaceIN5Catch5Clara6Detail13BoundValueRefIdEESaIvELN9__gnu_cxx12_Lock_policyE2EEEEaSEDn
FNDA:2,_ZNSt15__allocated_ptrISaISt23_Sp_counted_ptr_inplaceIN5Catch5Clara6Detail13BoundValueRefIjEESaIvELN9__gnu_cxx12_Lock_policyE2EEEEaSEDn
FNDA:1,_ZNSt15__allocated_ptrISaISt23_Sp_counted_ptr_inplaceIN5Catch5Clara6Detail13BoundValueRefIlEESaIvELN9__gnu_cxx12_Lock_policyE2EEEEaSEDn
FNDA:1,_ZNSt15__allocated_ptrISaISt23_Sp_counted_ptr_inplaceIN5Catch5Clara6Detail15BoundFlagLambdaIZNS1_21makeCommandLineParserERNS1_10ConfigDataEEUlbE_EESaIvELN9__gnu_cxx12_Lock_policyE2EEEEaSEDn
FNDA:1,_ZNSt15__allocated_ptrISaISt23_Sp_counted_ptr_inplaceIN5Catch5Clara6Detail15BoundFlagLambdaIZNS2_4HelpC4ERbEUlbE_EESaIvELN9__gnu_cxx12_Lock_policyE2EEEEaSEDn
FNDA:1,_ZNSt15__allocated_ptrISaISt23_Sp_counted_ptr_inplaceIN5Catch5Clara6Detail15BoundManyLambdaIZNS1_21makeCommandLineParserERNS1_10ConfigDataEEUlRKNSt7__cxx1112basic_stringIcSt11char_traitsIcESaIcEEEE6_EESaIvELN9__gnu_cxx12_Lock_policyE2EEEEaSEDn
FNDA:1,_ZNSt15__allocated_ptrISaISt23_Sp_counted_ptr_inplaceIN5Catch5Clara6Detail15BoundManyLambdaIZNS1_21makeCommandLineParserERNS1_10ConfigDataEEUlRKNSt7__cxx1112basic_stringIcSt11char_traitsIcESaIcEEEE_EESaIvELN9__gnu_cxx12_Lock_policyE2EEEEaSEDn
FNDA:3,_ZNSt15__allocated_ptrISaISt23_Sp_counted_ptr_inplaceINSt7__cxx1112basic_stringIcSt11char_traitsIcESaIcEEESaIvELN9__gnu_cxx12_Lock_policyE2EEEEaSEDn
FNDA:0,_ZNSt15__allocated_ptrISaISt23_Sp_counted_ptr_inplaceINSt8__detail4_NFAINSt7__cxx1112regex_traitsIcEEEESaIvELN9__gnu_cxx12_Lock_policyE2EEEEaSEDn
FNDA:1,_ZNSt15__allocated_ptrISaISt23_Sp_counted_ptr_inplaceIN5Catch5Clara6Detail11BoundLambdaIZNS1_21makeCommandLineParserERNS1_10ConfigDataEEUlRKNSt7__cxx1112basic_stringIcSt11char_traitsIcESaIcEEEE0_EESaIvELN9__gnu_cxx12_Lock_policyE2EEEE3getEv
FNDA:1,_ZNSt15__allocated_ptrISaISt23_Sp_counted_ptr_inplaceIN5Catch5Clara6Detail11BoundLambdaIZNS1_21makeCommandLineParserERNS1_10ConfigDataEEUlRKNSt7__cxx1112basic_stringIcSt11char_traitsIcESaIcEEEE1_EESaIvELN9__gnu_cxx12_Lock_policyE2EEEE3getEv
FNDA:1,_ZNSt15__allocated_ptrISaISt23_Sp_counted_ptr_inplaceIN5Catch5Clara6Detail11BoundLambdaIZNS1_21makeCommandLineParserERNS1_10ConfigDataEEUlRKNSt7__cxx1112basic_stringIcSt11char_traitsIcESaIcEEEE2_EESaIvELN9__gnu_cxx12_Lock_policyE2EEEE3getEv
FNDA:1,_ZNSt15__allocated_ptrISaISt23_Sp_counted_ptr_inplaceIN5Catch5Clara6Detail11BoundLambdaIZNS1_21makeCommandLineParserERNS1_10ConfigDataEEUlRKNSt7__cxx1112basic_stringIcSt11char_traitsIcESaIcEEEE3_EESaIvELN9__gnu_cxx12_Lock_policyE2EEEE3getEv
FNDA:1,_ZNSt15__allocated_ptrISaISt23_Sp_counted_ptr_inplaceIN5Catch5Clara6Detail11BoundLambdaIZNS1_21makeCommandLineParserERNS1_10ConfigDataEEUlRKNSt7__cxx1112basic_stringIcSt11char_traitsIcESaIcEEEE4_EESaIvELN9__gnu_cxx12_Lock_policyE2EEEE3getEv
FNDA:1,_ZNSt15__allocated_ptrISaISt23_Sp_counted_ptr_inplaceIN5Catch5Clara6Detail11BoundLambdaIZNS1_21makeCommandLineParserERNS1_10ConfigDataEEUlRKNSt7__cxx1112basic_stringIcSt11char_traitsIcESaIcEEEE5_EESaIvELN9__gnu_cxx12_Lock_policyE2EEEE3getEv
FNDA:1,_ZNSt15__allocated_ptrISaISt23_Sp_counted_ptr_inplaceIN5Catch5Clara6Detail11BoundLambdaIZNS1_21makeCommandLineParserERNS1_10ConfigDataEEUlRKNSt7__cxx1112basic_stringIcSt11char_traitsIcESaIcEEEE7_EESaIvELN9__gnu_cxx12_Lock_policyE2EEEE3getEv
FNDA:1,_ZNSt15__allocated_ptrISaISt23_Sp_counted_ptr_inplaceIN5Catch5Clara6Detail11BoundLambdaIZNS1_21makeCommandLineParserERNS1_10ConfigDataEEUlRKNSt7__cxx1112basic_stringIcSt11char_traitsIcESaIcEEEE8_EESaIvELN9__gnu_cxx12_Lock_policyE2EEEE3getEv
FNDA:1,_ZNSt15__allocated_ptrISaISt23_Sp_counted_ptr_inplaceIN5Catch5Clara6Detail11BoundLambdaIZNS1_21makeCommandLineParserERNS1_10ConfigDataEEUlbE0_EESaIvELN9__gnu_cxx12_Lock_policyE2EEEE3getEv
FNDA:1,_ZNSt15__allocated_ptrISaISt23_Sp_counted_ptr_inplaceIN5Catch5Clara6Detail11BoundLambdaIZNS1_21makeCommandLineParserERNS1_10ConfigDataEEUliE_EESaIvELN9__gnu_cxx12_Lock_policyE2EEEE3getEv
FNDA:13,_ZNSt15__allocated_ptrISaISt23_Sp_counted_ptr_inplaceIN5Catch5Clara6Detail12BoundFlagRefESaIvELN9__gnu_cxx12_Lock_policyE2EEEE3getEv
FNDA:4,_ZNSt15__allocated_ptrISaISt23_Sp_counted_ptr_inplaceIN5Catch5Clara6Detail13BoundValueRefINSt7__cxx1112basic_stringIcSt11char_traitsIcESaIcEEEEESaIvELN9__gnu_cxx12_Lock_policyE2EEEE3getEv
FNDA:2,_ZNSt15__allocated_ptrISaISt23_Sp_counted_ptr_inplaceIN5Catch5Clara6Detail13BoundValueRefISt6vectorINSt7__cxx1112basic_stringIcSt11char_traitsIcESaIcEEESaISB_EEEESaIvELN9__gnu_cxx12_Lock_policyE2EEEE3getEv
FNDA:2,_ZNSt15__allocated_ptrISaISt23_Sp_counted_ptr_inplaceIN5Catch5Clara6Detail13BoundValueRefIdEESaIvELN9__gnu_cxx12_Lock_policyE2EEEE3getEv
FNDA:2,_ZNSt15__allocated_ptrISaISt23_Sp_counted_ptr_inplaceIN5Catch5Clara6Detail13BoundValueRefIjEESaIvELN9__gnu_cxx12_Lock_policyE2EEEE3getEv
FNDA:1,_ZNSt15__allocated_ptrISaISt23_Sp_counted_ptr_inplaceIN5Catch5Clara6Detail13BoundValueRefIlEESaIvELN9__gnu_cxx12_Lock_policyE2EEEE3getEv
FNDA:1,_ZNSt15__allocated_ptrISaISt23_Sp_counted_ptr_inplaceIN5Catch5Clara6Detail15BoundFlagLambdaIZNS1_21makeCommandLineParserERNS1_10ConfigDataEEUlbE_EESaIvELN9__gnu_cxx12_Lock_policyE2EEEE3getEv
FNDA:1,_ZNSt15__allocated_ptrISaISt23_Sp_counted_ptr_inplaceIN5Catch5Clara6Detail15BoundFlagLambdaIZNS2_4HelpC4ERbEUlbE_EESaIvELN9__gnu_cxx12_Lock_policyE2EEEE3getEv
FNDA:1,_ZNSt15__allocated_ptrISaISt23_Sp_counted_ptr_inplaceIN5Catch5Clara6Detail15BoundManyLambdaIZNS1_21makeCommandLineParserERNS1_10ConfigDataEEUlRKNSt7__cxx1112basic_stringIcSt11char_traitsIcESaIcEEEE6_EESaIvELN9__gnu_cxx12_Lock_policyE2EEEE3getEv
FNDA:1,_ZNSt15__allocated_ptrISaISt23_Sp_counted_ptr_inplaceIN5Catch5Clara6Detail15BoundManyLambdaIZNS1_21makeCommandLineParserERNS1_10ConfigDataEEUlRKNSt7__cxx1112basic_stringIcSt11char_traitsIcESaIcEEEE_EESaIvELN9__gnu_cxx12_Lock_policyE2EEEE3getEv
FNDA:3,_ZNSt15__allocated_ptrISaISt23_Sp_counted_ptr_inplaceINSt7__cxx1112basic_stringIcSt11char_traitsIcESaIcEEESaIvELN9__gnu_cxx12_Lock_policyE2EEEE3getEv
FNDA:0,_ZNSt15__allocated_ptrISaISt23_Sp_counted_ptr_inplaceINSt8__detail4_NFAINSt7__cxx1112regex_traitsIcEEEESaIvELN9__gnu_cxx12_Lock_policyE2EEEE3getEv
FNDA:1,_ZSt18__allocate_guardedISaISt23_Sp_counted_ptr_inplaceIN5Catch5Clara6Detail11BoundLambdaIZNS1_21makeCommandLineParserERNS1_10ConfigDataEEUlRKNSt7__cxx1112basic_stringIcSt11char_traitsIcESaIcEEEE0_EESaIvELN9__gnu_cxx12_Lock_policyE2EEEESt15__allocated_ptrIT_ERSN_
FNDA:1,_ZSt18__allocate_guardedISaISt23_Sp_counted_ptr_inplaceIN5Catch5Clara6Detail11BoundLambdaIZNS1_21makeCommandLineParserERNS1_10ConfigDataEEUlRKNSt7__cxx1112basic_stringIcSt11char_traitsIcESaIcEEEE1_EESaIvELN9__gnu_cxx12_Lock_policyE2EEEESt15__allocated_ptrIT_ERSN_
FNDA:1,_ZSt18__allocate_guardedISaISt23_Sp_counted_ptr_inplaceIN5Catch5Clara6Detail11BoundLambdaIZNS1_21makeCommandLineParserERNS1_10ConfigDataEEUlRKNSt7__cxx1112basic_stringIcSt11char_traitsIcESaIcEEEE2_EESaIvELN9__gnu_cxx12_Lock_policyE2EEEESt15__allocated_ptrIT_ERSN_
FNDA:1,_ZSt18__allocate_guardedISaISt23_Sp_counted_ptr_inplaceIN5Catch5Clara6Detail11BoundLambdaIZNS1_21makeCommandLineParserERNS1_10ConfigDataEEUlRKNSt7__cxx1112basic_stringIcSt11char_traitsIcESaIcEEEE3_EESaIvELN9__gnu_cxx12_Lock_policyE2EEEESt15__allocated_ptrIT_ERSN_
FNDA:1,_ZSt18__allocate_guardedISaISt23_Sp_counted_ptr_inplaceIN5Catch5Clara6Detail11BoundLambdaIZNS1_21makeCommandLineParserERNS1_10ConfigDataEEUlRKNSt7__cxx1112basic_stringIcSt11char_traitsIcESaIcEEEE4_EESaIvELN9__gnu_cxx12_Lock_policyE2EEEESt15__allocated_ptrIT_ERSN_
FNDA:1,_ZSt18__allocate_guardedISaISt23_Sp_counted_ptr_inplaceIN5Catch5Clara6Detail11BoundLambdaIZNS1_21makeCommandLineParserERNS1_10ConfigDataEEUlRKNSt7__cxx1112basic_stringIcSt11char_traitsIcESaIcEEEE5_EESaIvELN9__gnu_cxx12_Lock_policyE2EEEESt15__allocated_ptrIT_ERSN_
FNDA:1,_ZSt18__allocate_guardedISaISt23_Sp_counted_ptr_inplaceIN5Catch5Clara6Detail11BoundLambdaIZNS1_21makeCommandLineParserERNS1_10ConfigDataEEUlRKNSt7__cxx1112basic_stringIcSt11char_traitsIcESaIcEEEE7_EESaIvELN9__gnu_cxx12_Lock_policyE2EEEESt15__allocated_ptrIT_ERSN_
FNDA:1,_ZSt18__allocate_guardedISaISt23_Sp_counted_ptr_inplaceIN5Catch5Clara6Detail11BoundLambdaIZNS1_21makeCommandLineParserERNS1_10ConfigDataEEUlRKNSt7__cxx1112basic_stringIcSt11char_traitsIcESaIcEEEE8_EESaIvELN9__gnu_cxx12_Lock_policyE2EEEESt15__allocated_ptrIT_ERSN_
FNDA:1,_ZSt18__allocate_guardedISaISt23_Sp_counted_ptr_inplaceIN5Catch5Clara6Detail11BoundLambdaIZNS1_21makeCommandLineParserERNS1_10ConfigDataEEUlbE0_EESaIvELN9__gnu_cxx12_Lock_policyE2EEEESt15__allocated_ptrIT_ERSF_
FNDA:1,_ZSt18__allocate_guardedISaISt23_Sp_counted_ptr_inplaceIN5Catch5Clara6Detail11BoundLambdaIZNS1_21makeCommandLineParserERNS1_10ConfigDataEEUliE_EESaIvELN9__gnu_cxx12_Lock_policyE2EEEESt15__allocated_ptrIT_ERSF_
FNDA:13,_ZSt18__allocate_guardedISaISt23_Sp_counted_ptr_inplaceIN5Catch5Clara6Detail12BoundFlagRefESaIvELN9__gnu_cxx12_Lock_policyE2EEEESt15__allocated_ptrIT_ERSB_
FNDA:4,_ZSt18__allocate_guardedISaISt23_Sp_counted_ptr_inplaceIN5Catch5Clara6Detail13BoundValueRefINSt7__cxx1112basic_stringIcSt11char_traitsIcESaIcEEEEESaIvELN9__gnu_cxx12_Lock_policyE2EEEESt15__allocated_ptrIT_ERSI_
FNDA:2,_ZSt18__allocate_guardedISaISt23_Sp_counted_ptr_inplaceIN5Catch5Clara6Detail13BoundValueRefISt6vectorINSt7__cxx1112basic_stringIcSt11char_traitsIcESaIcEEESaISB_EEEESaIvELN9__gnu_cxx12_Lock_policyE2EEEESt15__allocated_ptrIT_ERSL_
FNDA:2,_ZSt18__allocate_guardedISaISt23_Sp_counted_ptr_inplaceIN5Catch5Clara6Detail13BoundValueRefIdEESaIvELN9__gnu_cxx12_Lock_policyE2EEEESt15__allocated_ptrIT_ERSC_
FNDA:2,_ZSt18__allocate_guardedISaISt23_Sp_counted_ptr_inplaceIN5Catch5Clara6Detail13BoundValueRefIjEESaIvELN9__gnu_cxx12_Lock_policyE2EEEESt15__allocated_ptrIT_ERSC_
FNDA:1,_ZSt18__allocate_guardedISaISt23_Sp_counted_ptr_inplaceIN5Catch5Clara6Detail13BoundValueRefIlEESaIvELN9__gnu_cxx12_Lock_policyE2EEEESt15__allocated_ptrIT_ERSC_
FNDA:1,_ZSt18__allocate_guardedISaISt23_Sp_counted_ptr_inplaceIN5Catch5Clara6Detail15BoundFlagLambdaIZNS1_21makeCommandLineParserERNS1_10ConfigDataEEUlbE_EESaIvELN9__gnu_cxx12_Lock_policyE2EEEESt15__allocated_ptrIT_ERSF_
FNDA:1,_ZSt18__allocate_guardedISaISt23_Sp_counted_ptr_inplaceIN5Catch5Clara6Detail15BoundFlagLambdaIZNS2_4HelpC4ERbEUlbE_EESaIvELN9__gnu_cxx12_Lock_policyE2EEEESt15__allocated_ptrIT_ERSF_
FNDA:1,_ZSt18__allocate_guardedISaISt23_Sp_counted_ptr_inplaceIN5Catch5Clara6Detail15BoundManyLambdaIZNS1_21makeCommandLineParserERNS1_10ConfigDataEEUlRKNSt7__cxx1112basic_stringIcSt11char_traitsIcESaIcEEEE6_EESaIvELN9__gnu_cxx12_Lock_policyE2EEEESt15__allocated_ptrIT_ERSN_
FNDA:1,_ZSt18__allocate_guardedISaISt23_Sp_counted_ptr_inplaceIN5Catch5Clara6Detail15BoundManyLambdaIZNS1_21makeCommandLineParserERNS1_10ConfigDataEEUlRKNSt7__cxx1112basic_stringIcSt11char_traitsIcESaIcEEEE_EESaIvELN9__gnu_cxx12_Lock_policyE2EEEESt15__allocated_ptrIT_ERSN_
FNDA:3,_ZSt18__allocate_guardedISaISt23_Sp_counted_ptr_inplaceINSt7__cxx1112basic_stringIcSt11char_traitsIcESaIcEEESaIvELN9__gnu_cxx12_Lock_policyE2EEEESt15__allocated_ptrIT_ERSD_
FNDA:0,_ZSt18__allocate_guardedISaISt23_Sp_counted_ptr_inplaceINSt8__detail4_NFAINSt7__cxx1112regex_traitsIcEEEESaIvELN9__gnu_cxx12_Lock_policyE2EEEESt15__allocated_ptrIT_ERSD_
FNF:110
FNH:105
DA:53,82
DA:54,82
DA:55,82
DA:71,82
DA:73,82
DA:74,41
DA:75,82
DA:79,41
DA:81,41
DA:82,41
DA:86,41
DA:96,41
DA:98,41
LF:13
LH:13
end_of_record
TN:
SF:/usr/include/c++/13/bits/allocator.h
FNF:0
FNH:0
DA:163,2253
DA:168,221
DA:178,83
DA:184,1518
DA:217,0
DA:223,0
LF:6
LH:4
end_of_record
TN:
SF:/usr/include/c++/13/bits/basic_string.h
FN:3528,3541,_ZSt12__str_concatINSt7__cxx1112basic_stringIcSt11char_traitsIcESaIcEEEET_PKNS6_10value_typeENS6_9size_typeES9_SA_RKNS6_14allocator_typeE
FN:3571,3579,_ZStplIcSt11char_traitsIcESaIcEENSt7__cxx1112basic_stringIT_T0_T1_EEPKS5_RKS8_
FN:3625,3631,_ZStplIcSt11char_traitsIcESaIcEENSt7__cxx1112basic_stringIT_T0_T1_EERKS8_S5_
FN:3637,3639,_ZStplIcSt11char_traitsIcESaIcEENSt7__cxx1112basic_stringIT_T0_T1_EEOS8_RKS8_
FN:3651,3669,_ZStplIcSt11char_traitsIcESaIcEENSt7__cxx1112basic_stringIT_T0_T1_EEOS8_S9_
FN:3674,3676,_ZStplIcSt11char_traitsIcESaIcEENSt7__cxx1112basic_stringIT_T0_T1_EEPKS5_OS8_
FN:3681,3683,_ZStplIcSt11char_traitsIcESaIcEENSt7__cxx1112basic_stringIT_T0_T1_EES5_OS8_
FN:3688,3690,_ZStplIcSt11char_traitsIcESaIcEENSt7__cxx1112basic_stringIT_T0_T1_EEOS8_PKS5_
FN:3695,3697,_ZStplIcSt11char_traitsIcESaIcEENSt7__cxx1112basic_stringIT_T0_T1_EEOS8_S5_
FN:3710,3716,_ZSteqIcSt11char_traitsIcESaIcEEbRKNSt7__cxx1112basic_stringIT_T0_T1_EESA_
FN:3727,3732,_ZSteqIcSt11char_traitsIcESaIcEEbRKNSt7__cxx1112basic_stringIT_T0_T1_EEPKS5_
FN:3774,3776,_ZSteqIcSt11char_traitsIcESaIcEEbPKT_RKNSt7__cxx1112basic_stringIS3_T0_T1_EE
FN:3788,3791,_ZStneIcSt11char_traitsIcESaIcEEbRKNSt7__cxx1112basic_stringIT_T0_T1_EESA_
FN:3815,3817,_ZStneIcSt11char_traitsIcESaIcEEbRKNSt7__cxx1112basic_stringIT_T0_T1_EEPKS5_
FN:3829,3832,_ZStltIcSt11char_traitsIcESaIcEEbRKNSt7__cxx1112basic_stringIT_T0_T1_EESA_
FN:3870,3873,_ZStgtIcSt11char_traitsIcESaIcEEbRKNSt7__cxx1112basic_stringIT_T0_T1_EESA_
FN:3911,3914,_ZStleIcSt11char_traitsIcESaIcEEbRKNSt7__cxx1112basic_stringIT_T0_T1_EESA_
FN:4140,4142,_ZNSt7__cxx116stoullERKNS_12basic_stringIcSt11char_traitsIcESaIcEEEPmi
FN:4162,4173,_ZNSt7__cxx119to_stringEi
FN:4204,4212,_ZNSt7__cxx119to_stringEm
FN:4487,4488,_ZNSt8literals15string_literalsli1sB5cxx11EPKcm
FN:641,650,_ZNSt7__cxx1112basic_stringIcSt11char_traitsIcESaIcEEC2IS3_EEPKcRKS3_
FN:641,650,_ZNSt7__cxx1112basic_stringIwSt11char_traitsIwESaIwEEC2IS3_EEPKwRKS3_
FN:664,666,_ZNSt7__cxx1112basic_stringIcSt11char_traitsIcESaIcEEC2IS3_EEmcRKS3_
FN:760,770,_ZNSt7__cxx1112basic_stringIcSt11char_traitsIcESaIcEEC2IN9__gnu_cxx17__normal_iteratorIPKcS4_EEvEET_SB_RKS3_
FN:760,770,_ZNSt7__cxx1112basic_stringIcSt11char_traitsIcESaIcEEC2IN9__gnu_cxx17__normal_iteratorIPcS4_EEvEET_SA_RKS3_
FN:760,770,_ZNSt7__cxx1112basic_stringIcSt11char_traitsIcESaIcEEC2IPcvEET_S7_RKS3_
FN:795,796,_ZNSt7__cxx1112basic_stringIwSt11char_traitsIwESaIwEEC2ISt17basic_string_viewIwS2_EvEERKT_RKS3_
FNDA:0,_ZSt12__str_concatINSt7__cxx1112basic_stringIcSt11char_traitsIcESaIcEEEET_PKNS6_10value_typeENS6_9size_typeES9_SA_RKNS6_14allocator_typeE
FNDA:0,_ZStplIcSt11char_traitsIcESaIcEENSt7__cxx1112basic_stringIT_T0_T1_EEPKS5_RKS8_
FNDA:0,_ZStplIcSt11char_traitsIcESaIcEENSt7__cxx1112basic_stringIT_T0_T1_EERKS8_S5_
FNDA:0,_ZStplIcSt11char_traitsIcESaIcEENSt7__cxx1112basic_stringIT_T0_T1_EEOS8_RKS8_
FNDA:0,_ZStplIcSt11char_traitsIcESaIcEENSt7__cxx1112basic_stringIT_T0_T1_EEOS8_S9_
FNDA:0,_ZStplIcSt11char_traitsIcESaIcEENSt7__cxx1112basic_stringIT_T0_T1_EEPKS5_OS8_
FNDA:0,_ZStplIcSt11char_traitsIcESaIcEENSt7__cxx1112basic_stringIT_T0_T1_EES5_OS8_
FNDA:0,_ZStplIcSt11char_traitsIcESaIcEENSt7__cxx1112basic_stringIT_T0_T1_EEOS8_PKS5_
FNDA:0,_ZStplIcSt11char_traitsIcESaIcEENSt7__cxx1112basic_stringIT_T0_T1_EEOS8_S5_
FNDA:548,_ZSteqIcSt11char_traitsIcESaIcEEbRKNSt7__cxx1112basic_stringIT_T0_T1_EESA_
FNDA:169,_ZSteqIcSt11char_traitsIcESaIcEEbRKNSt7__cxx1112basic_stringIT_T0_T1_EEPKS5_
FNDA:0,_ZSteqIcSt11char_traitsIcESaIcEEbPKT_RKNSt7__cxx1112basic_stringIS3_T0_T1_EE
FNDA:4,_ZStneIcSt11char_traitsIcESaIcEEbRKNSt7__cxx1112basic_stringIT_T0_T1_EESA_
FNDA:0,_ZStneIcSt11char_traitsIcESaIcEEbRKNSt7__cxx1112basic_stringIT_T0_T1_EEPKS5_
FNDA:108,_ZStltIcSt11char_traitsIcESaIcEEbRKNSt7__cxx1112basic_stringIT_T0_T1_EESA_
FNDA:50,_ZStgtIcSt11char_traitsIcESaIcEEbRKNSt7__cxx1112basic_stringIT_T0_T1_EESA_
FNDA:0,_ZStleIcSt11char_traitsIcESaIcEEbRKNSt7__cxx1112basic_stringIT_T0_T1_EESA_
FNDA:0,_ZNSt7__cxx116stoullERKNS_12basic_stringIcSt11char_traitsIcESaIcEEEPmi
FNDA:0,_ZNSt7__cxx119to_stringEi
FNDA:0,_ZNSt7__cxx119to_stringEm
FNDA:118,_ZNSt8literals15string_literalsli1sB5cxx11EPKcm
FNDA:832,_ZNSt7__cxx1112basic_stringIcSt11char_traitsIcESaIcEEC2IS3_EEPKcRKS3_
FNDA:0,_ZNSt7__cxx1112basic_stringIwSt11char_traitsIwESaIwEEC2IS3_EEPKwRKS3_
FNDA:4,_ZNSt7__cxx1112basic_stringIcSt11char_traitsIcESaIcEEC2IS3_EEmcRKS3_
FNDA:0,_ZNSt7__cxx1112basic_stringIcSt11char_traitsIcESaIcEEC2IN9__gnu_cxx17__normal_iteratorIPKcS4_EEvEET_SB_RKS3_
FNDA:0,_ZNSt7__cxx1112basic_stringIcSt11char_traitsIcESaIcEEC2IN9__gnu_cxx17__normal_iteratorIPcS4_EEvEET_SA_RKS3_
FNDA:0,_ZNSt7__cxx1112basic_stringIcSt11char_traitsIcESaIcEEC2IPcvEET_S7_RKS3_
FNDA:0,_ZNSt7__cxx1112basic_stringIwSt11char_traitsIwESaIwEEC2ISt17basic_string_viewIwS2_EvEERKT_RKS3_
FNF:28
FNH:8
DA:355,1371
DA:641,832
DA:642,832
DA:645,832
DA:646,0
DA:648,832
DA:649,832
DA:650,832
DA:664,4
DA:665,4
DA:666,4
DA:760,0
DA:762,0
DA:765,0
DA:770,0
DA:795,0
DA:796,0
DA:3528,0
DA:3536,0
DA:3537,0
DA:3538,0
DA:3539,0
DA:3540,0
DA:3541,0
DA:3571,0
DA:3578,0
DA:3625,0
DA:3630,0
DA:3637,0
DA:3639,0
DA:3651,0
DA:3656,0
DA:3658,0
DA:3661,0
DA:3664,0
DA:3665,0
DA:3666,0
DA:3668,0
DA:3674,0
DA:3676,0
DA:3681,0
DA:3683,0
DA:3688,0
DA:3690,0
DA:3695,0
DA:3697,0
DA:3710,548
DA:3714,548
DA:3715,548
DA:3727,169
DA:3730,169
DA:3731,169
DA:3774,0
DA:3776,0
DA:3788,4
DA:3791,4
DA:3815,0
DA:3817,0
DA:3829,108
DA:3832,108
DA:3870,50
DA:3873,50
DA:3911,0
DA:3914,0
DA:4140,0
DA:4141,0
DA:4142,0
DA:4162,0
DA:4167,0
DA:4168,0
DA:4169,0
DA:4170,0
DA:4171,0
DA:4172,0
DA:4204,0
DA:4209,0
DA:4210,0
DA:4211,0
DA:4212,0
DA:4487,118
DA:4488,354
LF:81
LH:24
end_of_record
TN:
SF:/usr/include/c++/13/bits/basic_string.tcc
FN:221,252,_ZNSt7__cxx1112basic_stringIcSt11char_traitsIcESaIcEE12_M_constructIN9__gnu_cxx17__normal_iteratorIPKcS4_EEEEvT_SB_St20forward_iterator_tag
FN:221,252,_ZNSt7__cxx1112basic_stringIcSt11char_traitsIcESaIcEE12_M_constructIN9__gnu_cxx17__normal_iteratorIPcS4_EEEEvT_SA_St20forward_iterator_tag
FN:221,252,_ZNSt7__cxx1112basic_stringIcSt11char_traitsIcESaIcEE12_M_constructIPKcEEvT_S8_St20forward_iterator_tag
FN:221,252,_ZNSt7__cxx1112basic_stringIcSt11char_traitsIcESaIcEE12_M_constructIPcEEvT_S7_St20forward_iterator_tag
FN:221,252,_ZNSt7__cxx1112basic_stringIwSt11char_traitsIwESaIwEE12_M_constructIPKwEEvT_S8_St20forward_iterator_tag
FN:239,239,_ZZNSt7__cxx1112basic_stringIcSt11char_traitsIcESaIcEE12_M_constructIN9__gnu_cxx17__normal_iteratorIPKcS4_EEEEvT_SB_St20forward_iterator_tagEN6_GuardC2EPS4_
FN:239,239,_ZZNSt7__cxx1112basic_stringIcSt11char_traitsIcESaIcEE12_M_constructIN9__gnu_cxx17__normal_iteratorIPcS4_EEEEvT_SA_St20forward_iterator_tagEN6_GuardC2EPS4_
FN:239,239,_ZZNSt7__cxx1112basic_stringIcSt11char_traitsIcESaIcEE12_M_constructIPKcEEvT_S8_St20forward_iterator_tagEN6_GuardC2EPS4_
FN:239,239,_ZZNSt7__cxx1112basic_stringIcSt11char_traitsIcESaIcEE12_M_constructIPcEEvT_S7_St20forward_iterator_tagEN6_GuardC2EPS4_
FN:239,239,_ZZNSt7__cxx1112basic_stringIwSt11char_traitsIwESaIwEE12_M_constructIPKwEEvT_S8_St20forward_iterator_tagEN6_GuardC2EPS4_
FN:242,242,_ZZNSt7__cxx1112basic_stringIcSt11char_traitsIcESaIcEE12_M_constructIN9__gnu_cxx17__normal_iteratorIPKcS4_EEEEvT_SB_St20forward_iterator_tagEN6_GuardD2Ev
FN:242,242,_ZZNSt7__cxx1112basic_stringIcSt11char_traitsIcESaIcEE12_M_constructIN9__gnu_cxx17__normal_iteratorIPcS4_EEEEvT_SA_St20forward_iterator_tagEN6_GuardD2Ev
FN:242,242,_ZZNSt7__cxx1112basic_stringIcSt11char_traitsIcESaIcEE12_M_constructIPKcEEvT_S8_St20forward_iterator_tagEN6_GuardD2Ev
FN:242,242,_ZZNSt7__cxx1112basic_stringIcSt11char_traitsIcESaIcEE12_M_constructIPcEEvT_S7_St20forward_iterator_tagEN6_GuardD2Ev
FN:242,242,_ZZNSt7__cxx1112basic_stringIwSt11char_traitsIwESaIwEE12_M_constructIPKwEEvT_S8_St20forward_iterator_tagEN6_GuardD2Ev
FNDA:0,_ZNSt7__cxx1112basic_stringIcSt11char_traitsIcESaIcEE12_M_constructIN9__gnu_cxx17__normal_iteratorIPKcS4_EEEEvT_SB_St20forward_iterator_tag
FNDA:0,_ZNSt7__cxx1112basic_stringIcSt11char_traitsIcESaIcEE12_M_constructIN9__gnu_cxx17__normal_iteratorIPcS4_EEEEvT_SA_St20forward_iterator_tag
FNDA:1416,_ZNSt7__cxx1112basic_stringIcSt11char_traitsIcESaIcEE12_M_constructIPKcEEvT_S8_St20forward_iterator_tag
FNDA:857,_ZNSt7__cxx1112basic_stringIcSt11char_traitsIcESaIcEE12_M_constructIPcEEvT_S7_St20forward_iterator_tag
FNDA:0,_ZNSt7__cxx1112basic_stringIwSt11char_traitsIwESaIwEE12_M_constructIPKwEEvT_S8_St20forward_iterator_tag
FNDA:0,_ZZNSt7__cxx1112basic_stringIcSt11char_traitsIcESaIcEE12_M_constructIN9__gnu_cxx17__normal_iteratorIPKcS4_EEEEvT_SB_St20forward_iterator_tagEN6_GuardC2EPS4_
FNDA:0,_ZZNSt7__cxx1112basic_stringIcSt11char_traitsIcESaIcEE12_M_constructIN9__gnu_cxx17__normal_iteratorIPcS4_EEEEvT_SA_St20forward_iterator_tagEN6_GuardC2EPS4_
FNDA:1416,_ZZNSt7__cxx1112basic_stringIcSt11char_traitsIcESaIcEE12_M_constructIPKcEEvT_S8_St20forward_iterator_tagEN6_GuardC2EPS4_
FNDA:857,_ZZNSt7__cxx1112basic_stringIcSt11char_traitsIcESaIcEE12_M_constructIPcEEvT_S7_St20forward_iterator_tagEN6_GuardC2EPS4_
FNDA:0,_ZZNSt7__cxx1112basic_stringIwSt11char_traitsIwESaIwEE12_M_constructIPKwEEvT_S8_St20forward_iterator_tagEN6_GuardC2EPS4_
FNDA:0,_ZZNSt7__cxx1112basic_stringIcSt11char_traitsIcESaIcEE12_M_constructIN9__gnu_cxx17__normal_iteratorIPKcS4_EEEEvT_SB_St20forward_iterator_tagEN6_GuardD2Ev
FNDA:0,_ZZNSt7__cxx1112basic_stringIcSt11char_traitsIcESaIcEE12_M_constructIN9__gnu_cxx17__normal_iteratorIPcS4_EEEEvT_SA_St20forward_iterator_tagEN6_GuardD2Ev
FNDA:1416,_ZZNSt7__cxx1112basic_stringIcSt11char_traitsIcESaIcEE12_M_constructIPKcEEvT_S8_St20forward_iterator_tagEN6_GuardD2Ev
FNDA:857,_ZZNSt7__cxx1112basic_stringIcSt11char_traitsIcESaIcEE12_M_constructIPcEEvT_S7_St20forward_iterator_tagEN6_GuardD2Ev
FNDA:0,_ZZNSt7__cxx1112basic_stringIwSt11char_traitsIwESaIwEE12_M_constructIPKwEEvT_S8_St20forward_iterator_tagEN6_GuardD2Ev
FNF:15
FNH:6
DA:221,2273
DA:225,2273
DA:227,2273
DA:229,902
DA:230,902
DA:239,2273
DA:242,2273
DA:245,2273
DA:247,2273
DA:249,2273
DA:251,2273
DA:252,2273
LF:12
LH:12
end_of_record
TN:
SF:/usr/include/c++/13/bits/char_traits.h
FN:136,137,_ZN9__gnu_cxx11char_traitsIcE2eqERKcS3_
FN:136,137,_ZN9__gnu_cxx11char_traitsIwE2eqERKwS3_
FN:199,206,_ZN9__gnu_cxx11char_traitsIcE6lengthEPKc
FN:199,206,_ZN9__gnu_cxx11char_traitsIwE6lengthEPKw
FN:210,217,_ZN9__gnu_cxx11char_traitsIcE4findEPKcmRS2_
FN:366,371,_ZNSt11char_traitsIcE2ltERKcS2_
FN:374,390,_ZNSt11char_traitsIcE7compareEPKcS2_m
FN:393,400,_ZNSt11char_traitsIcE6lengthEPKc
FN:403,412,_ZNSt11char_traitsIcE4findEPKcmRS1_
FN:427,436,_ZNSt11char_traitsIcE4copyEPcPKcm
FN:524,531,_ZNSt11char_traitsIwE6lengthEPKw
FNDA:0,_ZN9__gnu_cxx11char_traitsIcE2eqERKcS3_
FNDA:0,_ZN9__gnu_cxx11char_traitsIwE2eqERKwS3_
FNDA:0,_ZN9__gnu_cxx11char_traitsIcE6lengthEPKc
FNDA:0,_ZN9__gnu_cxx11char_traitsIwE6lengthEPKw
FNDA:0,_ZN9__gnu_cxx11char_traitsIcE4findEPKcmRS2_
FNDA:0,_ZNSt11char_traitsIcE2ltERKcS2_
FNDA:632,_ZNSt11char_traitsIcE7compareEPKcS2_m
FNDA:1001,_ZNSt11char_traitsIcE6lengthEPKc
FNDA:0,_ZNSt11char_traitsIcE4findEPKcmRS1_
FNDA:0,_ZNSt11char_traitsIcE4copyEPcPKcm
FNDA:0,_ZNSt11char_traitsIwE6lengthEPKw
FNF:11
FNH:2
DA:136,0
DA:137,0
DA:199,0
DA:202,0
DA:203,0
DA:204,0
DA:205,0
DA:210,0
DA:213,0
DA:214,0
DA:215,0
DA:216,0
DA:366,0
DA:369,0
DA:370,0
DA:374,632
DA:376,632
DA:377,8
DA:379,624
DA:381,0
DA:382,0
DA:383,0
DA:384,0
DA:385,0
DA:386,0
DA:389,624
DA:393,1001
DA:396,1001
DA:397,0
DA:399,1001
DA:403,0
DA:405,0
DA:406,0
DA:408,0
DA:409,0
DA:411,0
DA:427,0
DA:429,0
DA:430,0
DA:435,0
DA:524,0
DA:527,0
DA:528,0
DA:530,0
LF:44
LH:8
end_of_record
TN:
SF:/usr/include/c++/13/bits/charconv.h
FN:55,74,_ZNSt8__detail14__to_chars_lenIjEEjT_i
FN:55,74,_ZNSt8__detail14__to_chars_lenImEEjT_i
FN:81,110,_ZNSt8__detail18__to_chars_10_implIjEEvPcjT_
FN:81,110,_ZNSt8__detail18__to_chars_10_implImEEvPcjT_
FNDA:0,_ZNSt8__detail14__to_chars_lenIjEEjT_i
FNDA:0,_ZNSt8__detail14__to_chars_lenImEEjT_i
FNDA:0,_ZNSt8__detail18__to_chars_10_implIjEEvPcjT_
FNDA:0,_ZNSt8__detail18__to_chars_10_implImEEvPcjT_
FNF:4
FNH:0
DA:55,0
DA:61,0
DA:62,0
DA:63,0
DA:64,0
DA:67,0
DA:68,0
DA:69,0
DA:70,0
DA:71,0
DA:72,0
DA:81,0
DA:87,0
DA:93,0
DA:94,0
DA:96,0
DA:97,0
DA:98,0
DA:99,0
DA:100,0
DA:102,0
DA:104,0
DA:105,0
DA:106,0
DA:109,0
DA:110,0
LF:26
LH:0
end_of_record
TN:
SF:/usr/include/c++/13/bits/chrono.h
FN:1141,1143,_ZNSt6chronomiINS_3_V212steady_clockENS_8durationIlSt5ratioILl1ELl1000000000EEEES6_EENSt11common_typeIJT0_T1_EE4typeERKNS_10time_pointIT_S8_EERKNSC_ISD_S9_EE
FN:196,200,_ZNSt6chrono20__duration_cast_implINS_8durationIdSt5ratioILl1ELl1000000000EEEES2_ILl1ELl1EEdLb1ELb1EE6__castIlS3_EES4_RKNS1_IT_T0_EE
FN:196,200,_ZNSt6chrono20__duration_cast_implINS_8durationIlSt5ratioILl1ELl1000000000EEEES2_ILl1ELl1EEdLb1ELb1EE6__castIdS3_EES4_RKNS1_IT_T0_EE
FN:221,226,_ZNSt6chrono20__duration_cast_implINS_8durationIdSt5ratioILl1ELl1000000000EEEES2_ILl1000000000ELl1EEdLb0ELb1EE6__castIlS2_ILl1ELl1EEEES4_RKNS1_IT_T0_EE
FN:221,226,_ZNSt6chrono20__duration_cast_implINS_8durationIdSt5ratioILl1ELl1000000000EEEES2_ILl1000000ELl1EEdLb0ELb1EE6__castIlS2_ILl1ELl1000EEEES4_RKNS1_IT_T0_EE
FN:221,226,_ZNSt6chrono20__duration_cast_implINS_8durationIlSt5ratioILl1ELl1000000000EEEES2_ILl1000000ELl1EElLb0ELb1EE6__castIlS2_ILl1ELl1000EEEES4_RKNS1_IT_T0_EE
FN:273,291,_ZNSt6chrono13duration_castINS_8durationIdSt5ratioILl1ELl1000000000EEEElS2_ILl1ELl1000EEEENSt9enable_ifIXsrNS_13__is_durationIT_EE5valueES8_E4typeERKNS1_IT0_T1_EE
FN:273,291,_ZNSt6chrono13duration_castINS_8durationIdSt5ratioILl1ELl1000000000EEEElS2_ILl1ELl1EEEENSt9enable_ifIXsrNS_13__is_durationIT_EE5valueES8_E4typeERKNS1_IT0_T1_EE
FN:273,291,_ZNSt6chrono13duration_castINS_8durationIdSt5ratioILl1ELl1000000000EEEElS3_EENSt9enable_ifIXsrNS_13__is_durationIT_EE5valueES7_E4typeERKNS1_IT0_T1_EE
FN:273,291,_ZNSt6chrono13duration_castINS_8durationIlSt5ratioILl1ELl1000000000EEEEdS3_EENSt9enable_ifIXsrNS_13__is_durationIT_EE5valueES7_E4typeERKNS1_IT0_T1_EE
FN:273,291,_ZNSt6chrono13duration_castINS_8durationIlSt5ratioILl1ELl1000000000EEEElS2_ILl1ELl1000EEEENSt9enable_ifIXsrNS_13__is_durationIT_EE5valueES8_E4typeERKNS1_IT0_T1_EE
FN:273,291,_ZNSt6chrono13duration_castINS_8durationIlSt5ratioILl1ELl1000000000EEEElS3_EENSt9enable_ifIXsrNS_13__is_durationIT_EE5valueES7_E4typeERKNS1_IT0_T1_EE
FN:498,499,_ZNSt6chrono15duration_valuesIdE4zeroEv
FN:498,499,_ZNSt6chrono15duration_valuesIlE4zeroEv
FN:573,574,_ZNSt6chrono8durationIdSt5ratioILl1ELl1000000000EEEC1IdvEERKT_
FN:573,574,_ZNSt6chrono8durationIdSt5ratioILl1ELl1000000000EEEC2IdvEERKT_
FN:573,574,_ZNSt6chrono8durationIlSt5ratioILl1ELl1000000000EEEC1IlvEERKT_
FN:573,574,_ZNSt6chrono8durationIlSt5ratioILl1ELl1000EEEC2IlvEERKT_
FN:581,582,_ZNSt6chrono8durationIdSt5ratioILl1ELl1000000000EEEC2IlS1_ILl1ELl1EEvEERKNS0_IT_T0_EE
FN:581,582,_ZNSt6chrono8durationIdSt5ratioILl1ELl1000000000EEEC2IlS2_vEERKNS0_IT_T0_EE
FN:581,582,_ZNSt6chrono8durationIlSt5ratioILl1ELl1000000000EEEC2IlS1_ILl1ELl1000EEvEERKNS0_IT_T0_EE
FN:589,590,_ZNKSt6chrono8durationIdSt5ratioILl1ELl1000000000EEE5countEv
FN:589,590,_ZNKSt6chrono8durationIlSt5ratioILl1ELl1000000000EEE5countEv
FN:589,590,_ZNKSt6chrono8durationIlSt5ratioILl1ELl1000EEE5countEv
FN:589,590,_ZNKSt6chrono8durationIlSt5ratioILl1ELl1EEE5countEv
FN:625,629,_ZNSt6chrono8durationIdSt5ratioILl1ELl1000000000EEEpLERKS3_
FN:646,650,_ZNSt6chrono8durationIdSt5ratioILl1ELl1000000000EEEdVERKd
FN:673,674,_ZNSt6chrono8durationIdSt5ratioILl1ELl1000000000EEE4zeroEv
FN:673,674,_ZNSt6chrono8durationIlSt5ratioILl1ELl1000000000EEE4zeroEv
FN:710,717,_ZNSt6chronomiIlSt5ratioILl1ELl1000000000EEdS2_EENSt11common_typeIJNS_8durationIT_T0_EENS4_IT1_T2_EEEE4typeERKS7_RKSA_
FN:710,717,_ZNSt6chronomiIlSt5ratioILl1ELl1000000000EElS2_EENSt11common_typeIJNS_8durationIT_T0_EENS4_IT1_T2_EEEE4typeERKS7_RKSA_
FN:741,746,_ZNSt6chronomlIdSt5ratioILl1ELl1000000000EEiEENS_8durationINSt9enable_ifIXsrSt14is_convertibleIRKT1_NSt11common_typeIJT_S6_EE4typeEE5valueESC_E4typeET0_EERKNS3_ISA_SG_EES8_
FN:741,746,_ZNSt6chronomlIlSt5ratioILl1ELl1000000000EEiEENS_8durationINSt9enable_ifIXsrSt14is_convertibleIRKT1_NSt11common_typeIJT_S6_EE4typeEE5valueESC_E4typeET0_EERKNS3_ISA_SG_EES8_
FN:741,746,_ZNSt6chronomlIlSt5ratioILl1ELl1000000000EEjEENS_8durationINSt9enable_ifIXsrSt14is_convertibleIRKT1_NSt11common_typeIJT_S6_EE4typeEE5valueESC_E4typeET0_EERKNS3_ISA_SG_EES8_
FN:756,761,_ZNSt6chronodvIdSt5ratioILl1ELl1000000000EEiEENS_8durationINSt9enable_ifIXsrSt14is_convertibleIRKNS4_IXntsrNS_13__is_durationIT1_EE5valueES7_E4typeENSt11common_typeIJT_SA_EE4typeEE5valueESG_E4typeET0_EERKNS3_ISE_SK_EERKS7_
FN:756,761,_ZNSt6chronodvIlSt5ratioILl1ELl1000000000EEiEENS_8durationINSt9enable_ifIXsrSt14is_convertibleIRKNS4_IXntsrNS_13__is_durationIT1_EE5valueES7_E4typeENSt11common_typeIJT_SA_EE4typeEE5valueESG_E4typeET0_EERKNS3_ISE_SK_EERKS7_
FN:766,773,_ZNSt6chronodvIdSt5ratioILl1ELl1000000000EElS2_EENSt11common_typeIJT_T1_EE4typeERKNS_8durationIS4_T0_EERKNS8_IS5_T2_EE
FN:822,829,_ZNSt6chronoltIdSt5ratioILl1ELl1000000000EEdS2_EEbRKNS_8durationIT_T0_EERKNS3_IT1_T2_EE
FN:822,829,_ZNSt6chronoltIlSt5ratioILl1ELl1000000000EElS2_EEbRKNS_8durationIT_T0_EERKNS3_IT1_T2_EE
FN:869,871,_ZNSt6chronogeIlSt5ratioILl1ELl1000000000EElS2_EEbRKNS_8durationIT_T0_EERKNS3_IT1_T2_EE
FN:933,934,_ZNSt6chrono10time_pointINS_3_V212steady_clockENS_8durationIlSt5ratioILl1ELl1000000000EEEEEC2Ev
FN:949,950,_ZNKSt6chrono10time_pointINS_3_V212steady_clockENS_8durationIlSt5ratioILl1ELl1000000000EEEEE16time_since_epochEv
FNDA:0,_ZNSt6chronomiINS_3_V212steady_clockENS_8durationIlSt5ratioILl1ELl1000000000EEEES6_EENSt11common_typeIJT0_T1_EE4typeERKNS_10time_pointIT_S8_EERKNSC_ISD_S9_EE
FNDA:0,_ZNSt6chrono20__duration_cast_implINS_8durationIdSt5ratioILl1ELl1000000000EEEES2_ILl1ELl1EEdLb1ELb1EE6__castIlS3_EES4_RKNS1_IT_T0_EE
FNDA:0,_ZNSt6chrono20__duration_cast_implINS_8durationIlSt5ratioILl1ELl1000000000EEEES2_ILl1ELl1EEdLb1ELb1EE6__castIdS3_EES4_RKNS1_IT_T0_EE
FNDA:0,_ZNSt6chrono20__duration_cast_implINS_8durationIdSt5ratioILl1ELl1000000000EEEES2_ILl1000000000ELl1EEdLb0ELb1EE6__castIlS2_ILl1ELl1EEEES4_RKNS1_IT_T0_EE
FNDA:0,_ZNSt6chrono20__duration_cast_implINS_8durationIdSt5ratioILl1ELl1000000000EEEES2_ILl1000000ELl1EEdLb0ELb1EE6__castIlS2_ILl1ELl1000EEEES4_RKNS1_IT_T0_EE
FNDA:0,_ZNSt6chrono20__duration_cast_implINS_8durationIlSt5ratioILl1ELl1000000000EEEES2_ILl1000000ELl1EElLb0ELb1EE6__castIlS2_ILl1ELl1000EEEES4_RKNS1_IT_T0_EE
FNDA:0,_ZNSt6chrono13duration_castINS_8durationIdSt5ratioILl1ELl1000000000EEEElS2_ILl1ELl1000EEEENSt9enable_ifIXsrNS_13__is_durationIT_EE5valueES8_E4typeERKNS1_IT0_T1_EE
FNDA:0,_ZNSt6chrono13duration_castINS_8durationIdSt5ratioILl1ELl1000000000EEEElS2_ILl1ELl1EEEENSt9enable_ifIXsrNS_13__is_durationIT_EE5valueES8_E4typeERKNS1_IT0_T1_EE
FNDA:0,_ZNSt6chrono13duration_castINS_8durationIdSt5ratioILl1ELl1000000000EEEElS3_EENSt9enable_ifIXsrNS_13__is_durationIT_EE5valueES7_E4typeERKNS1_IT0_T1_EE
FNDA:0,_ZNSt6chrono13duration_castINS_8durationIlSt5ratioILl1ELl1000000000EEEEdS3_EENSt9enable_ifIXsrNS_13__is_durationIT_EE5valueES7_E4typeERKNS1_IT0_T1_EE
FNDA:0,_ZNSt6chrono13duration_castINS_8durationIlSt5ratioILl1ELl1000000000EEEElS2_ILl1ELl1000EEEENSt9enable_ifIXsrNS_13__is_durationIT_EE5valueES8_E4typeERKNS1_IT0_T1_EE
FNDA:478,_ZNSt6chrono13duration_castINS_8durationIlSt5ratioILl1ELl1000000000EEEElS3_EENSt9enable_ifIXsrNS_13__is_durationIT_EE5valueES7_E4typeERKNS1_IT0_T1_EE
FNDA:0,_ZNSt6chrono15duration_valuesIdE4zeroEv
FNDA:0,_ZNSt6chrono15duration_valuesIlE4zeroEv
FNDA:0,_ZNSt6chrono8durationIdSt5ratioILl1ELl1000000000EEEC1IdvEERKT_
FNDA:0,_ZNSt6chrono8durationIdSt5ratioILl1ELl1000000000EEEC2IdvEERKT_
FNDA:0,_ZNSt6chrono8durationIlSt5ratioILl1ELl1000000000EEEC1IlvEERKT_
FNDA:0,_ZNSt6chrono8durationIlSt5ratioILl1ELl1000EEEC2IlvEERKT_
FNDA:0,_ZNSt6chrono8durationIdSt5ratioILl1ELl1000000000EEEC2IlS1_ILl1ELl1EEvEERKNS0_IT_T0_EE
FNDA:0,_ZNSt6chrono8durationIdSt5ratioILl1ELl1000000000EEEC2IlS2_vEERKNS0_IT_T0_EE
FNDA:0,_ZNSt6chrono8durationIlSt5ratioILl1ELl1000000000EEEC2IlS1_ILl1ELl1000EEvEERKNS0_IT_T0_EE
FNDA:0,_ZNKSt6chrono8durationIdSt5ratioILl1ELl1000000000EEE5countEv
FNDA:478,_ZNKSt6chrono8durationIlSt5ratioILl1ELl1000000000EEE5countEv
FNDA:0,_ZNKSt6chrono8durationIlSt5ratioILl1ELl1000EEE5countEv
FNDA:0,_ZNKSt6chrono8durationIlSt5ratioILl1ELl1EEE5countEv
FNDA:0,_ZNSt6chrono8durationIdSt5ratioILl1ELl1000000000EEEpLERKS3_
FNDA:0,_ZNSt6chrono8durationIdSt5ratioILl1ELl1000000000EEEdVERKd
FNDA:0,_ZNSt6chrono8durationIdSt5ratioILl1ELl1000000000EEE4zeroEv
FNDA:0,_ZNSt6chrono8durationIlSt5ratioILl1ELl1000000000EEE4zeroEv
FNDA:0,_ZNSt6chronomiIlSt5ratioILl1ELl1000000000EEdS2_EENSt11common_typeIJNS_8durationIT_T0_EENS4_IT1_T2_EEEE4typeERKS7_RKSA_
FNDA:0,_ZNSt6chronomiIlSt5ratioILl1ELl1000000000EElS2_EENSt11common_typeIJNS_8durationIT_T0_EENS4_IT1_T2_EEEE4typeERKS7_RKSA_
FNDA:0,_ZNSt6chronomlIdSt5ratioILl1ELl1000000000EEiEENS_8durationINSt9enable_ifIXsrSt14is_convertibleIRKT1_NSt11common_typeIJT_S6_EE4typeEE5valueESC_E4typeET0_EERKNS3_ISA_SG_EES8_
FNDA:0,_ZNSt6chronomlIlSt5ratioILl1ELl1000000000EEiEENS_8durationINSt9enable_ifIXsrSt14is_convertibleIRKT1_NSt11common_typeIJT_S6_EE4typeEE5valueESC_E4typeET0_EERKNS3_ISA_SG_EES8_
FNDA:0,_ZNSt6chronomlIlSt5ratioILl1ELl1000000000EEjEENS_8durationINSt9enable_ifIXsrSt14is_convertibleIRKT1_NSt11common_typeIJT_S6_EE4typeEE5valueESC_E4typeET0_EERKNS3_ISA_SG_EES8_
FNDA:0,_ZNSt6chronodvIdSt5ratioILl1ELl1000000000EEiEENS_8durationINSt9enable_ifIXsrSt14is_convertibleIRKNS4_IXntsrNS_13__is_durationIT1_EE5valueES7_E4typeENSt11common_typeIJT_SA_EE4typeEE5valueESG_E4typeET0_EERKNS3_ISE_SK_EERKS7_
FNDA:0,_ZNSt6chronodvIlSt5ratioILl1ELl1000000000EEiEENS_8durationINSt9enable_ifIXsrSt14is_convertibleIRKNS4_IXntsrNS_13__is_durationIT1_EE5valueES7_E4typeENSt11common_typeIJT_SA_EE4typeEE5valueESG_E4typeET0_EERKNS3_ISE_SK_EERKS7_
FNDA:0,_ZNSt6chronodvIdSt5ratioILl1ELl1000000000EElS2_EENSt11common_typeIJT_T1_EE4typeERKNS_8durationIS4_T0_EERKNS8_IS5_T2_EE
FNDA:0,_ZNSt6chronoltIdSt5ratioILl1ELl1000000000EEdS2_EEbRKNS_8durationIT_T0_EERKNS3_IT1_T2_EE
FNDA:0,_ZNSt6chronoltIlSt5ratioILl1ELl1000000000EElS2_EEbRKNS_8durationIT_T0_EERKNS3_IT1_T2_EE
FNDA:0,_ZNSt6chronogeIlSt5ratioILl1ELl1000000000EElS2_EEbRKNS_8durationIT_T0_EERKNS3_IT1_T2_EE
FNDA:0,_ZNSt6chrono10time_pointINS_3_V212steady_clockENS_8durationIlSt5ratioILl1ELl1000000000EEEEEC2Ev
FNDA:478,_ZNKSt6chrono10time_pointINS_3_V212steady_clockENS_8durationIlSt5ratioILl1ELl1000000000EEEEE16time_since_epochEv
FNF:42
FNH:3
DA:196,0
DA:199,0
DA:221,0
DA:224,0
DA:225,0
DA:273,478
DA:277,478
DA:287,0
DA:498,0
DA:499,0
DA:573,0
DA:574,0
DA:581,0
DA:582,0
DA:589,478
DA:590,478
DA:625,0
DA:627,0
DA:628,0
DA:646,0
DA:648,0
DA:649,0
DA:673,0
DA:674,0
DA:710,0
DA:716,0
DA:741,0
DA:745,0
DA:756,0
DA:760,0
DA:766,0
DA:772,0
DA:822,0
DA:828,0
DA:869,0
DA:871,0
DA:933,0
DA:934,0
DA:949,478
DA:950,478
DA:1141,0
DA:1143,0
LF:42
LH:6
end_of_record
TN:
SF:/usr/include/c++/13/bits/cpp_type_traits.h
FN:607,608,_ZSt12__miter_baseIN9__gnu_cxx17__normal_iteratorIPKN5Catch12ReporterSpecESt6vectorIS3_SaIS3_EEEEET_SA_
FN:607,608,_ZSt12__miter_baseIN9__gnu_cxx17__normal_iteratorIPKN5Catch5Clara3ArgESt6vectorIS4_SaIS4_EEEEET_SB_
FN:607,608,_ZSt12__miter_baseIN9__gnu_cxx17__normal_iteratorIPKN5Catch5Clara3OptESt6vectorIS4_SaIS4_EEEEET_SB_
FN:607,608,_ZSt12__miter_baseIN9__gnu_cxx17__normal_iteratorIPKN5Catch9StringRefESt6vectorIS3_SaIS3_EEEEET_SA_
FN:607,608,_ZSt12__miter_baseIN9__gnu_cxx17__normal_iteratorIPKNSt6chrono8durationIdSt5ratioILl1ELl1000000000EEEESt6vectorIS6_SaIS6_EEEEET_SD_
FN:607,608,_ZSt12__miter_baseIN9__gnu_cxx17__normal_iteratorIPKNSt7__cxx1112basic_stringIcSt11char_traitsIcESaIcEEESt6vectorIS7_SaIS7_EEEEET_SE_
FN:607,608,_ZSt12__miter_baseIN9__gnu_cxx17__normal_iteratorIPKNSt7__cxx119sub_matchINS1_IPKcNS2_12basic_stringIcSt11char_traitsIcESaIcEEEEEEESt6vectorISC_SaISC_EEEEET_SJ_
FN:607,608,_ZSt12__miter_baseIN9__gnu_cxx17__normal_iteratorIPKPKN5Catch14TestCaseHandleESt6vectorIS5_SaIS5_EEEEET_SC_
FN:607,608,_ZSt12__miter_baseIN9__gnu_cxx17__normal_iteratorIPKcSt6vectorIcSaIcEEEEET_S8_
FN:607,608,_ZSt12__miter_baseIN9__gnu_cxx17__normal_iteratorIPN5Catch11MessageInfoESt6vectorIS3_SaIS3_EEEEET_S9_
FN:607,608,_ZSt12__miter_baseIN9__gnu_cxx17__normal_iteratorIPN5Catch14TestCaseHandleESt6vectorIS3_SaIS3_EEEEET_S9_
FN:607,608,_ZSt12__miter_baseIN9__gnu_cxx17__normal_iteratorIPN5Catch3TagESt6vectorIS3_SaIS3_EEEEET_S9_
FN:607,608,_ZSt12__miter_baseIN9__gnu_cxx17__normal_iteratorIPN5Catch5Clara6Detail5TokenESt6vectorIS5_SaIS5_EEEEET_SB_
FN:607,608,_ZSt12__miter_baseIN9__gnu_cxx17__normal_iteratorIPNSt7__cxx1112basic_stringIcSt11char_traitsIcESaIcEEESt6vectorIS7_SaIS7_EEEEET_SD_
FN:607,608,_ZSt12__miter_baseIN9__gnu_cxx17__normal_iteratorIPSt4pairImN5Catch14TestCaseHandleEESt6vectorIS5_SaIS5_EEEEET_SB_
FN:607,608,_ZSt12__miter_baseIN9__gnu_cxx17__normal_iteratorIPcSt6vectorIcSaIcEEEEET_S7_
FN:607,608,_ZSt12__miter_baseIN9__gnu_cxx17__normal_iteratorIPdSt6vectorIdSaIdEEEEET_S7_
FN:607,608,_ZSt12__miter_baseIPKcET_S2_
FN:607,608,_ZSt12__miter_baseIPKdET_S2_
FN:607,608,_ZSt12__miter_baseIPN5Catch12ReporterSpecEET_S3_
FN:607,608,_ZSt12__miter_baseIPN5Catch5Clara3ArgEET_S4_
FN:607,608,_ZSt12__miter_baseIPN5Catch5Clara3OptEET_S4_
FN:607,608,_ZSt12__miter_baseIPN5Catch6Detail10unique_ptrINS0_14IEventListenerEEEET_S6_
FN:607,608,_ZSt12__miter_baseIPN5Catch9StringRefEET_S3_
FN:607,608,_ZSt12__miter_baseIPNSt7__cxx1112basic_stringIcSt11char_traitsIcESaIcEEEET_S7_
FN:607,608,_ZSt12__miter_baseIPNSt7__cxx119sub_matchIN9__gnu_cxx17__normal_iteratorIPKcNS0_12basic_stringIcSt11char_traitsIcESaIcEEEEEEEET_SE_
FN:607,608,_ZSt12__miter_baseIPPN5Catch12JsonReporter6WriterEET_S5_
FN:607,608,_ZSt12__miter_baseIPPN5Catch15JsonArrayWriterEET_S4_
FN:607,608,_ZSt12__miter_baseIPPN5Catch16JsonObjectWriterEET_S4_
FN:607,608,_ZSt12__miter_baseIPPNSt8__detail9_StateSeqINSt7__cxx1112regex_traitsIcEEEEET_S8_
FN:607,608,_ZSt12__miter_baseIPPcET_S2_
FN:607,608,_ZSt12__miter_baseIPPlET_S2_
FN:607,608,_ZSt12__miter_baseIPcET_S1_
FN:607,608,_ZSt12__miter_baseIPdET_S1_
FNDA:0,_ZSt12__miter_baseIN9__gnu_cxx17__normal_iteratorIPKN5Catch12ReporterSpecESt6vectorIS3_SaIS3_EEEEET_SA_
FNDA:0,_ZSt12__miter_baseIN9__gnu_cxx17__normal_iteratorIPKN5Catch5Clara3ArgESt6vectorIS4_SaIS4_EEEEET_SB_
FNDA:0,_ZSt12__miter_baseIN9__gnu_cxx17__normal_iteratorIPKN5Catch5Clara3OptESt6vectorIS4_SaIS4_EEEEET_SB_
FNDA:0,_ZSt12__miter_baseIN9__gnu_cxx17__normal_iteratorIPKN5Catch9StringRefESt6vectorIS3_SaIS3_EEEEET_SA_
FNDA:0,_ZSt12__miter_baseIN9__gnu_cxx17__normal_iteratorIPKNSt6chrono8durationIdSt5ratioILl1ELl1000000000EEEESt6vectorIS6_SaIS6_EEEEET_SD_
FNDA:0,_ZSt12__miter_baseIN9__gnu_cxx17__normal_iteratorIPKNSt7__cxx1112basic_stringIcSt11char_traitsIcESaIcEEESt6vectorIS7_SaIS7_EEEEET_SE_
FNDA:0,_ZSt12__miter_baseIN9__gnu_cxx17__normal_iteratorIPKNSt7__cxx119sub_matchINS1_IPKcNS2_12basic_stringIcSt11char_traitsIcESaIcEEEEEEESt6vectorISC_SaISC_EEEEET_SJ_
FNDA:0,_ZSt12__miter_baseIN9__gnu_cxx17__normal_iteratorIPKPKN5Catch14TestCaseHandleESt6vectorIS5_SaIS5_EEEEET_SC_
FNDA:0,_ZSt12__miter_baseIN9__gnu_cxx17__normal_iteratorIPKcSt6vectorIcSaIcEEEEET_S8_
FNDA:0,_ZSt12__miter_baseIN9__gnu_cxx17__normal_iteratorIPN5Catch11MessageInfoESt6vectorIS3_SaIS3_EEEEET_S9_
FNDA:0,_ZSt12__miter_baseIN9__gnu_cxx17__normal_iteratorIPN5Catch14TestCaseHandleESt6vectorIS3_SaIS3_EEEEET_S9_
FNDA:0,_ZSt12__miter_baseIN9__gnu_cxx17__normal_iteratorIPN5Catch3TagESt6vectorIS3_SaIS3_EEEEET_S9_
FNDA:0,_ZSt12__miter_baseIN9__gnu_cxx17__normal_iteratorIPN5Catch5Clara6Detail5TokenESt6vectorIS5_SaIS5_EEEEET_SB_
FNDA:0,_ZSt12__miter_baseIN9__gnu_cxx17__normal_iteratorIPNSt7__cxx1112basic_stringIcSt11char_traitsIcESaIcEEESt6vectorIS7_SaIS7_EEEEET_SD_
FNDA:8,_ZSt12__miter_baseIN9__gnu_cxx17__normal_iteratorIPSt4pairImN5Catch14TestCaseHandleEESt6vectorIS5_SaIS5_EEEEET_SB_
FNDA:0,_ZSt12__miter_baseIN9__gnu_cxx17__normal_iteratorIPcSt6vectorIcSaIcEEEEET_S7_
FNDA:0,_ZSt12__miter_baseIN9__gnu_cxx17__normal_iteratorIPdSt6vectorIdSaIdEEEEET_S7_
FNDA:0,_ZSt12__miter_baseIPKcET_S2_
FNDA:0,_ZSt12__miter_baseIPKdET_S2_
FNDA:0,_ZSt12__miter_baseIPN5Catch12ReporterSpecEET_S3_
FNDA:0,_ZSt12__miter_baseIPN5Catch5Clara3ArgEET_S4_
FNDA:0,_ZSt12__miter_baseIPN5Catch5Clara3OptEET_S4_
FNDA:0,_ZSt12__miter_baseIPN5Catch6Detail10unique_ptrINS0_14IEventListenerEEEET_S6_
FNDA:0,_ZSt12__miter_baseIPN5Catch9StringRefEET_S3_
FNDA:0,_ZSt12__miter_baseIPNSt7__cxx1112basic_stringIcSt11char_traitsIcESaIcEEEET_S7_
FNDA:0,_ZSt12__miter_baseIPNSt7__cxx119sub_matchIN9__gnu_cxx17__normal_iteratorIPKcNS0_12basic_stringIcSt11char_traitsIcESaIcEEEEEEEET_SE_
FNDA:0,_ZSt12__miter_baseIPPN5Catch12JsonReporter6WriterEET_S5_
FNDA:0,_ZSt12__miter_baseIPPN5Catch15JsonArrayWriterEET_S4_
FNDA:0,_ZSt12__miter_baseIPPN5Catch16JsonObjectWriterEET_S4_
FNDA:0,_ZSt12__miter_baseIPPNSt8__detail9_StateSeqINSt7__cxx1112regex_traitsIcEEEEET_S8_
FNDA:0,_ZSt12__miter_baseIPPcET_S2_
FNDA:0,_ZSt12__miter_baseIPPlET_S2_
FNDA:0,_ZSt12__miter_baseIPcET_S1_
FNDA:0,_ZSt12__miter_baseIPdET_S1_
FNF:34
FNH:1
DA:607,8
DA:608,8
LF:2
LH:2
end_of_record
TN:
SF:/usr/include/c++/13/bits/deque.tcc
FN:164,180,_ZNSt5dequeIN5Catch12JsonReporter6WriterESaIS2_EE12emplace_backIJS2_EEERS2_DpOT_
FN:164,180,_ZNSt5dequeIN5Catch15JsonArrayWriterESaIS1_EE12emplace_backIJS1_EEERS1_DpOT_
FN:164,180,_ZNSt5dequeIN5Catch16JsonObjectWriterESaIS1_EE12emplace_backIJRSoEEERS1_DpOT_
FN:164,180,_ZNSt5dequeIN5Catch16JsonObjectWriterESaIS1_EE12emplace_backIJS1_EEERS1_DpOT_
FN:164,180,_ZNSt5dequeINSt8__detail9_StateSeqINSt7__cxx1112regex_traitsIcEEEESaIS5_EE12emplace_backIJS5_EEERS5_DpOT_
FN:484,516,_ZNSt5dequeIN5Catch12JsonReporter6WriterESaIS2_EE16_M_push_back_auxIJS2_EEEvDpOT_
FN:484,516,_ZNSt5dequeIN5Catch15JsonArrayWriterESaIS1_EE16_M_push_back_auxIJS1_EEEvDpOT_
FN:484,516,_ZNSt5dequeIN5Catch16JsonObjectWriterESaIS1_EE16_M_push_back_auxIJRSoEEEvDpOT_
FN:484,516,_ZNSt5dequeIN5Catch16JsonObjectWriterESaIS1_EE16_M_push_back_auxIJS1_EEEvDpOT_
FN:484,516,_ZNSt5dequeINSt8__detail9_StateSeqINSt7__cxx1112regex_traitsIcEEEESaIS5_EE16_M_push_back_auxIJRKS5_EEEvDpOT_
FN:484,516,_ZNSt5dequeINSt8__detail9_StateSeqINSt7__cxx1112regex_traitsIcEEEESaIS5_EE16_M_push_back_auxIJS5_EEEvDpOT_
FN:484,516,_ZNSt5dequeIcSaIcEE16_M_push_back_auxIJRKcEEEvDpOT_
FN:484,516,_ZNSt5dequeIlSaIlEE16_M_push_back_auxIJRKlEEEvDpOT_
FN:560,568,_ZNSt5dequeIN5Catch12JsonReporter6WriterESaIS2_EE15_M_pop_back_auxEv
FN:560,568,_ZNSt5dequeIN5Catch15JsonArrayWriterESaIS1_EE15_M_pop_back_auxEv
FN:560,568,_ZNSt5dequeIN5Catch16JsonObjectWriterESaIS1_EE15_M_pop_back_auxEv
FN:560,568,_ZNSt5dequeINSt8__detail9_StateSeqINSt7__cxx1112regex_traitsIcEEEESaIS5_EE15_M_pop_back_auxEv
FN:560,568,_ZNSt5dequeIcSaIcEE15_M_pop_back_auxEv
FN:560,568,_ZNSt5dequeIlSaIlEE15_M_pop_back_auxEv
FN:859,877,_ZNSt5dequeIN5Catch15JsonArrayWriterESaIS1_EE19_M_destroy_data_auxESt15_Deque_iteratorIS1_RS1_PS1_ES7_
FN:859,877,_ZNSt5dequeIN5Catch16JsonObjectWriterESaIS1_EE19_M_destroy_data_auxESt15_Deque_iteratorIS1_RS1_PS1_ES7_
FN:931,973,_ZNSt5dequeIN5Catch12JsonReporter6WriterESaIS2_EE17_M_reallocate_mapEmb
FN:931,973,_ZNSt5dequeIN5Catch15JsonArrayWriterESaIS1_EE17_M_reallocate_mapEmb
FN:931,973,_ZNSt5dequeIN5Catch16JsonObjectWriterESaIS1_EE17_M_reallocate_mapEmb
FN:931,973,_ZNSt5dequeINSt8__detail9_StateSeqINSt7__cxx1112regex_traitsIcEEEESaIS5_EE17_M_reallocate_mapEmb
FN:931,973,_ZNSt5dequeIcSaIcEE17_M_reallocate_mapEmb
FN:931,973,_ZNSt5dequeIlSaIlEE17_M_reallocate_mapEmb
FNDA:0,_ZNSt5dequeIN5Catch12JsonReporter6WriterESaIS2_EE12emplace_backIJS2_EEERS2_DpOT_
FNDA:0,_ZNSt5dequeIN5Catch15JsonArrayWriterESaIS1_EE12emplace_backIJS1_EEERS1_DpOT_
FNDA:0,_ZNSt5dequeIN5Catch16JsonObjectWriterESaIS1_EE12emplace_backIJRSoEEERS1_DpOT_
FNDA:0,_ZNSt5dequeIN5Catch16JsonObjectWriterESaIS1_EE12emplace_backIJS1_EEERS1_DpOT_
FNDA:0,_ZNSt5dequeINSt8__detail9_StateSeqINSt7__cxx1112regex_traitsIcEEEESaIS5_EE12emplace_backIJS5_EEERS5_DpOT_
FNDA:0,_ZNSt5dequeIN5Catch12JsonReporter6WriterESaIS2_EE16_M_push_back_auxIJS2_EEEvDpOT_
FNDA:0,_ZNSt5dequeIN5Catch15JsonArrayWriterESaIS1_EE16_M_push_back_auxIJS1_EEEvDpOT_
FNDA:0,_ZNSt5dequeIN5Catch16JsonObjectWriterESaIS1_EE16_M_push_back_auxIJRSoEEEvDpOT_
FNDA:0,_ZNSt5dequeIN5Catch16JsonObjectWriterESaIS1_EE16_M_push_back_auxIJS1_EEEvDpOT_
FNDA:0,_ZNSt5dequeINSt8__detail9_StateSeqINSt7__cxx1112regex_traitsIcEEEESaIS5_EE16_M_push_back_auxIJRKS5_EEEvDpOT_
FNDA:0,_ZNSt5dequeINSt8__detail9_StateSeqINSt7__cxx1112regex_traitsIcEEEESaIS5_EE16_M_push_back_auxIJS5_EEEvDpOT_
FNDA:0,_ZNSt5dequeIcSaIcEE16_M_push_back_auxIJRKcEEEvDpOT_
FNDA:0,_ZNSt5dequeIlSaIlEE16_M_push_back_auxIJRKlEEEvDpOT_
FNDA:0,_ZNSt5dequeIN5Catch12JsonReporter6WriterESaIS2_EE15_M_pop_back_auxEv
FNDA:0,_ZNSt5dequeIN5Catch15JsonArrayWriterESaIS1_EE15_M_pop_back_auxEv
FNDA:0,_ZNSt5dequeIN5Catch16JsonObjectWriterESaIS1_EE15_M_pop_back_auxEv
FNDA:0,_ZNSt5dequeINSt8__detail9_StateSeqINSt7__cxx1112regex_traitsIcEEEESaIS5_EE15_M_pop_back_auxEv
FNDA:0,_ZNSt5dequeIcSaIcEE15_M_pop_back_auxEv
FNDA:0,_ZNSt5dequeIlSaIlEE15_M_pop_back_auxEv
FNDA:0,_ZNSt5dequeIN5Catch15JsonArrayWriterESaIS1_EE19_M_destroy_data_auxESt15_Deque_iteratorIS1_RS1_PS1_ES7_
FNDA:0,_ZNSt5dequeIN5Catch16JsonObjectWriterESaIS1_EE19_M_destroy_data_auxESt15_Deque_iteratorIS1_RS1_PS1_ES7_
FNDA:0,_ZNSt5dequeIN5Catch12JsonReporter6WriterESaIS2_EE17_M_reallocate_mapEmb
FNDA:0,_ZNSt5dequeIN5Catch15JsonArrayWriterESaIS1_EE17_M_reallocate_mapEmb
FNDA:0,_ZNSt5dequeIN5Catch16JsonObjectWriterESaIS1_EE17_M_reallocate_mapEmb
FNDA:0,_ZNSt5dequeINSt8__detail9_StateSeqINSt7__cxx1112regex_traitsIcEEEESaIS5_EE17_M_reallocate_mapEmb
FNDA:0,_ZNSt5dequeIcSaIcEE17_M_reallocate_mapEmb
FNDA:0,_ZNSt5dequeIlSaIlEE17_M_reallocate_mapEmb
FNF:27
FNH:0
DA:164,0
DA:167,0
DA:168,0
DA:170,0
DA:173,0
DA:176,0
DA:178,0
DA:484,0
DA:492,0
DA:493,0
DA:496,0
DA:497,0
DA:501,0
DA:507,0
DA:509,0
DA:511,0
DA:513,0
DA:514,0
DA:516,0
DA:560,0
DA:563,0
DA:564,0
DA:565,0
DA:566,0
DA:568,0
DA:859,0
DA:862,0
DA:863,0
DA:864,0
DA:865,0
DA:867,0
DA:869,0
DA:870,0
DA:871,0
DA:872,0
DA:875,0
DA:876,0
DA:877,0
DA:931,0
DA:934,0
DA:935,0
DA:936,0
DA:939,0
DA:941,0
DA:942,0
DA:943,0
DA:944,0
DA:945,0
DA:946,0
DA:949,0
DA:950,0
DA:951,0
DA:955,0
DA:956,0
DA:959,0
DA:960,0
DA:961,0
DA:962,0
DA:963,0
DA:965,0
DA:967,0
DA:968,0
DA:971,0
DA:972,0
DA:973,0
LF:65
LH:0
end_of_record
TN:
SF:/usr/include/c++/13/bits/exception.h
FN:62,62,_ZNSt9exceptionC2Ev
FN:65,65,_ZNSt9exceptionC2ERKS_
FNDA:0,_ZNSt9exceptionC2Ev
FNDA:0,_ZNSt9exceptionC2ERKS_
FNF:2
FNH:0
DA:62,0
DA:65,0
LF:2
LH:0
end_of_record
TN:
SF:/usr/include/c++/13/bits/exception_ptr.h
FN:119,121,_ZNSt15__exception_ptr13exception_ptrC2EDn
FN:123,125,_ZNSt15__exception_ptr13exception_ptrC2EOS0_
FN:172,174,_ZNSt15__exception_ptreqERKNS_13exception_ptrES2_
FN:195,201,_ZNSt15__exception_ptr13exception_ptrC2ERKS0_
FN:205,209,_ZNSt15__exception_ptr13exception_ptrD2Ev
FNDA:0,_ZNSt15__exception_ptr13exception_ptrC2EDn
FNDA:0,_ZNSt15__exception_ptr13exception_ptrC2EOS0_
FNDA:0,_ZNSt15__exception_ptreqERKNS_13exception_ptrES2_
FNDA:0,_ZNSt15__exception_ptr13exception_ptrC2ERKS0_
FNDA:0,_ZNSt15__exception_ptr13exception_ptrD2Ev
FNF:5
FNH:0
DA:119,0
DA:120,0
DA:121,0
DA:123,0
DA:124,0
DA:125,0
DA:172,0
DA:174,0
DA:195,0
DA:196,0
DA:197,0
DA:199,0
DA:200,0
DA:201,0
DA:205,0
DA:207,0
DA:208,0
DA:209,0
LF:18
LH:0
end_of_record
TN:
SF:/usr/include/c++/13/bits/invoke.h
FN:104,117,_ZSt10__invoke_rIbRNSt8__detail11_AnyMatcherINSt7__cxx1112regex_traitsIcEELb0ELb0ELb0EEEJcEENSt9enable_ifIX16is_invocable_r_vIT_T0_DpT1_EES8_E4typeEOS9_DpOSA_
FN:104,117,_ZSt10__invoke_rIbRNSt8__detail11_AnyMatcherINSt7__cxx1112regex_traitsIcEELb0ELb0ELb1EEEJcEENSt9enable_ifIX16is_invocable_r_vIT_T0_DpT1_EES8_E4typeEOS9_DpOSA_
FN:104,117,_ZSt10__invoke_rIbRNSt8__detail11_AnyMatcherINSt7__cxx1112regex_traitsIcEELb0ELb1ELb0EEEJcEENSt9enable_ifIX16is_invocable_r_vIT_T0_DpT1_EES8_E4typeEOS9_DpOSA_
FN:104,117,_ZSt10__invoke_rIbRNSt8__detail11_AnyMatcherINSt7__cxx1112regex_traitsIcEELb0ELb1ELb1EEEJcEENSt9enable_ifIX16is_invocable_r_vIT_T0_DpT1_EES8_E4typeEOS9_DpOSA_
FN:104,117,_ZSt10__invoke_rIbRNSt8__detail11_AnyMatcherINSt7__cxx1112regex_traitsIcEELb1ELb0ELb0EEEJcEENSt9enable_ifIX16is_invocable_r_vIT_T0_DpT1_EES8_E4typeEOS9_DpOSA_
FN:104,117,_ZSt10__invoke_rIbRNSt8__detail11_AnyMatcherINSt7__cxx1112regex_traitsIcEELb1ELb0ELb1EEEJcEENSt9enable_ifIX16is_invocable_r_vIT_T0_DpT1_EES8_E4typeEOS9_DpOSA_
FN:104,117,_ZSt10__invoke_rIbRNSt8__detail11_AnyMatcherINSt7__cxx1112regex_traitsIcEELb1ELb1ELb0EEEJcEENSt9enable_ifIX16is_invocable_r_vIT_T0_DpT1_EES8_E4typeEOS9_DpOSA_
FN:104,117,_ZSt10__invoke_rIbRNSt8__detail11_AnyMatcherINSt7__cxx1112regex_traitsIcEELb1ELb1ELb1EEEJcEENSt9enable_ifIX16is_invocable_r_vIT_T0_DpT1_EES8_E4typeEOS9_DpOSA_
FN:104,117,_ZSt10__invoke_rIbRNSt8__detail12_CharMatcherINSt7__cxx1112regex_traitsIcEELb0ELb0EEEJcEENSt9enable_ifIX16is_invocable_r_vIT_T0_DpT1_EES8_E4typeEOS9_DpOSA_
FN:104,117,_ZSt10__invoke_rIbRNSt8__detail12_CharMatcherINSt7__cxx1112regex_traitsIcEELb0ELb1EEEJcEENSt9enable_ifIX16is_invocable_r_vIT_T0_DpT1_EES8_E4typeEOS9_DpOSA_
FN:104,117,_ZSt10__invoke_rIbRNSt8__detail12_CharMatcherINSt7__cxx1112regex_traitsIcEELb1ELb0EEEJcEENSt9enable_ifIX16is_invocable_r_vIT_T0_DpT1_EES8_E4typeEOS9_DpOSA_
FN:104,117,_ZSt10__invoke_rIbRNSt8__detail12_CharMatcherINSt7__cxx1112regex_traitsIcEELb1ELb1EEEJcEENSt9enable_ifIX16is_invocable_r_vIT_T0_DpT1_EES8_E4typeEOS9_DpOSA_
FN:104,117,_ZSt10__invoke_rIbRNSt8__detail15_BracketMatcherINSt7__cxx1112regex_traitsIcEELb0ELb0EEEJcEENSt9enable_ifIX16is_invocable_r_vIT_T0_DpT1_EES8_E4typeEOS9_DpOSA_
FN:104,117,_ZSt10__invoke_rIbRNSt8__detail15_BracketMatcherINSt7__cxx1112regex_traitsIcEELb0ELb1EEEJcEENSt9enable_ifIX16is_invocable_r_vIT_T0_DpT1_EES8_E4typeEOS9_DpOSA_
FN:104,117,_ZSt10__invoke_rIbRNSt8__detail15_BracketMatcherINSt7__cxx1112regex_traitsIcEELb1ELb0EEEJcEENSt9enable_ifIX16is_invocable_r_vIT_T0_DpT1_EES8_E4typeEOS9_DpOSA_
FN:104,117,_ZSt10__invoke_rIbRNSt8__detail15_BracketMatcherINSt7__cxx1112regex_traitsIcEELb1ELb1EEEJcEENSt9enable_ifIX16is_invocable_r_vIT_T0_DpT1_EES8_E4typeEOS9_DpOSA_
FN:60,61,_ZSt13__invoke_implIbRNSt8__detail11_AnyMatcherINSt7__cxx1112regex_traitsIcEELb0ELb0ELb0EEEJcEET_St14__invoke_otherOT0_DpOT1_
FN:60,61,_ZSt13__invoke_implIbRNSt8__detail11_AnyMatcherINSt7__cxx1112regex_traitsIcEELb0ELb0ELb1EEEJcEET_St14__invoke_otherOT0_DpOT1_
FN:60,61,_ZSt13__invoke_implIbRNSt8__detail11_AnyMatcherINSt7__cxx1112regex_traitsIcEELb0ELb1ELb0EEEJcEET_St14__invoke_otherOT0_DpOT1_
FN:60,61,_ZSt13__invoke_implIbRNSt8__detail11_AnyMatcherINSt7__cxx1112regex_traitsIcEELb0ELb1ELb1EEEJcEET_St14__invoke_otherOT0_DpOT1_
FN:60,61,_ZSt13__invoke_implIbRNSt8__detail11_AnyMatcherINSt7__cxx1112regex_traitsIcEELb1ELb0ELb0EEEJcEET_St14__invoke_otherOT0_DpOT1_
FN:60,61,_ZSt13__invoke_implIbRNSt8__detail11_AnyMatcherINSt7__cxx1112regex_traitsIcEELb1ELb0ELb1EEEJcEET_St14__invoke_otherOT0_DpOT1_
FN:60,61,_ZSt13__invoke_implIbRNSt8__detail11_AnyMatcherINSt7__cxx1112regex_traitsIcEELb1ELb1ELb0EEEJcEET_St14__invoke_otherOT0_DpOT1_
FN:60,61,_ZSt13__invoke_implIbRNSt8__detail11_AnyMatcherINSt7__cxx1112regex_traitsIcEELb1ELb1ELb1EEEJcEET_St14__invoke_otherOT0_DpOT1_
FN:60,61,_ZSt13__invoke_implIbRNSt8__detail12_CharMatcherINSt7__cxx1112regex_traitsIcEELb0ELb0EEEJcEET_St14__invoke_otherOT0_DpOT1_
FN:60,61,_ZSt13__invoke_implIbRNSt8__detail12_CharMatcherINSt7__cxx1112regex_traitsIcEELb0ELb1EEEJcEET_St14__invoke_otherOT0_DpOT1_
FN:60,61,_ZSt13__invoke_implIbRNSt8__detail12_CharMatcherINSt7__cxx1112regex_traitsIcEELb1ELb0EEEJcEET_St14__invoke_otherOT0_DpOT1_
FN:60,61,_ZSt13__invoke_implIbRNSt8__detail12_CharMatcherINSt7__cxx1112regex_traitsIcEELb1ELb1EEEJcEET_St14__invoke_otherOT0_DpOT1_
FN:60,61,_ZSt13__invoke_implIbRNSt8__detail15_BracketMatcherINSt7__cxx1112regex_traitsIcEELb0ELb0EEEJcEET_St14__invoke_otherOT0_DpOT1_
FN:60,61,_ZSt13__invoke_implIbRNSt8__detail15_BracketMatcherINSt7__cxx1112regex_traitsIcEELb0ELb1EEEJcEET_St14__invoke_otherOT0_DpOT1_
FN:60,61,_ZSt13__invoke_implIbRNSt8__detail15_BracketMatcherINSt7__cxx1112regex_traitsIcEELb1ELb0EEEJcEET_St14__invoke_otherOT0_DpOT1_
FN:60,61,_ZSt13__invoke_implIbRNSt8__detail15_BracketMatcherINSt7__cxx1112regex_traitsIcEELb1ELb1EEEJcEET_St14__invoke_otherOT0_DpOT1_
FNDA:0,_ZSt10__invoke_rIbRNSt8__detail11_AnyMatcherINSt7__cxx1112regex_traitsIcEELb0ELb0ELb0EEEJcEENSt9enable_ifIX16is_invocable_r_vIT_T0_DpT1_EES8_E4typeEOS9_DpOSA_
FNDA:0,_ZSt10__invoke_rIbRNSt8__detail11_AnyMatcherINSt7__cxx1112regex_traitsIcEELb0ELb0ELb1EEEJcEENSt9enable_ifIX16is_invocable_r_vIT_T0_DpT1_EES8_E4typeEOS9_DpOSA_
FNDA:0,_ZSt10__invoke_rIbRNSt8__detail11_AnyMatcherINSt7__cxx1112regex_traitsIcEELb0ELb1ELb0EEEJcEENSt9enable_ifIX16is_invocable_r_vIT_T0_DpT1_EES8_E4typeEOS9_DpOSA_
FNDA:0,_ZSt10__invoke_rIbRNSt8__detail11_AnyMatcherINSt7__cxx1112regex_traitsIcEELb0ELb1ELb1EEEJcEENSt9enable_ifIX16is_invocable_r_vIT_T0_DpT1_EES8_E4typeEOS9_DpOSA_
FNDA:0,_ZSt10__invoke_rIbRNSt8__detail11_AnyMatcherINSt7__cxx1112regex_traitsIcEELb1ELb0ELb0EEEJcEENSt9enable_ifIX16is_invocable_r_vIT_T0_DpT1_EES8_E4typeEOS9_DpOSA_
FNDA:0,_ZSt10__invoke_rIbRNSt8__detail11_AnyMatcherINSt7__cxx1112regex_traitsIcEELb1ELb0ELb1EEEJcEENSt9enable_ifIX16is_invocable_r_vIT_T0_DpT1_EES8_E4typeEOS9_DpOSA_
FNDA:0,_ZSt10__invoke_rIbRNSt8__detail11_AnyMatcherINSt7__cxx1112regex_traitsIcEELb1ELb1ELb0EEEJcEENSt9enable_ifIX16is_invocable_r_vIT_T0_DpT1_EES8_E4typeEOS9_DpOSA_
FNDA:0,_ZSt10__invoke_rIbRNSt8__detail11_AnyMatcherINSt7__cxx1112regex_traitsIcEELb1ELb1ELb1EEEJcEENSt9enable_ifIX16is_invocable_r_vIT_T0_DpT1_EES8_E4typeEOS9_DpOSA_
FNDA:0,_ZSt10__invoke_rIbRNSt8__detail12_CharMatcherINSt7__cxx1112regex_traitsIcEELb0ELb0EEEJcEENSt9enable_ifIX16is_invocable_r_vIT_T0_DpT1_EES8_E4typeEOS9_DpOSA_
FNDA:0,_ZSt10__invoke_rIbRNSt8__detail12_CharMatcherINSt7__cxx1112regex_traitsIcEELb0ELb1EEEJcEENSt9enable_ifIX16is_invocable_r_vIT_T0_DpT1_EES8_E4typeEOS9_DpOSA_
FNDA:0,_ZSt10__invoke_rIbRNSt8__detail12_CharMatcherINSt7__cxx1112regex_traitsIcEELb1ELb0EEEJcEENSt9enable_ifIX16is_invocable_r_vIT_T0_DpT1_EES8_E4typeEOS9_DpOSA_
FNDA:0,_ZSt10__invoke_rIbRNSt8__detail12_CharMatcherINSt7__cxx1112regex_traitsIcEELb1ELb1EEEJcEENSt9enable_ifIX16is_invocable_r_vIT_T0_DpT1_EES8_E4typeEOS9_DpOSA_
FNDA:0,_ZSt10__invoke_rIbRNSt8__detail15_BracketMatcherINSt7__cxx1112regex_traitsIcEELb0ELb0EEEJcEENSt9enable_ifIX16is_invocable_r_vIT_T0_DpT1_EES8_E4typeEOS9_DpOSA_
FNDA:0,_ZSt10__invoke_rIbRNSt8__detail15_BracketMatcherINSt7__cxx1112regex_traitsIcEELb0ELb1EEEJcEENSt9enable_ifIX16is_invocable_r_vIT_T0_DpT1_EES8_E4typeEOS9_DpOSA_
FNDA:0,_ZSt10__invoke_rIbRNSt8__detail15_BracketMatcherINSt7__cxx1112regex_traitsIcEELb1ELb0EEEJcEENSt9enable_ifIX16is_invocable_r_vIT_T0_DpT1_EES8_E4typeEOS9_DpOSA_
FNDA:0,_ZSt10__invoke_rIbRNSt8__detail15_BracketMatcherINSt7__cxx1112regex_traitsIcEELb1ELb1EEEJcEENSt9enable_ifIX16is_invocable_r_vIT_T0_DpT1_EES8_E4typeEOS9_DpOSA_
FNDA:0,_ZSt13__invoke_implIbRNSt8__detail11_AnyMatcherINSt7__cxx1112regex_traitsIcEELb0ELb0ELb0EEEJcEET_St14__invoke_otherOT0_DpOT1_
FNDA:0,_ZSt13__invoke_implIbRNSt8__detail11_AnyMatcherINSt7__cxx1112regex_traitsIcEELb0ELb0ELb1EEEJcEET_St14__invoke_otherOT0_DpOT1_
FNDA:0,_ZSt13__invoke_implIbRNSt8__detail11_AnyMatcherINSt7__cxx1112regex_traitsIcEELb0ELb1ELb0EEEJcEET_St14__invoke_otherOT0_DpOT1_
FNDA:0,_ZSt13__invoke_implIbRNSt8__detail11_AnyMatcherINSt7__cxx1112regex_traitsIcEELb0ELb1ELb1EEEJcEET_St14__invoke_otherOT0_DpOT1_
FNDA:0,_ZSt13__invoke_implIbRNSt8__detail11_AnyMatcherINSt7__cxx1112regex_traitsIcEELb1ELb0ELb0EEEJcEET_St14__invoke_otherOT0_DpOT1_
FNDA:0,_ZSt13__invoke_implIbRNSt8__detail11_AnyMatcherINSt7__cxx1112regex_traitsIcEELb1ELb0ELb1EEEJcEET_St14__invoke_otherOT0_DpOT1_
FNDA:0,_ZSt13__invoke_implIbRNSt8__detail11_AnyMatcherINSt7__cxx1112regex_traitsIcEELb1ELb1ELb0EEEJcEET_St14__invoke_otherOT0_DpOT1_
FNDA:0,_ZSt13__invoke_implIbRNSt8__detail11_AnyMatcherINSt7__cxx1112regex_traitsIcEELb1ELb1ELb1EEEJcEET_St14__invoke_otherOT0_DpOT1_
FNDA:0,_ZSt13__invoke_implIbRNSt8__detail12_CharMatcherINSt7__cxx1112regex_traitsIcEELb0ELb0EEEJcEET_St14__invoke_otherOT0_DpOT1_
FNDA:0,_ZSt13__invoke_implIbRNSt8__detail12_CharMatcherINSt7__cxx1112regex_traitsIcEELb0ELb1EEEJcEET_St14__invoke_otherOT0_DpOT1_
FNDA:0,_ZSt13__invoke_implIbRNSt8__detail12_CharMatcherINSt7__cxx1112regex_traitsIcEELb1ELb0EEEJcEET_St14__invoke_otherOT0_DpOT1_
FNDA:0,_ZSt13__invoke_implIbRNSt8__detail12_CharMatcherINSt7__cxx1112regex_traitsIcEELb1ELb1EEEJcEET_St14__invoke_otherOT0_DpOT1_
FNDA:0,_ZSt13__invoke_implIbRNSt8__detail15_BracketMatcherINSt7__cxx1112regex_traitsIcEELb0ELb0EEEJcEET_St14__invoke_otherOT0_DpOT1_
FNDA:0,_ZSt13__invoke_implIbRNSt8__detail15_BracketMatcherINSt7__cxx1112regex_traitsIcEELb0ELb1EEEJcEET_St14__invoke_otherOT0_DpOT1_
FNDA:0,_ZSt13__invoke_implIbRNSt8__detail15_BracketMatcherINSt7__cxx1112regex_traitsIcEELb1ELb0EEEJcEET_St14__invoke_otherOT0_DpOT1_
FNDA:0,_ZSt13__invoke_implIbRNSt8__detail15_BracketMatcherINSt7__cxx1112regex_traitsIcEELb1ELb1EEEJcEET_St14__invoke_otherOT0_DpOT1_
FNF:32
FNH:0
DA:60,0
DA:61,0
DA:104,0
DA:114,0
DA:116,0
LF:5
LH:0
end_of_record
TN:
SF:/usr/include/c++/13/bits/ios_base.h
FN:1001,1005,_ZSt9uppercaseRSt8ios_base
FN:1017,1021,_ZSt7unitbufRSt8ios_base
FN:103,104,_ZStaNRSt13_Ios_FmtflagsS_
FN:1042,1046,_ZSt4leftRSt8ios_base
FN:1067,1071,_ZSt3hexRSt8ios_base
FN:1075,1079,_ZSt3octRSt8ios_base
FN:1084,1088,_ZSt5fixedRSt8ios_base
FN:1092,1096,_ZSt10scientificRSt8ios_base
FN:130,131,_ZStorSt13_Ios_OpenmodeS_
FN:662,663,_ZNKSt8ios_base5flagsEv
FN:673,678,_ZNSt8ios_base5flagsESt13_Ios_Fmtflags
FN:689,694,_ZNSt8ios_base4setfESt13_Ios_Fmtflags
FN:706,712,_ZNSt8ios_base4setfESt13_Ios_FmtflagsS0_
FN:83,84,_ZStanSt13_Ios_FmtflagsS_
FN:87,88,_ZStorSt13_Ios_FmtflagsS_
FN:95,96,_ZStcoSt13_Ios_Fmtflags
FN:99,100,_ZStoRRSt13_Ios_FmtflagsS_
FNDA:0,_ZSt9uppercaseRSt8ios_base
FNDA:0,_ZSt7unitbufRSt8ios_base
FNDA:0,_ZStaNRSt13_Ios_FmtflagsS_
FNDA:0,_ZSt4leftRSt8ios_base
FNDA:0,_ZSt3hexRSt8ios_base
FNDA:0,_ZSt3octRSt8ios_base
FNDA:0,_ZSt5fixedRSt8ios_base
FNDA:0,_ZSt10scientificRSt8ios_base
FNDA:0,_ZStorSt13_Ios_OpenmodeS_
FNDA:0,_ZNKSt8ios_base5flagsEv
FNDA:0,_ZNSt8ios_base5flagsESt13_Ios_Fmtflags
FNDA:0,_ZNSt8ios_base4setfESt13_Ios_Fmtflags
FNDA:0,_ZNSt8ios_base4setfESt13_Ios_FmtflagsS0_
FNDA:0,_ZStanSt13_Ios_FmtflagsS_
FNDA:0,_ZStorSt13_Ios_FmtflagsS_
FNDA:0,_ZStcoSt13_Ios_Fmtflags
FNDA:0,_ZStoRRSt13_Ios_FmtflagsS_
FNF:17
FNH:0
DA:83,0
DA:84,0
DA:87,0
DA:88,0
DA:95,0
DA:96,0
DA:99,0
DA:100,0
DA:103,0
DA:104,0
DA:130,0
DA:131,0
DA:662,0
DA:663,0
DA:673,0
DA:675,0
DA:676,0
DA:677,0
DA:689,0
DA:691,0
DA:692,0
DA:693,0
DA:706,0
DA:708,0
DA:709,0
DA:710,0
DA:711,0
DA:1001,0
DA:1003,0
DA:1004,0
DA:1017,0
DA:1019,0
DA:1020,0
DA:1042,0
DA:1044,0
DA:1045,0
DA:1067,0
DA:1069,0
DA:1070,0
DA:1075,0
DA:1077,0
DA:1078,0
DA:1084,0
DA:1086,0
DA:1087,0
DA:1092,0
DA:1094,0
DA:1095,0
LF:48
LH:0
end_of_record
TN:
SF:/usr/include/c++/13/bits/locale_classes.tcc
FN:192,203,_ZSt9use_facetIKSt5ctypeIcEERKT_RKSt6locale
FN:92,147,_ZSt15__try_use_facetIKSt5ctypeIcEEPKT_RKSt6locale
FNDA:0,_ZSt9use_facetIKSt5ctypeIcEERKT_RKSt6locale
FNDA:0,_ZSt15__try_use_facetIKSt5ctypeIcEEPKT_RKSt6locale
FNF:2
FNH:0
DA:92,0
DA:94,0
DA:95,0
DA:139,0
DA:140,0
DA:143,0
DA:192,0
DA:200,0
DA:201,0
DA:202,0
LF:10
LH:0
end_of_record
TN:
SF:/usr/include/c++/13/bits/locale_facets.h
FN:810,811,_ZNKSt5ctypeIcE7toupperEc
FN:843,844,_ZNKSt5ctypeIcE7tolowerEc
FN:860,861,_ZNKSt5ctypeIcE7tolowerEPcPKc
FN:880,886,_ZNKSt5ctypeIcE5widenEc
FN:939,947,_ZNKSt5ctypeIcE6narrowEcc
FNDA:0,_ZNKSt5ctypeIcE7toupperEc
FNDA:0,_ZNKSt5ctypeIcE7tolowerEc
FNDA:0,_ZNKSt5ctypeIcE7tolowerEPcPKc
FNDA:0,_ZNKSt5ctypeIcE5widenEc
FNDA:0,_ZNKSt5ctypeIcE6narrowEcc
FNF:5
FNH:0
DA:810,0
DA:811,0
DA:843,0
DA:844,0
DA:860,0
DA:861,0
DA:880,0
DA:882,0
DA:883,0
DA:884,0
DA:885,0
DA:939,0
DA:941,0
DA:942,0
DA:943,0
DA:944,0
DA:945,0
DA:946,0
LF:18
LH:0
end_of_record
TN:
SF:/usr/include/c++/13/bits/move.h
FN:189,200,_ZSt4swapIN5Catch14TestCaseHandleEENSt9enable_ifIXsrSt6__and_IJSt6__not_ISt15__is_tuple_likeIT_EESt21is_move_constructibleIS6_ESt18is_move_assignableIS6_EEE5valueEvE4typeERS6_SG_
FN:189,200,_ZSt4swapIN5Catch3TagEENSt9enable_ifIXsrSt6__and_IJSt6__not_ISt15__is_tuple_likeIT_EESt21is_move_constructibleIS6_ESt18is_move_assignableIS6_EEE5valueEvE4typeERS6_SG_
FN:189,200,_ZSt4swapIN5Catch6Colour4CodeEENSt9enable_ifIXsrSt6__and_IJSt6__not_ISt15__is_tuple_likeIT_EESt21is_move_constructibleIS7_ESt18is_move_assignableIS7_EEE5valueEvE4typeERS7_SH_
FN:189,200,_ZSt4swapIPFbRKSt9_Any_dataOcEENSt9enable_ifIXsrSt6__and_IJSt6__not_ISt15__is_tuple_likeIT_EESt21is_move_constructibleISA_ESt18is_move_assignableISA_EEE5valueEvE4typeERSA_SK_
FN:189,200,_ZSt4swapIPFbRSt9_Any_dataRKS0_St18_Manager_operationEENSt9enable_ifIXsrSt6__and_IJSt6__not_ISt15__is_tuple_likeIT_EESt21is_move_constructibleISB_ESt18is_move_assignableISB_EEE5valueEvE4typeERSB_SL_
FN:189,200,_ZSt4swapIPKN5Catch10ColourImplEENSt9enable_ifIXsrSt6__and_IJSt6__not_ISt15__is_tuple_likeIT_EESt21is_move_constructibleIS8_ESt18is_move_assignableIS8_EEE5valueEvE4typeERS8_SI_
FN:189,200,_ZSt4swapIPKNSt8__detail4_NFAINSt7__cxx1112regex_traitsIcEEEEENSt9enable_ifIXsrSt6__and_IJSt6__not_ISt15__is_tuple_likeIT_EESt21is_move_constructibleISC_ESt18is_move_assignableISC_EEE5valueEvE4typeERSC_SM_
FN:189,200,_ZSt4swapIPN5Catch5Clara6Detail17BoundValueRefBaseEENSt9enable_ifIXsrSt6__and_IJSt6__not_ISt15__is_tuple_likeIT_EESt21is_move_constructibleIS9_ESt18is_move_assignableIS9_EEE5valueEvE4typeERS9_SJ_
FN:189,200,_ZSt4swapIPN5Catch5Clara6Detail8BoundRefEENSt9enable_ifIXsrSt6__and_IJSt6__not_ISt15__is_tuple_likeIT_EESt21is_move_constructibleIS9_ESt18is_move_assignableIS9_EEE5valueEvE4typeERS9_SJ_
FN:189,200,_ZSt4swapIPN5Queue4NodeEENSt9enable_ifIXsrSt6__and_IJSt6__not_ISt15__is_tuple_likeIT_EESt21is_move_constructibleIS7_ESt18is_move_assignableIS7_EEE5valueEvE4typeERS7_SH_
FN:189,200,_ZSt4swapIPN7AvlTree4NodeEENSt9enable_ifIXsrSt6__and_IJSt6__not_ISt15__is_tuple_likeIT_EESt21is_move_constructibleIS7_ESt18is_move_assignableIS7_EEE5valueEvE4typeERS7_SH_
FN:189,200,_ZSt4swapIPNSt7__cxx1112basic_stringIcSt11char_traitsIcESaIcEEEENSt9enable_ifIXsrSt6__and_IJSt6__not_ISt15__is_tuple_likeIT_EESt21is_move_constructibleISB_ESt18is_move_assignableISB_EEE5valueEvE4typeERSB_SL_
FN:189,200,_ZSt4swapISt6localeENSt9enable_ifIXsrSt6__and_IJSt6__not_ISt15__is_tuple_likeIT_EESt21is_move_constructibleIS5_ESt18is_move_assignableIS5_EEE5valueEvE4typeERS5_SF_
FN:189,200,_ZSt4swapISt9_Any_dataENSt9enable_ifIXsrSt6__and_IJSt6__not_ISt15__is_tuple_likeIT_EESt21is_move_constructibleIS5_ESt18is_move_assignableIS5_EEE5valueEvE4typeERS5_SF_
FN:189,200,_ZSt4swapIbENSt9enable_ifIXsrSt6__and_IJSt6__not_ISt15__is_tuple_likeIT_EESt21is_move_constructibleIS4_ESt18is_move_assignableIS4_EEE5valueEvE4typeERS4_SE_
FN:189,200,_ZSt4swapIcENSt9enable_ifIXsrSt6__and_IJSt6__not_ISt15__is_tuple_likeIT_EESt21is_move_constructibleIS4_ESt18is_move_assignableIS4_EEE5valueEvE4typeERS4_SE_
FN:189,200,_ZSt4swapIdENSt9enable_ifIXsrSt6__and_IJSt6__not_ISt15__is_tuple_likeIT_EESt21is_move_constructibleIS4_ESt18is_move_assignableIS4_EEE5valueEvE4typeERS4_SE_
FN:189,200,_ZSt4swapIlENSt9enable_ifIXsrSt6__and_IJSt6__not_ISt15__is_tuple_likeIT_EESt21is_move_constructibleIS4_ESt18is_move_assignableIS4_EEE5valueEvE4typeERS4_SE_
FN:189,200,_ZSt4swapImENSt9enable_ifIXsrSt6__and_IJSt6__not_ISt15__is_tuple_likeIT_EESt21is_move_constructibleIS4_ESt18is_move_assignableIS4_EEE5valueEvE4typeERS4_SE_
FN:51,52,_ZSt11__addressofIKNSt8__detail11_AnyMatcherINSt7__cxx1112regex_traitsIcEELb0ELb0ELb0EEEEPT_RS7_
FN:51,52,_ZSt11__addressofIKNSt8__detail11_AnyMatcherINSt7__cxx1112regex_traitsIcEELb0ELb0ELb1EEEEPT_RS7_
FN:51,52,_ZSt11__addressofIKNSt8__detail11_AnyMatcherINSt7__cxx1112regex_traitsIcEELb0ELb1ELb0EEEEPT_RS7_
FN:51,52,_ZSt11__addressofIKNSt8__detail11_AnyMatcherINSt7__cxx1112regex_traitsIcEELb0ELb1ELb1EEEEPT_RS7_
FN:51,52,_ZSt11__addressofIKNSt8__detail11_AnyMatcherINSt7__cxx1112regex_traitsIcEELb1ELb0ELb0EEEEPT_RS7_
FN:51,52,_ZSt11__addressofIKNSt8__detail11_AnyMatcherINSt7__cxx1112regex_traitsIcEELb1ELb0ELb1EEEEPT_RS7_
FN:51,52,_ZSt11__addressofIKNSt8__detail11_AnyMatcherINSt7__cxx1112regex_traitsIcEELb1ELb1ELb0EEEEPT_RS7_
FN:51,52,_ZSt11__addressofIKNSt8__detail11_AnyMatcherINSt7__cxx1112regex_traitsIcEELb1ELb1ELb1EEEEPT_RS7_
FN:51,52,_ZSt11__addressofIKNSt8__detail12_CharMatcherINSt7__cxx1112regex_traitsIcEELb0ELb0EEEEPT_RS7_
FN:51,52,_ZSt11__addressofIKNSt8__detail12_CharMatcherINSt7__cxx1112regex_traitsIcEELb0ELb1EEEEPT_RS7_
FN:51,52,_ZSt11__addressofIKNSt8__detail12_CharMatcherINSt7__cxx1112regex_traitsIcEELb1ELb0EEEEPT_RS7_
FN:51,52,_ZSt11__addressofIKNSt8__detail12_CharMatcherINSt7__cxx1112regex_traitsIcEELb1ELb1EEEEPT_RS7_
FN:51,52,_ZSt11__addressofIKSt6vectorIN5Catch12ReporterSpecESaIS2_EEEPT_RS6_
FN:51,52,_ZSt11__addressofIKSt6vectorIN5Catch5Clara3ArgESaIS3_EEEPT_RS7_
FN:51,52,_ZSt11__addressofIKSt6vectorIN5Catch5Clara3OptESaIS3_EEEPT_RS7_
FN:51,52,_ZSt11__addressofIKSt6vectorIN5Catch9StringRefESaIS2_EEEPT_RS6_
FN:51,52,_ZSt11__addressofIKSt6vectorINSt7__cxx1112basic_stringIcSt11char_traitsIcESaIcEEESaIS6_EEEPT_RSA_
FN:51,52,_ZSt11__addressofIKSt6vectorINSt7__cxx119sub_matchIN9__gnu_cxx17__normal_iteratorIPKcNS1_12basic_stringIcSt11char_traitsIcESaIcEEEEEEESaISD_EEEPT_RSH_
FN:51,52,_ZSt11__addressofIKSt8_Rb_treeINSt7__cxx1112basic_stringIcSt11char_traitsIcESaIcEEESt4pairIKS6_S6_ESt10_Select1stIS9_ESt4lessIS6_ESaIS9_EEEPT_RSH_
FN:51,52,_ZSt11__addressofIN5Catch10ColumnInfoEEPT_RS2_
FN:51,52,_ZSt11__addressofIN5Catch11MessageInfoEEPT_RS2_
FN:51,52,_ZSt11__addressofIN5Catch11SectionInfoEEPT_RS2_
FN:51,52,_ZSt11__addressofIN5Catch12ReporterSpecEEPT_RS2_
FN:51,52,_ZSt11__addressofIN5Catch12_GLOBAL__N_113SummaryColumnEEPT_RS3_
FN:51,52,_ZSt11__addressofIN5Catch13ScopedMessageEEPT_RS2_
FN:51,52,_ZSt11__addressofIN5Catch14SectionEndInfoEEPT_RS2_
FN:51,52,_ZSt11__addressofIN5Catch14TestCaseHandleEEPT_RS2_
FN:51,52,_ZSt11__addressofIN5Catch15JsonArrayWriterEEPT_RS2_
FN:51,52,_ZSt11__addressofIN5Catch16JsonObjectWriterEEPT_RS2_
FN:51,52,_ZSt11__addressofIN5Catch19ListenerDescriptionEEPT_RS2_
FN:51,52,_ZSt11__addressofIN5Catch19ReporterDescriptionEEPT_RS2_
FN:51,52,_ZSt11__addressofIN5Catch21ProcessedReporterSpecEEPT_RS2_
FN:51,52,_ZSt11__addressofIN5Catch3TagEEPT_RS2_
FN:51,52,_ZSt11__addressofIN5Catch5Clara3ArgEEPT_RS3_
FN:51,52,_ZSt11__addressofIN5Catch5Clara3OptEEPT_RS3_
FN:51,52,_ZSt11__addressofIN5Catch5Clara6Detail11HelpColumnsEEPT_RS4_
FN:51,52,_ZSt11__addressofIN5Catch5Clara6Detail5TokenEEPT_RS4_
FN:51,52,_ZSt11__addressofIN5Catch6Detail10unique_ptrIKNS0_20IExceptionTranslatorEEEEPT_RS6_
FN:51,52,_ZSt11__addressofIN5Catch6Detail10unique_ptrINS0_12ITestInvokerEEEEPT_RS5_
FN:51,52,_ZSt11__addressofIN5Catch6Detail10unique_ptrINS0_12TestCaseInfoEEEEPT_RS5_
FN:51,52,_ZSt11__addressofIN5Catch6Detail10unique_ptrINS0_14IEventListenerEEEEPT_RS5_
FN:51,52,_ZSt11__addressofIN5Catch6Detail10unique_ptrINS0_16TestCaseTracking8ITrackerEEEEPT_RS6_
FN:51,52,_ZSt11__addressofIN5Catch6Detail10unique_ptrINS0_20EventListenerFactoryEEEEPT_RS5_
FN:51,52,_ZSt11__addressofIN5Catch6Detail10unique_ptrINS0_22CumulativeReporterBase11SectionNodeEEEEPT_RS6_
FN:51,52,_ZSt11__addressofIN5Catch6Detail10unique_ptrINS0_22CumulativeReporterBase4NodeINS0_13TestCaseStatsENS3_11SectionNodeEEEEEEPT_RS9_
FN:51,52,_ZSt11__addressofIN5Catch6Detail10unique_ptrINS0_8TestSpec7PatternEEEEPT_RS6_
FN:51,52,_ZSt11__addressofIN5Catch6Detail10unique_ptrINS1_8EnumInfoEEEEPT_RS5_
FN:51,52,_ZSt11__addressofIN5Catch6Detail10unique_ptrINSt7__cxx1119basic_ostringstreamIcSt11char_traitsIcESaIcEEEEEEPT_RSA_
FN:51,52,_ZSt11__addressofIN5Catch6Detail26AssertionOrBenchmarkResultEEPT_RS3_
FN:51,52,_ZSt11__addressofIN5Catch7TagInfoEEPT_RS2_
FN:51,52,_ZSt11__addressofIN5Catch8TestSpec11FilterMatchEEPT_RS3_
FN:51,52,_ZSt11__addressofIN5Catch8TestSpec6FilterEEPT_RS3_
FN:51,52,_ZSt11__addressofIN5Catch8TextFlow6Column14const_iteratorEEPT_RS4_
FN:51,52,_ZSt11__addressofIN5Catch8TextFlow6ColumnEEPT_RS3_
FN:51,52,_ZSt11__addressofIN5Catch9StringRefEEPT_RS2_
FN:51,52,_ZSt11__addressofINSt15__exception_ptr13exception_ptrEEPT_RS2_
FN:51,52,_ZSt11__addressofINSt6chrono10time_pointINS0_3_V212steady_clockENS0_8durationIlSt5ratioILl1ELl1000000000EEEEEEEPT_RS9_
FN:51,52,_ZSt11__addressofINSt7__cxx1112basic_stringIcSt11char_traitsIcESaIcEEEEPT_RS6_
FN:51,52,_ZSt11__addressofINSt7__cxx1112regex_traitsIcE10_RegexMaskEEPT_RS4_
FN:51,52,_ZSt11__addressofINSt7__cxx119sub_matchIN9__gnu_cxx17__normal_iteratorIPKcNS0_12basic_stringIcSt11char_traitsIcESaIcEEEEEEEEPT_RSD_
FN:51,52,_ZSt11__addressofINSt8__detail6_StateIcEEEPT_RS3_
FN:51,52,_ZSt11__addressofISaISt23_Sp_counted_ptr_inplaceIN5Catch5Clara6Detail11BoundLambdaIZNS1_21makeCommandLineParserERNS1_10ConfigDataEEUlRKNSt7__cxx1112basic_stringIcSt11char_traitsIcESaIcEEEE0_EESaIvELN9__gnu_cxx12_Lock_policyE2EEEEPT_RSM_
FN:51,52,_ZSt11__addressofISaISt23_Sp_counted_ptr_inplaceIN5Catch5Clara6Detail11BoundLambdaIZNS1_21makeCommandLineParserERNS1_10ConfigDataEEUlRKNSt7__cxx1112basic_stringIcSt11char_traitsIcESaIcEEEE1_EESaIvELN9__gnu_cxx12_Lock_policyE2EEEEPT_RSM_
FN:51,52,_ZSt11__addressofISaISt23_Sp_counted_ptr_inplaceIN5Catch5Clara6Detail11BoundLambdaIZNS1_21makeCommandLineParserERNS1_10ConfigDataEEUlRKNSt7__cxx1112basic_stringIcSt11char_traitsIcESaIcEEEE2_EESaIvELN9__gnu_cxx12_Lock_policyE2EEEEPT_RSM_
FN:51,52,_ZSt11__addressofISaISt23_Sp_counted_ptr_inplaceIN5Catch5Clara6Detail11BoundLambdaIZNS1_21makeCommandLineParserERNS1_10ConfigDataEEUlRKNSt7__cxx1112basic_stringIcSt11char_traitsIcESaIcEEEE3_EESaIvELN9__gnu_cxx12_Lock_policyE2EEEEPT_RSM_
FN:51,52,_ZSt11__addressofISaISt23_Sp_counted_ptr_inplaceIN5Catch5Clara6Detail11BoundLambdaIZNS1_21makeCommandLineParserERNS1_10ConfigDataEEUlRKNSt7__cxx1112basic_stringIcSt11char_traitsIcESaIcEEEE4_EESaIvELN9__gnu_cxx12_Lock_policyE2EEEEPT_RSM_
FN:51,52,_ZSt11__addressofISaISt23_Sp_counted_ptr_inplaceIN5Catch5Clara6Detail11BoundLambdaIZNS1_21makeCommandLineParserERNS1_10ConfigDataEEUlRKNSt7__cxx1112basic_stringIcSt11char_traitsIcESaIcEEEE5_EESaIvELN9__gnu_cxx12_Lock_policyE2EEEEPT_RSM_
FN:51,52,_ZSt11__addressofISaISt23_Sp_counted_ptr_inplaceIN5Catch5Clara6Detail11BoundLambdaIZNS1_21makeCommandLineParserERNS1_10ConfigDataEEUlRKNSt7__cxx1112basic_stringIcSt11char_traitsIcESaIcEEEE7_EESaIvELN9__gnu_cxx12_Lock_policyE2EEEEPT_RSM_
FN:51,52,_ZSt11__addressofISaISt23_Sp_counted_ptr_inplaceIN5Catch5Clara6Detail11BoundLambdaIZNS1_21makeCommandLineParserERNS1_10ConfigDataEEUlRKNSt7__cxx1112basic_stringIcSt11char_traitsIcESaIcEEEE8_EESaIvELN9__gnu_cxx12_Lock_policyE2EEEEPT_RSM_
FN:51,52,_ZSt11__addressofISaISt23_Sp_counted_ptr_inplaceIN5Catch5Clara6Detail11BoundLambdaIZNS1_21makeCommandLineParserERNS1_10ConfigDataEEUlbE0_EESaIvELN9__gnu_cxx12_Lock_policyE2EEEEPT_RSE_
FN:51,52,_ZSt11__addressofISaISt23_Sp_counted_ptr_inplaceIN5Catch5Clara6Detail11BoundLambdaIZNS1_21makeCommandLineParserERNS1_10ConfigDataEEUliE_EESaIvELN9__gnu_cxx12_Lock_policyE2EEEEPT_RSE_
FN:51,52,_ZSt11__addressofISaISt23_Sp_counted_ptr_inplaceIN5Catch5Clara6Detail12BoundFlagRefESaIvELN9__gnu_cxx12_Lock_policyE2EEEEPT_RSA_
FN:51,52,_ZSt11__addressofISaISt23_Sp_counted_ptr_inplaceIN5Catch5Clara6Detail13BoundValueRefINSt7__cxx1112basic_stringIcSt11char_traitsIcESaIcEEEEESaIvELN9__gnu_cxx12_Lock_policyE2EEEEPT_RSH_
FN:51,52,_ZSt11__addressofISaISt23_Sp_counted_ptr_inplaceIN5Catch5Clara6Detail13BoundValueRefISt6vectorINSt7__cxx1112basic_stringIcSt11char_traitsIcESaIcEEESaISB_EEEESaIvELN9__gnu_cxx12_Lock_policyE2EEEEPT_RSK_
FN:51,52,_ZSt11__addressofISaISt23_Sp_counted_ptr_inplaceIN5Catch5Clara6Detail13BoundValueRefIdEESaIvELN9__gnu_cxx12_Lock_policyE2EEEEPT_RSB_
FN:51,52,_ZSt11__addressofISaISt23_Sp_counted_ptr_inplaceIN5Catch5Clara6Detail13BoundValueRefIjEESaIvELN9__gnu_cxx12_Lock_policyE2EEEEPT_RSB_
FN:51,52,_ZSt11__addressofISaISt23_Sp_counted_ptr_inplaceIN5Catch5Clara6Detail13BoundValueRefIlEESaIvELN9__gnu_cxx12_Lock_policyE2EEEEPT_RSB_
FN:51,52,_ZSt11__addressofISaISt23_Sp_counted_ptr_inplaceIN5Catch5Clara6Detail15BoundFlagLambdaIZNS1_21makeCommandLineParserERNS1_10ConfigDataEEUlbE_EESaIvELN9__gnu_cxx12_Lock_policyE2EEEEPT_RSE_
FN:51,52,_ZSt11__addressofISaISt23_Sp_counted_ptr_inplaceIN5Catch5Clara6Detail15BoundFlagLambdaIZNS2_4HelpC4ERbEUlbE_EESaIvELN9__gnu_cxx12_Lock_policyE2EEEEPT_RSE_
FN:51,52,_ZSt11__addressofISaISt23_Sp_counted_ptr_inplaceIN5Catch5Clara6Detail15BoundManyLambdaIZNS1_21makeCommandLineParserERNS1_10ConfigDataEEUlRKNSt7__cxx1112basic_stringIcSt11char_traitsIcESaIcEEEE6_EESaIvELN9__gnu_cxx12_Lock_policyE2EEEEPT_RSM_
FN:51,52,_ZSt11__addressofISaISt23_Sp_counted_ptr_inplaceIN5Catch5Clara6Detail15BoundManyLambdaIZNS1_21makeCommandLineParserERNS1_10ConfigDataEEUlRKNSt7__cxx1112basic_stringIcSt11char_traitsIcESaIcEEEE_EESaIvELN9__gnu_cxx12_Lock_policyE2EEEEPT_RSM_
FN:51,52,_ZSt11__addressofISaISt23_Sp_counted_ptr_inplaceINSt7__cxx1112basic_stringIcSt11char_traitsIcESaIcEEESaIvELN9__gnu_cxx12_Lock_policyE2EEEEPT_RSC_
FN:51,52,_ZSt11__addressofISaISt23_Sp_counted_ptr_inplaceINSt8__detail4_NFAINSt7__cxx1112regex_traitsIcEEEESaIvELN9__gnu_cxx12_Lock_policyE2EEEEPT_RSC_
FN:51,52,_ZSt11__addressofISt4pairIN9__gnu_cxx17__normal_iteratorIPKcNSt7__cxx1112basic_stringIcSt11char_traitsIcESaIcEEEEEiEEPT_RSD_
FN:51,52,_ZSt11__addressofISt4pairINSt7__cxx1112basic_stringIcSt11char_traitsIcESaIcEEES6_EEPT_RS8_
FN:51,52,_ZSt11__addressofISt4pairIccEEPT_RS2_
FN:51,52,_ZSt11__addressofISt4pairIiN5Catch9StringRefEEEPT_RS4_
FN:51,52,_ZSt11__addressofISt4pairIlSt6vectorINSt7__cxx119sub_matchIN9__gnu_cxx17__normal_iteratorIPKcNS2_12basic_stringIcSt11char_traitsIcESaIcEEEEEEESaISE_EEEEPT_RSI_
FN:51,52,_ZSt11__addressofISt4pairImN5Catch14TestCaseHandleEEEPT_RS4_
FN:51,52,_ZSt11__addressofIZNK5Catch5Clara6Parser5parseERKNSt7__cxx1112basic_stringIcSt11char_traitsIcESaIcEEENS1_6Detail11TokenStreamEE10ParserInfoEPT_RSE_
FN:70,71,_ZSt7forwardIN5Catch11MessageInfoEEOT_RNSt16remove_referenceIS2_E4typeE
FN:70,71,_ZSt7forwardIN5Catch11SectionInfoEEOT_RNSt16remove_referenceIS2_E4typeE
FN:70,71,_ZSt7forwardIN5Catch12JsonReporter6WriterEEOT_RNSt16remove_referenceIS3_E4typeE
FN:70,71,_ZSt7forwardIN5Catch12ReporterSpecEEOT_RNSt16remove_referenceIS2_E4typeE
FN:70,71,_ZSt7forwardIN5Catch12_GLOBAL__N_113SummaryColumnEEOT_RNSt16remove_referenceIS3_E4typeE
FN:70,71,_ZSt7forwardIN5Catch13ScopedMessageEEOT_RNSt16remove_referenceIS2_E4typeE
FN:70,71,_ZSt7forwardIN5Catch14MessageBuilderEEOT_RNSt16remove_referenceIS2_E4typeE
FN:70,71,_ZSt7forwardIN5Catch14SectionEndInfoEEOT_RNSt16remove_referenceIS2_E4typeE
FN:70,71,_ZSt7forwardIN5Catch14TestCaseHandleEEOT_RNSt16remove_referenceIS2_E4typeE
FN:70,71,_ZSt7forwardIN5Catch15JsonArrayWriterEEOT_RNSt16remove_referenceIS2_E4typeE
FN:70,71,_ZSt7forwardIN5Catch16JsonObjectWriterEEOT_RNSt16remove_referenceIS2_E4typeE
FN:70,71,_ZSt7forwardIN5Catch19ListenerDescriptionEEOT_RNSt16remove_referenceIS2_E4typeE
FN:70,71,_ZSt7forwardIN5Catch19ReporterDescriptionEEOT_RNSt16remove_referenceIS2_E4typeE
FN:70,71,_ZSt7forwardIN5Catch21ProcessedReporterSpecEEOT_RNSt16remove_referenceIS2_E4typeE
FN:70,71,_ZSt7forwardIN5Catch3TagEEOT_RNSt16remove_referenceIS2_E4typeE
FN:70,71,_ZSt7forwardIN5Catch5Clara3ArgEEOT_RNSt16remove_referenceIS3_E4typeE
FN:70,71,_ZSt7forwardIN5Catch5Clara3OptEEOT_RNSt16remove_referenceIS3_E4typeE
FN:70,71,_ZSt7forwardIN5Catch5Clara6Detail11HelpColumnsEEOT_RNSt16remove_referenceIS4_E4typeE
FN:70,71,_ZSt7forwardIN5Catch5Clara6Detail5TokenEEOT_RNSt16remove_referenceIS4_E4typeE
FN:70,71,_ZSt7forwardIN5Catch6Detail10unique_ptrIKNS0_20IExceptionTranslatorEEEEOT_RNSt16remove_referenceIS6_E4typeE
FN:70,71,_ZSt7forwardIN5Catch6Detail10unique_ptrINS0_12ITestInvokerEEEEOT_RNSt16remove_referenceIS5_E4typeE
FN:70,71,_ZSt7forwardIN5Catch6Detail10unique_ptrINS0_12TestCaseInfoEEEEOT_RNSt16remove_referenceIS5_E4typeE
FN:70,71,_ZSt7forwardIN5Catch6Detail10unique_ptrINS0_14IEventListenerEEEEOT_RNSt16remove_referenceIS5_E4typeE
FN:70,71,_ZSt7forwardIN5Catch6Detail10unique_ptrINS0_16IReporterFactoryEEEEOT_RNSt16remove_referenceIS5_E4typeE
FN:70,71,_ZSt7forwardIN5Catch6Detail10unique_ptrINS0_16TestCaseTracking8ITrackerEEEEOT_RNSt16remove_referenceIS6_E4typeE
FN:70,71,_ZSt7forwardIN5Catch6Detail10unique_ptrINS0_20EventListenerFactoryEEEEOT_RNSt16remove_referenceIS5_E4typeE
FN:70,71,_ZSt7forwardIN5Catch6Detail10unique_ptrINS0_22CumulativeReporterBase11SectionNodeEEEEOT_RNSt16remove_referenceIS6_E4typeE
FN:70,71,_ZSt7forwardIN5Catch6Detail10unique_ptrINS0_22CumulativeReporterBase4NodeINS0_13TestCaseStatsENS3_11SectionNodeEEEEEEOT_RNSt16remove_referenceIS9_E4typeE
FN:70,71,_ZSt7forwardIN5Catch6Detail10unique_ptrINS0_8TestSpec10TagPatternEEEEOT_RNSt16remove_referenceIS6_E4typeE
FN:70,71,_ZSt7forwardIN5Catch6Detail10unique_ptrINS0_8TestSpec11NamePatternEEEEOT_RNSt16remove_referenceIS6_E4typeE
FN:70,71,_ZSt7forwardIN5Catch6Detail10unique_ptrINS0_8TestSpec7PatternEEEEOT_RNSt16remove_referenceIS6_E4typeE
FN:70,71,_ZSt7forwardIN5Catch6Detail10unique_ptrINS1_8EnumInfoEEEEOT_RNSt16remove_referenceIS5_E4typeE
FN:70,71,_ZSt7forwardIN5Catch6Detail10unique_ptrINSt7__cxx1119basic_ostringstreamIcSt11char_traitsIcESaIcEEEEEEOT_RNSt16remove_referenceISA_E4typeE
FN:70,71,_ZSt7forwardIN5Catch7TagInfoEEOT_RNSt16remove_referenceIS2_E4typeE
FN:70,71,_ZSt7forwardIN5Catch8TagAliasEEOT_RNSt16remove_referenceIS2_E4typeE
FN:70,71,_ZSt7forwardIN5Catch8TestSpec11FilterMatchEEOT_RNSt16remove_referenceIS3_E4typeE
FN:70,71,_ZSt7forwardIN5Catch8TestSpec6FilterEEOT_RNSt16remove_referenceIS3_E4typeE
FN:70,71,_ZSt7forwardIN5Catch8TextFlow6Column14const_iteratorEEOT_RNSt16remove_referenceIS4_E4typeE
FN:70,71,_ZSt7forwardIN5Catch8TextFlow6ColumnEEOT_RNSt16remove_referenceIS3_E4typeE
FN:70,71,_ZSt7forwardIN5Catch9StringRefEEOT_RNSt16remove_referenceIS2_E4typeE
FN:70,71,_ZSt7forwardINSt15__exception_ptr13exception_ptrEEOT_RNSt16remove_referenceIS2_E4typeE
FN:70,71,_ZSt7forwardINSt6chrono8durationIdSt5ratioILl1ELl1000000000EEEEEOT_RNSt16remove_referenceIS5_E4typeE
FN:70,71,_ZSt7forwardINSt7__cxx1112basic_stringIcSt11char_traitsIcESaIcEEEEOT_RNSt16remove_referenceIS6_E4typeE
FN:70,71,_ZSt7forwardINSt7__cxx1112regex_traitsIcE10_RegexMaskEEOT_RNSt16remove_referenceIS4_E4typeE
FN:70,71,_ZSt7forwardINSt8__detail11_AnyMatcherINSt7__cxx1112regex_traitsIcEELb0ELb0ELb0EEEEOT_RNSt16remove_referenceIS6_E4typeE
FN:70,71,_ZSt7forwardINSt8__detail11_AnyMatcherINSt7__cxx1112regex_traitsIcEELb0ELb0ELb1EEEEOT_RNSt16remove_referenceIS6_E4typeE
FN:70,71,_ZSt7forwardINSt8__detail11_AnyMatcherINSt7__cxx1112regex_traitsIcEELb0ELb1ELb0EEEEOT_RNSt16remove_referenceIS6_E4typeE
FN:70,71,_ZSt7forwardINSt8__detail11_AnyMatcherINSt7__cxx1112regex_traitsIcEELb0ELb1ELb1EEEEOT_RNSt16remove_referenceIS6_E4typeE
FN:70,71,_ZSt7forwardINSt8__detail11_AnyMatcherINSt7__cxx1112regex_traitsIcEELb1ELb0ELb0EEEEOT_RNSt16remove_referenceIS6_E4typeE
FN:70,71,_ZSt7forwardINSt8__detail11_AnyMatcherINSt7__cxx1112regex_traitsIcEELb1ELb0ELb1EEEEOT_RNSt16remove_referenceIS6_E4typeE
FN:70,71,_ZSt7forwardINSt8__detail11_AnyMatcherINSt7__cxx1112regex_traitsIcEELb1ELb1ELb0EEEEOT_RNSt16remove_referenceIS6_E4typeE
FN:70,71,_ZSt7forwardINSt8__detail11_AnyMatcherINSt7__cxx1112regex_traitsIcEELb1ELb1ELb1EEEEOT_RNSt16remove_referenceIS6_E4typeE
FN:70,71,_ZSt7forwardINSt8__detail12_CharMatcherINSt7__cxx1112regex_traitsIcEELb0ELb0EEEEOT_RNSt16remove_referenceIS6_E4typeE
FN:70,71,_ZSt7forwardINSt8__detail12_CharMatcherINSt7__cxx1112regex_traitsIcEELb0ELb1EEEEOT_RNSt16remove_referenceIS6_E4typeE
FN:70,71,_ZSt7forwardINSt8__detail12_CharMatcherINSt7__cxx1112regex_traitsIcEELb1ELb0EEEEOT_RNSt16remove_referenceIS6_E4typeE
FN:70,71,_ZSt7forwardINSt8__detail12_CharMatcherINSt7__cxx1112regex_traitsIcEELb1ELb1EEEEOT_RNSt16remove_referenceIS6_E4typeE
FN:70,71,_ZSt7forwardINSt8__detail15_BracketMatcherINSt7__cxx1112regex_traitsIcEELb0ELb0EEEEOT_RNSt16remove_referenceIS6_E4typeE
FN:70,71,_ZSt7forwardINSt8__detail15_BracketMatcherINSt7__cxx1112regex_traitsIcEELb0ELb1EEEEOT_RNSt16remove_referenceIS6_E4typeE
FN:70,71,_ZSt7forwardINSt8__detail15_BracketMatcherINSt7__cxx1112regex_traitsIcEELb1ELb0EEEEOT_RNSt16remove_referenceIS6_E4typeE
FN:70,71,_ZSt7forwardINSt8__detail15_BracketMatcherINSt7__cxx1112regex_traitsIcEELb1ELb1EEEEOT_RNSt16remove_referenceIS6_E4typeE
FN:70,71,_ZSt7forwardINSt8__detail6_StateIcEEEOT_RNSt16remove_referenceIS3_E4typeE
FN:70,71,_ZSt7forwardINSt8__detail9_StateSeqINSt7__cxx1112regex_traitsIcEEEEEOT_RNSt16remove_referenceIS6_E4typeE
FN:70,71,_ZSt7forwardION5Catch9StringRefEEOT_RNSt16remove_referenceIS3_E4typeE
FN:70,71,_ZSt7forwardIONSt7__cxx1112basic_stringIcSt11char_traitsIcESaIcEEEEOT_RNSt16remove_referenceIS7_E4typeE
FN:70,71,_ZSt7forwardIPKN5Catch14TestCaseHandleEEOT_RNSt16remove_referenceIS4_E4typeE
FN:70,71,_ZSt7forwardIPKN5Catch22CumulativeReporterBase4NodeINS0_13TestCaseStatsENS1_11SectionNodeEEEEOT_RNSt16remove_referenceIS8_E4typeE
FN:70,71,_ZSt7forwardIPN5Catch12ITestInvokerEEOT_RNSt16remove_referenceIS3_E4typeE
FN:70,71,_ZSt7forwardIPN5Catch12TestCaseInfoEEOT_RNSt16remove_referenceIS3_E4typeE
FN:70,71,_ZSt7forwardIPN5Catch16TestCaseTracking8ITrackerEEOT_RNSt16remove_referenceIS4_E4typeE
FN:70,71,_ZSt7forwardIPNSt7__cxx1119basic_ostringstreamIcSt11char_traitsIcESaIcEEEEOT_RNSt16remove_referenceIS7_E4typeE
FN:70,71,_ZSt7forwardIRA13_KcEOT_RNSt16remove_referenceIS3_E4typeE
FN:70,71,_ZSt7forwardIRA2_KcEOT_RNSt16remove_referenceIS3_E4typeE
FN:70,71,_ZSt7forwardIRKN5Catch10ColumnInfoEEOT_RNSt16remove_referenceIS4_E4typeE
FN:70,71,_ZSt7forwardIRKN5Catch11MessageInfoEEOT_RNSt16remove_referenceIS4_E4typeE
FN:70,71,_ZSt7forwardIRKN5Catch11SectionInfoEEOT_RNSt16remove_referenceIS4_E4typeE
FN:70,71,_ZSt7forwardIRKN5Catch12ReporterSpecEEOT_RNSt16remove_referenceIS4_E4typeE
FN:70,71,_ZSt7forwardIRKN5Catch14AssertionStatsEEOT_RNSt16remove_referenceIS4_E4typeE
FN:70,71,_ZSt7forwardIRKN5Catch14BenchmarkStatsINSt6chrono8durationIdSt5ratioILl1ELl1000000000EEEEEEEOT_RNSt16remove_referenceISA_E4typeE
FN:70,71,_ZSt7forwardIRKN5Catch14SourceLineInfoEEOT_RNSt16remove_referenceIS4_E4typeE
FN:70,71,_ZSt7forwardIRKN5Catch14TestCaseHandleEEOT_RNSt16remove_referenceIS4_E4typeE
FN:70,71,_ZSt7forwardIRKN5Catch5Clara3ArgEEOT_RNSt16remove_referenceIS5_E4typeE
FN:70,71,_ZSt7forwardIRKN5Catch5Clara3OptEEOT_RNSt16remove_referenceIS5_E4typeE
FN:70,71,_ZSt7forwardIRKN5Catch6Detail26AssertionOrBenchmarkResultEEOT_RNSt16remove_referenceIS5_E4typeE
FN:70,71,_ZSt7forwardIRKN5Catch8TextFlow6Column14const_iteratorEEOT_RNSt16remove_referenceIS6_E4typeE
FN:70,71,_ZSt7forwardIRKN5Catch8TextFlow6ColumnEEOT_RNSt16remove_referenceIS5_E4typeE
FN:70,71,_ZSt7forwardIRKN5Catch9StringRefEEOT_RNSt16remove_referenceIS4_E4typeE
FN:70,71,_ZSt7forwardIRKNSt15__exception_ptr13exception_ptrEEOT_RNSt16remove_referenceIS4_E4typeE
FN:70,71,_ZSt7forwardIRKNSt6chrono8durationIdSt5ratioILl1ELl1000000000EEEEEOT_RNSt16remove_referenceIS7_E4typeE
FN:70,71,_ZSt7forwardIRKNSt7__cxx1112basic_stringIcSt11char_traitsIcESaIcEEEEOT_RNSt16remove_referenceIS8_E4typeE
FN:70,71,_ZSt7forwardIRKNSt7__cxx1112regex_traitsIcE10_RegexMaskEEOT_RNSt16remove_referenceIS6_E4typeE
FN:70,71,_ZSt7forwardIRKNSt7__cxx119sub_matchIN9__gnu_cxx17__normal_iteratorIPKcNS0_12basic_stringIcSt11char_traitsIcESaIcEEEEEEEEOT_RNSt16remove_referenceISF_E4typeE
FN:70,71,_ZSt7forwardIRKNSt8__detail11_AnyMatcherINSt7__cxx1112regex_traitsIcEELb0ELb0ELb0EEEEOT_RNSt16remove_referenceIS8_E4typeE
FN:70,71,_ZSt7forwardIRKNSt8__detail11_AnyMatcherINSt7__cxx1112regex_traitsIcEELb0ELb0ELb1EEEEOT_RNSt16remove_referenceIS8_E4typeE
FN:70,71,_ZSt7forwardIRKNSt8__detail11_AnyMatcherINSt7__cxx1112regex_traitsIcEELb0ELb1ELb0EEEEOT_RNSt16remove_referenceIS8_E4typeE
FN:70,71,_ZSt7forwardIRKNSt8__detail11_AnyMatcherINSt7__cxx1112regex_traitsIcEELb0ELb1ELb1EEEEOT_RNSt16remove_referenceIS8_E4typeE
FN:70,71,_ZSt7forwardIRKNSt8__detail11_AnyMatcherINSt7__cxx1112regex_traitsIcEELb1ELb0ELb0EEEEOT_RNSt16remove_referenceIS8_E4typeE
FN:70,71,_ZSt7forwardIRKNSt8__detail11_AnyMatcherINSt7__cxx1112regex_traitsIcEELb1ELb0ELb1EEEEOT_RNSt16remove_referenceIS8_E4typeE
FN:70,71,_ZSt7forwardIRKNSt8__detail11_AnyMatcherINSt7__cxx1112regex_traitsIcEELb1ELb1ELb0EEEEOT_RNSt16remove_referenceIS8_E4typeE
FN:70,71,_ZSt7forwardIRKNSt8__detail11_AnyMatcherINSt7__cxx1112regex_traitsIcEELb1ELb1ELb1EEEEOT_RNSt16remove_referenceIS8_E4typeE
FN:70,71,_ZSt7forwardIRKNSt8__detail12_CharMatcherINSt7__cxx1112regex_traitsIcEELb0ELb0EEEEOT_RNSt16remove_referenceIS8_E4typeE
FN:70,71,_ZSt7forwardIRKNSt8__detail12_CharMatcherINSt7__cxx1112regex_traitsIcEELb0ELb1EEEEOT_RNSt16remove_referenceIS8_E4typeE
FN:70,71,_ZSt7forwardIRKNSt8__detail12_CharMatcherINSt7__cxx1112regex_traitsIcEELb1ELb0EEEEOT_RNSt16remove_referenceIS8_E4typeE
FN:70,71,_ZSt7forwardIRKNSt8__detail12_CharMatcherINSt7__cxx1112regex_traitsIcEELb1ELb1EEEEOT_RNSt16remove_referenceIS8_E4typeE
FN:70,71,_ZSt7forwardIRKNSt8__detail15_BracketMatcherINSt7__cxx1112regex_traitsIcEELb0ELb0EEEEOT_RNSt16remove_referenceIS8_E4typeE
FN:70,71,_ZSt7forwardIRKNSt8__detail15_BracketMatcherINSt7__cxx1112regex_traitsIcEELb0ELb1EEEEOT_RNSt16remove_referenceIS8_E4typeE
FN:70,71,_ZSt7forwardIRKNSt8__detail15_BracketMatcherINSt7__cxx1112regex_traitsIcEELb1ELb0EEEEOT_RNSt16remove_referenceIS8_E4typeE
FN:70,71,_ZSt7forwardIRKNSt8__detail15_BracketMatcherINSt7__cxx1112regex_traitsIcEELb1ELb1EEEEOT_RNSt16remove_referenceIS8_E4typeE
FN:70,71,_ZSt7forwardIRKNSt8__detail9_StateSeqINSt7__cxx1112regex_traitsIcEEEEEOT_RNSt16remove_referenceIS8_E4typeE
FN:70,71,_ZSt7forwardIRKPKN5Catch12TestCaseInfoEEOT_RNSt16remove_referenceIS6_E4typeE
FN:70,71,_ZSt7forwardIRKPKN5Catch14TestCaseHandleEEOT_RNSt16remove_referenceIS6_E4typeE
FN:70,71,_ZSt7forwardIRKPKcEOT_RNSt16remove_referenceIS4_E4typeE
FN:70,71,_ZSt7forwardIRKPN5Catch10ISingletonEEOT_RNSt16remove_referenceIS5_E4typeE
FN:70,71,_ZSt7forwardIRKPN5Catch22CumulativeReporterBase11SectionNodeEEOT_RNSt16remove_referenceIS6_E4typeE
FN:70,71,_ZSt7forwardIRKPN7AvlTree4NodeEEOT_RNSt16remove_referenceIS5_E4typeE
FN:70,71,_ZSt7forwardIRKSt21piecewise_construct_tEOT_RNSt16remove_referenceIS3_E4typeE
FN:70,71,_ZSt7forwardIRKSt4pairIKNSt7__cxx1112basic_stringIcSt11char_traitsIcESaIcEEES6_EEOT_RNSt16remove_referenceISB_E4typeE
FN:70,71,_ZSt7forwardIRKSt4pairINSt7__cxx1112basic_stringIcSt11char_traitsIcESaIcEEES6_EEOT_RNSt16remove_referenceISA_E4typeE
FN:70,71,_ZSt7forwardIRKSt4pairIccEEOT_RNSt16remove_referenceIS4_E4typeE
FN:70,71,_ZSt7forwardIRKSt6localeEOT_RNSt16remove_referenceIS3_E4typeE
FN:70,71,_ZSt7forwardIRKSt6vectorINSt7__cxx119sub_matchIN9__gnu_cxx17__normal_iteratorIPKcNS1_12basic_stringIcSt11char_traitsIcESaIcEEEEEEESaISD_EEEOT_RNSt16remove_referenceISI_E4typeE
FN:70,71,_ZSt7forwardIRKZN5Catch21makeCommandLineParserERNS0_10ConfigDataEEUlRKNSt7__cxx1112basic_stringIcSt11char_traitsIcESaIcEEEE0_EOT_RNSt16remove_referenceISE_E4typeE
FN:70,71,_ZSt7forwardIRKZN5Catch21makeCommandLineParserERNS0_10ConfigDataEEUlRKNSt7__cxx1112basic_stringIcSt11char_traitsIcESaIcEEEE1_EOT_RNSt16remove_referenceISE_E4typeE
FN:70,71,_ZSt7forwardIRKZN5Catch21makeCommandLineParserERNS0_10ConfigDataEEUlRKNSt7__cxx1112basic_stringIcSt11char_traitsIcESaIcEEEE2_EOT_RNSt16remove_referenceISE_E4typeE
FN:70,71,_ZSt7forwardIRKZN5Catch21makeCommandLineParserERNS0_10ConfigDataEEUlRKNSt7__cxx1112basic_stringIcSt11char_traitsIcESaIcEEEE3_EOT_RNSt16remove_referenceISE_E4typeE
FN:70,71,_ZSt7forwardIRKZN5Catch21makeCommandLineParserERNS0_10ConfigDataEEUlRKNSt7__cxx1112basic_stringIcSt11char_traitsIcESaIcEEEE4_EOT_RNSt16remove_referenceISE_E4typeE
FN:70,71,_ZSt7forwardIRKZN5Catch21makeCommandLineParserERNS0_10ConfigDataEEUlRKNSt7__cxx1112basic_stringIcSt11char_traitsIcESaIcEEEE5_EOT_RNSt16remove_referenceISE_E4typeE
FN:70,71,_ZSt7forwardIRKZN5Catch21makeCommandLineParserERNS0_10ConfigDataEEUlRKNSt7__cxx1112basic_stringIcSt11char_traitsIcESaIcEEEE6_EOT_RNSt16remove_referenceISE_E4typeE
FN:70,71,_ZSt7forwardIRKZN5Catch21makeCommandLineParserERNS0_10ConfigDataEEUlRKNSt7__cxx1112basic_stringIcSt11char_traitsIcESaIcEEEE7_EOT_RNSt16remove_referenceISE_E4typeE
FN:70,71,_ZSt7forwardIRKZN5Catch21makeCommandLineParserERNS0_10ConfigDataEEUlRKNSt7__cxx1112basic_stringIcSt11char_traitsIcESaIcEEEE8_EOT_RNSt16remove_referenceISE_E4typeE
FN:70,71,_ZSt7forwardIRKZN5Catch21makeCommandLineParserERNS0_10ConfigDataEEUlRKNSt7__cxx1112basic_stringIcSt11char_traitsIcESaIcEEEE_EOT_RNSt16remove_referenceISE_E4typeE
FN:70,71,_ZSt7forwardIRKZN5Catch21makeCommandLineParserERNS0_10ConfigDataEEUlbE0_EOT_RNSt16remove_referenceIS6_E4typeE
FN:70,71,_ZSt7forwardIRKZN5Catch21makeCommandLineParserERNS0_10ConfigDataEEUlbE_EOT_RNSt16remove_referenceIS6_E4typeE
FN:70,71,_ZSt7forwardIRKZN5Catch21makeCommandLineParserERNS0_10ConfigDataEEUliE_EOT_RNSt16remove_referenceIS6_E4typeE
FN:70,71,_ZSt7forwardIRKZN5Catch5Clara4HelpC4ERbEUlbE_EOT_RNSt16remove_referenceIS7_E4typeE
FN:70,71,_ZSt7forwardIRKcEOT_RNSt16remove_referenceIS2_E4typeE
FN:70,71,_ZSt7forwardIRKdEOT_RNSt16remove_referenceIS2_E4typeE
FN:70,71,_ZSt7forwardIRKlEOT_RNSt16remove_referenceIS2_E4typeE
FN:70,71,_ZSt7forwardIRKmEOT_RNSt16remove_referenceIS2_E4typeE
FN:70,71,_ZSt7forwardIRN5Catch12ReporterSpecEEOT_RNSt16remove_referenceIS3_E4typeE
FN:70,71,_ZSt7forwardIRN5Catch5Clara3ArgEEOT_RNSt16remove_referenceIS4_E4typeE
FN:70,71,_ZSt7forwardIRN5Catch5Clara3OptEEOT_RNSt16remove_referenceIS4_E4typeE
FN:70,71,_ZSt7forwardIRN5Catch6Detail10unique_ptrINS0_16IReporterFactoryEEEEOT_RNSt16remove_referenceIS6_E4typeE
FN:70,71,_ZSt7forwardIRN5Catch9ResultWas6OfTypeEEOT_RNSt16remove_referenceIS4_E4typeE
FN:70,71,_ZSt7forwardIRN5Catch9StringRefEEOT_RNSt16remove_referenceIS3_E4typeE
FN:70,71,_ZSt7forwardIRNSt15regex_constants18syntax_option_typeEEOT_RNSt16remove_referenceIS3_E4typeE
FN:70,71,_ZSt7forwardIRNSt7__cxx1112basic_stringIcSt11char_traitsIcESaIcEEEEOT_RNSt16remove_referenceIS7_E4typeE
FN:70,71,_ZSt7forwardIRNSt7__cxx119sub_matchIN9__gnu_cxx17__normal_iteratorIPKcNS0_12basic_stringIcSt11char_traitsIcESaIcEEEEEEEEOT_RNSt16remove_referenceISE_E4typeE
FN:70,71,_ZSt7forwardIRNSt8__detail11_AnyMatcherINSt7__cxx1112regex_traitsIcEELb0ELb0ELb0EEEEOT_RNSt16remove_referenceIS7_E4typeE
FN:70,71,_ZSt7forwardIRNSt8__detail11_AnyMatcherINSt7__cxx1112regex_traitsIcEELb0ELb0ELb1EEEEOT_RNSt16remove_referenceIS7_E4typeE
FN:70,71,_ZSt7forwardIRNSt8__detail11_AnyMatcherINSt7__cxx1112regex_traitsIcEELb0ELb1ELb0EEEEOT_RNSt16remove_referenceIS7_E4typeE
FN:70,71,_ZSt7forwardIRNSt8__detail11_AnyMatcherINSt7__cxx1112regex_traitsIcEELb0ELb1ELb1EEEEOT_RNSt16remove_referenceIS7_E4typeE
FN:70,71,_ZSt7forwardIRNSt8__detail11_AnyMatcherINSt7__cxx1112regex_traitsIcEELb1ELb0ELb0EEEEOT_RNSt16remove_referenceIS7_E4typeE
FN:70,71,_ZSt7forwardIRNSt8__detail11_AnyMatcherINSt7__cxx1112regex_traitsIcEELb1ELb0ELb1EEEEOT_RNSt16remove_referenceIS7_E4typeE
FN:70,71,_ZSt7forwardIRNSt8__detail11_AnyMatcherINSt7__cxx1112regex_traitsIcEELb1ELb1ELb0EEEEOT_RNSt16remove_referenceIS7_E4typeE
FN:70,71,_ZSt7forwardIRNSt8__detail11_AnyMatcherINSt7__cxx1112regex_traitsIcEELb1ELb1ELb1EEEEOT_RNSt16remove_referenceIS7_E4typeE
FN:70,71,_ZSt7forwardIRNSt8__detail12_CharMatcherINSt7__cxx1112regex_traitsIcEELb0ELb0EEEEOT_RNSt16remove_referenceIS7_E4typeE
FN:70,71,_ZSt7forwardIRNSt8__detail12_CharMatcherINSt7__cxx1112regex_traitsIcEELb0ELb1EEEEOT_RNSt16remove_referenceIS7_E4typeE
FN:70,71,_ZSt7forwardIRNSt8__detail12_CharMatcherINSt7__cxx1112regex_traitsIcEELb1ELb0EEEEOT_RNSt16remove_referenceIS7_E4typeE
FN:70,71,_ZSt7forwardIRNSt8__detail12_CharMatcherINSt7__cxx1112regex_traitsIcEELb1ELb1EEEEOT_RNSt16remove_referenceIS7_E4typeE
FN:70,71,_ZSt7forwardIRNSt8__detail15_BracketMatcherINSt7__cxx1112regex_traitsIcEELb0ELb0EEEEOT_RNSt16remove_referenceIS7_E4typeE
FN:70,71,_ZSt7forwardIRNSt8__detail15_BracketMatcherINSt7__cxx1112regex_traitsIcEELb0ELb1EEEEOT_RNSt16remove_referenceIS7_E4typeE
FN:70,71,_ZSt7forwardIRNSt8__detail15_BracketMatcherINSt7__cxx1112regex_traitsIcEELb1ELb0EEEEOT_RNSt16remove_referenceIS7_E4typeE
FN:70,71,_ZSt7forwardIRNSt8__detail15_BracketMatcherINSt7__cxx1112regex_traitsIcEELb1ELb1EEEEOT_RNSt16remove_referenceIS7_E4typeE
FN:70,71,_ZSt7forwardIRPSt13_Rb_tree_nodeIN5Catch9StringRefEEEOT_RNSt16remove_referenceIS6_E4typeE
FN:70,71,_ZSt7forwardIRPSt13_Rb_tree_nodeIPKN5Catch12TestCaseInfoEEEOT_RNSt16remove_referenceIS8_E4typeE
FN:70,71,_ZSt7forwardIRPSt13_Rb_tree_nodeIPKN5Catch14TestCaseHandleEEEOT_RNSt16remove_referenceIS8_E4typeE
FN:70,71,_ZSt7forwardIRPSt13_Rb_tree_nodeISt4pairIKN5Catch9StringRefENS2_7TagInfoEEEEOT_RNSt16remove_referenceISA_E4typeE
FN:70,71,_ZSt7forwardIRPSt13_Rb_tree_nodeISt4pairIKN5Catch9StringRefESt6vectorIPKNS2_22CumulativeReporterBase4NodeINS2_13TestCaseStatsENS6_11SectionNodeEEESaISC_EEEEEOT_RNSt16remove_referenceISJ_E4typeE
FN:70,71,_ZSt7forwardIRPSt13_Rb_tree_nodeISt4pairIKNSt7__cxx1112basic_stringIcSt11char_traitsIcESaIcEEEN5Catch6Detail10unique_ptrINS9_16IReporterFactoryEEEEEEOT_RNSt16remove_referenceISI_E4typeE
FN:70,71,_ZSt7forwardIRPSt13_Rb_tree_nodeISt4pairIKNSt7__cxx1112basic_stringIcSt11char_traitsIcESaIcEEEN5Catch8TagAliasEEEEOT_RNSt16remove_referenceISF_E4typeE
FN:70,71,_ZSt7forwardIRPSt13_Rb_tree_nodeISt4pairIKNSt7__cxx1112basic_stringIcSt11char_traitsIcESaIcEEES7_EEEOT_RNSt16remove_referenceISD_E4typeE
FN:70,71,_ZSt7forwardIRPSt13_Rb_tree_nodeISt4pairIKllEEEOT_RNSt16remove_referenceIS7_E4typeE
FN:70,71,_ZSt7forwardIRPSt18_Rb_tree_node_baseEOT_RNSt16remove_referenceIS3_E4typeE
FN:70,71,_ZSt7forwardIRSoEOT_RNSt16remove_referenceIS1_E4typeE
FN:70,71,_ZSt7forwardIRSt17_Rb_tree_iteratorIN5Catch9StringRefEEEOT_RNSt16remove_referenceIS5_E4typeE
FN:70,71,_ZSt7forwardIRSt17_Rb_tree_iteratorIPKN5Catch12TestCaseInfoEEEOT_RNSt16remove_referenceIS7_E4typeE
FN:70,71,_ZSt7forwardIRSt17_Rb_tree_iteratorISt4pairIKN5Catch9StringRefENS2_7TagInfoEEEEOT_RNSt16remove_referenceIS9_E4typeE
FN:70,71,_ZSt7forwardIRSt17_Rb_tree_iteratorISt4pairIKNSt7__cxx1112basic_stringIcSt11char_traitsIcESaIcEEEN5Catch6Detail10unique_ptrINS9_16IReporterFactoryEEEEEEOT_RNSt16remove_referenceISH_E4typeE
FN:70,71,_ZSt7forwardIRSt17_Rb_tree_iteratorISt4pairIKNSt7__cxx1112basic_stringIcSt11char_traitsIcESaIcEEEN5Catch8TagAliasEEEEOT_RNSt16remove_referenceISE_E4typeE
FN:70,71,_ZSt7forwardIRSt17_Rb_tree_iteratorISt4pairIKNSt7__cxx1112basic_stringIcSt11char_traitsIcESaIcEEES7_EEEOT_RNSt16remove_referenceISC_E4typeE
FN:70,71,_ZSt7forwardIRSt6vectorINSt7__cxx1112basic_stringIcSt11char_traitsIcESaIcEEESaIS6_EEEOT_RNSt16remove_referenceISA_E4typeE
FN:70,71,_ZSt7forwardIRbEOT_RNSt16remove_referenceIS1_E4typeE
FN:70,71,_ZSt7forwardIRdEOT_RNSt16remove_referenceIS1_E4typeE
FN:70,71,_ZSt7forwardIRiEOT_RNSt16remove_referenceIS1_E4typeE
FN:70,71,_ZSt7forwardIRjEOT_RNSt16remove_referenceIS1_E4typeE
FN:70,71,_ZSt7forwardIRlEOT_RNSt16remove_referenceIS1_E4typeE
FN:70,71,_ZSt7forwardIRmEOT_RNSt16remove_referenceIS1_E4typeE
FN:70,71,_ZSt7forwardISt17_Rb_tree_iteratorIN5Catch9StringRefEEEOT_RNSt16remove_referenceIS4_E4typeE
FN:70,71,_ZSt7forwardISt17_Rb_tree_iteratorIPKN5Catch12TestCaseInfoEEEOT_RNSt16remove_referenceIS6_E4typeE
FN:70,71,_ZSt7forwardISt17_Rb_tree_iteratorIPKN5Catch14TestCaseHandleEEEOT_RNSt16remove_referenceIS6_E4typeE
FN:70,71,_ZSt7forwardISt4pairIN5Catch9StringRefENS1_7TagInfoEEEOT_RNSt16remove_referenceIS5_E4typeE
FN:70,71,_ZSt7forwardISt4pairINSt7__cxx1112basic_stringIcSt11char_traitsIcESaIcEEEN5Catch8TagAliasEEEOT_RNSt16remove_referenceISA_E4typeE
FN:70,71,_ZSt7forwardISt4pairINSt7__cxx1112basic_stringIcSt11char_traitsIcESaIcEEES6_EEOT_RNSt16remove_referenceIS8_E4typeE
FN:70,71,_ZSt7forwardISt4pairIccEEOT_RNSt16remove_referenceIS2_E4typeE
FN:70,71,_ZSt7forwardISt4pairIiN5Catch9StringRefEEEOT_RNSt16remove_referenceIS4_E4typeE
FN:70,71,_ZSt7forwardISt4pairIlSt6vectorINSt7__cxx119sub_matchIN9__gnu_cxx17__normal_iteratorIPKcNS2_12basic_stringIcSt11char_traitsIcESaIcEEEEEEESaISE_EEEEOT_RNSt16remove_referenceISI_E4typeE
FN:70,71,_ZSt7forwardISt4pairImN5Catch14TestCaseHandleEEEOT_RNSt16remove_referenceIS4_E4typeE
FN:70,71,_ZSt7forwardISt5tupleIJEEEOT_RNSt16remove_referenceIS2_E4typeE
FN:70,71,_ZSt7forwardISt5tupleIJON5Catch9StringRefEEEEOT_RNSt16remove_referenceIS5_E4typeE
FN:70,71,_ZSt7forwardISt5tupleIJONSt7__cxx1112basic_stringIcSt11char_traitsIcESaIcEEEEEEOT_RNSt16remove_referenceIS9_E4typeE
FN:70,71,_ZSt7forwardISt5tupleIJRKlEEEOT_RNSt16remove_referenceIS4_E4typeE
FN:70,71,_ZSt7forwardIZNK5Catch5Clara6Parser5parseERKNSt7__cxx1112basic_stringIcSt11char_traitsIcESaIcEEENS1_6Detail11TokenStreamEE10ParserInfoEOT_RNSt16remove_referenceISE_E4typeE
FN:70,71,_ZSt7forwardIbEOT_RNSt16remove_referenceIS0_E4typeE
FN:70,71,_ZSt7forwardIcEOT_RNSt16remove_referenceIS0_E4typeE
FN:70,71,_ZSt7forwardIdEOT_RNSt16remove_referenceIS0_E4typeE
FN:70,71,_ZSt7forwardIjEOT_RNSt16remove_referenceIS0_E4typeE
FN:70,71,_ZSt7forwardImEOT_RNSt16remove_referenceIS0_E4typeE
FN:97,98,_ZSt4moveIR13HashTableOpenEONSt16remove_referenceIT_E4typeEOS3_
FN:97,98,_ZSt4moveIR5QueueEONSt16remove_referenceIT_E4typeEOS3_
FN:97,98,_ZSt4moveIR7AvlTreeEONSt16remove_referenceIT_E4typeEOS3_
FN:97,98,_ZSt4moveIR7MyArrayEONSt16remove_referenceIT_E4typeEOS3_
FN:97,98,_ZSt4moveIR9HashTableEONSt16remove_referenceIT_E4typeEOS3_
FN:97,98,_ZSt4moveIRN5Catch11MessageInfoEEONSt16remove_referenceIT_E4typeEOS4_
FN:97,98,_ZSt4moveIRN5Catch11SectionInfoEEONSt16remove_referenceIT_E4typeEOS4_
FN:97,98,_ZSt4moveIRN5Catch12ReporterSpecEEONSt16remove_referenceIT_E4typeEOS4_
FN:97,98,_ZSt4moveIRN5Catch12_GLOBAL__N_113BySectionInfoEEONSt16remove_referenceIT_E4typeEOS5_
FN:97,98,_ZSt4moveIRN5Catch12_GLOBAL__N_113SummaryColumnEEONSt16remove_referenceIT_E4typeEOS5_
FN:97,98,_ZSt4moveIRN5Catch13ScopedMessageEEONSt16remove_referenceIT_E4typeEOS4_
FN:97,98,_ZSt4moveIRN5Catch14SectionEndInfoEEONSt16remove_referenceIT_E4typeEOS4_
FN:97,98,_ZSt4moveIRN5Catch14TestCaseHandleEEONSt16remove_referenceIT_E4typeEOS4_
FN:97,98,_ZSt4moveIRN5Catch19ListenerDescriptionEEONSt16remove_referenceIT_E4typeEOS4_
FN:97,98,_ZSt4moveIRN5Catch19ReporterDescriptionEEONSt16remove_referenceIT_E4typeEOS4_
FN:97,98,_ZSt4moveIRN5Catch21ProcessedReporterSpecEEONSt16remove_referenceIT_E4typeEOS4_
FN:97,98,_ZSt4moveIRN5Catch3TagEEONSt16remove_referenceIT_E4typeEOS4_
FN:97,98,_ZSt4moveIRN5Catch5Clara3ArgEEONSt16remove_referenceIT_E4typeEOS5_
FN:97,98,_ZSt4moveIRN5Catch5Clara3OptEEONSt16remove_referenceIT_E4typeEOS5_
FN:97,98,_ZSt4moveIRN5Catch5Clara6Detail11HelpColumnsEEONSt16remove_referenceIT_E4typeEOS6_
FN:97,98,_ZSt4moveIRN5Catch5Clara6Detail5TokenEEONSt16remove_referenceIT_E4typeEOS6_
FN:97,98,_ZSt4moveIRN5Catch6Colour4CodeEEONSt16remove_referenceIT_E4typeEOS5_
FN:97,98,_ZSt4moveIRN5Catch6Detail10unique_ptrIKNS0_20IExceptionTranslatorEEEEONSt16remove_referenceIT_E4typeEOS8_
FN:97,98,_ZSt4moveIRN5Catch6Detail10unique_ptrINS0_12ITestInvokerEEEEONSt16remove_referenceIT_E4typeEOS7_
FN:97,98,_ZSt4moveIRN5Catch6Detail10unique_ptrINS0_12TestCaseInfoEEEEONSt16remove_referenceIT_E4typeEOS7_
FN:97,98,_ZSt4moveIRN5Catch6Detail10unique_ptrINS0_14IEventListenerEEEEONSt16remove_referenceIT_E4typeEOS7_
FN:97,98,_ZSt4moveIRN5Catch6Detail10unique_ptrINS0_16TestCaseTracking8ITrackerEEEEONSt16remove_referenceIT_E4typeEOS8_
FN:97,98,_ZSt4moveIRN5Catch6Detail10unique_ptrINS0_20EventListenerFactoryEEEEONSt16remove_referenceIT_E4typeEOS7_
FN:97,98,_ZSt4moveIRN5Catch6Detail10unique_ptrINS0_22CumulativeReporterBase11SectionNodeEEEEONSt16remove_referenceIT_E4typeEOS8_
FN:97,98,_ZSt4moveIRN5Catch6Detail10unique_ptrINS0_22CumulativeReporterBase4NodeINS0_13TestCaseStatsENS3_11SectionNodeEEEEEEONSt16remove_referenceIT_E4typeEOSB_
FN:97,98,_ZSt4moveIRN5Catch6Detail10unique_ptrINS0_8TestSpec7PatternEEEEONSt16remove_referenceIT_E4typeEOS8_
FN:97,98,_ZSt4moveIRN5Catch6Detail10unique_ptrINS1_8EnumInfoEEEEONSt16remove_referenceIT_E4typeEOS7_
FN:97,98,_ZSt4moveIRN5Catch6Detail10unique_ptrINSt7__cxx1119basic_ostringstreamIcSt11char_traitsIcESaIcEEEEEEONSt16remove_referenceIT_E4typeEOSC_
FN:97,98,_ZSt4moveIRN5Catch7TagInfoEEONSt16remove_referenceIT_E4typeEOS4_
FN:97,98,_ZSt4moveIRN5Catch8TestSpec11FilterMatchEEONSt16remove_referenceIT_E4typeEOS5_
FN:97,98,_ZSt4moveIRN5Catch8TestSpec6FilterEEONSt16remove_referenceIT_E4typeEOS5_
FN:97,98,_ZSt4moveIRN5Catch8TextFlow6Column14const_iteratorEEONSt16remove_referenceIT_E4typeEOS6_
FN:97,98,_ZSt4moveIRN5Catch8TextFlow6ColumnEEONSt16remove_referenceIT_E4typeEOS5_
FN:97,98,_ZSt4moveIRN5Catch9StringRefEEONSt16remove_referenceIT_E4typeEOS4_
FN:97,98,_ZSt4moveIRN9__gnu_cxx5__ops15_Iter_comp_iterIZN5Catch9sortTestsERKNS3_7IConfigERKSt6vectorINS3_14TestCaseHandleESaIS8_EEEUlRKS8_SE_E_EEEONSt16remove_referenceIT_E4typeEOSJ_
FN:97,98,_ZSt4moveIRN9__gnu_cxx5__ops15_Iter_comp_iterIZN5Catch9sortTestsERKNS3_7IConfigERKSt6vectorINS3_14TestCaseHandleESaIS8_EEEUlRKSt4pairImS8_ESG_E_EEEONSt16remove_referenceIT_E4typeEOSL_
FN:97,98,_ZSt4moveIRN9__gnu_cxx5__ops15_Iter_less_iterEEONSt16remove_referenceIT_E4typeEOS5_
FN:97,98,_ZSt4moveIRNSt12_Vector_baseIN5Catch10ColumnInfoESaIS2_EE12_Vector_implEEONSt16remove_referenceIT_E4typeEOS8_
FN:97,98,_ZSt4moveIRNSt12_Vector_baseIN5Catch14TestCaseHandleESaIS2_EE12_Vector_implEEONSt16remove_referenceIT_E4typeEOS8_
FN:97,98,_ZSt4moveIRNSt12_Vector_baseIN5Catch5Clara3ArgESaIS3_EE12_Vector_implEEONSt16remove_referenceIT_E4typeEOS9_
FN:97,98,_ZSt4moveIRNSt12_Vector_baseIN5Catch5Clara3OptESaIS3_EE12_Vector_implEEONSt16remove_referenceIT_E4typeEOS9_
FN:97,98,_ZSt4moveIRNSt12_Vector_baseIN5Catch5Clara6Detail5TokenESaIS4_EE12_Vector_implEEONSt16remove_referenceIT_E4typeEOSA_
FN:97,98,_ZSt4moveIRNSt12_Vector_baseIN5Catch6Detail10unique_ptrINS1_8TestSpec7PatternEEESaIS6_EE12_Vector_implEEONSt16remove_referenceIT_E4typeEOSC_
FN:97,98,_ZSt4moveIRNSt12_Vector_baseIN5Catch8TestSpec6FilterESaIS3_EE12_Vector_implEEONSt16remove_referenceIT_E4typeEOS9_
FN:97,98,_ZSt4moveIRNSt12_Vector_baseIN5Catch8TextFlow6ColumnESaIS3_EE12_Vector_implEEONSt16remove_referenceIT_E4typeEOS9_
FN:97,98,_ZSt4moveIRNSt12_Vector_baseIN5Catch9StringRefESaIS2_EE12_Vector_implEEONSt16remove_referenceIT_E4typeEOS8_
FN:97,98,_ZSt4moveIRNSt12_Vector_baseINSt6chrono8durationIdSt5ratioILl1ELl1000000000EEEESaIS5_EE12_Vector_implEEONSt16remove_referenceIT_E4typeEOSB_
FN:97,98,_ZSt4moveIRNSt12_Vector_baseINSt7__cxx1112basic_stringIcSt11char_traitsIcESaIcEEESaIS6_EE12_Vector_implEEONSt16remove_referenceIT_E4typeEOSC_
FN:97,98,_ZSt4moveIRNSt12_Vector_baseINSt7__cxx1112regex_traitsIcE10_RegexMaskESaIS4_EE12_Vector_implEEONSt16remove_referenceIT_E4typeEOSA_
FN:97,98,_ZSt4moveIRNSt12_Vector_baseINSt7__cxx119sub_matchIN9__gnu_cxx17__normal_iteratorIPKcNS1_12basic_stringIcSt11char_traitsIcESaIcEEEEEEESaISD_EE12_Vector_implEEONSt16remove_referenceIT_E4typeEOSJ_
FN:97,98,_ZSt4moveIRNSt12_Vector_baseIPKN5Catch14TestCaseHandleESaIS4_EE12_Vector_implEEONSt16remove_referenceIT_E4typeEOSA_
FN:97,98,_ZSt4moveIRNSt12_Vector_baseISt4pairINSt7__cxx1112basic_stringIcSt11char_traitsIcESaIcEEES7_ESaIS8_EE12_Vector_implEEONSt16remove_referenceIT_E4typeEOSE_
FN:97,98,_ZSt4moveIRNSt12_Vector_baseISt4pairIccESaIS2_EE12_Vector_implEEONSt16remove_referenceIT_E4typeEOS8_
FN:97,98,_ZSt4moveIRNSt12_Vector_baseISt4pairIlSt6vectorINSt7__cxx119sub_matchIN9__gnu_cxx17__normal_iteratorIPKcNS3_12basic_stringIcSt11char_traitsIcESaIcEEEEEEESaISF_EEESaISI_EE12_Vector_implEEONSt16remove_referenceIT_E4typeEOSO_
FN:97,98,_ZSt4moveIRNSt12_Vector_baseIcSaIcEE12_Vector_implEEONSt16remove_referenceIT_E4typeEOS6_
FN:97,98,_ZSt4moveIRNSt12_Vector_baseIdSaIdEE12_Vector_implEEONSt16remove_referenceIT_E4typeEOS6_
FN:97,98,_ZSt4moveIRNSt15__exception_ptr13exception_ptrEEONSt16remove_referenceIT_E4typeEOS4_
FN:97,98,_ZSt4moveIRNSt6chrono8durationIdSt5ratioILl1ELl1000000000EEEEEONSt16remove_referenceIT_E4typeEOS7_
FN:97,98,_ZSt4moveIRNSt7__cxx1112basic_stringIcSt11char_traitsIcESaIcEEEEONSt16remove_referenceIT_E4typeEOS8_
FN:97,98,_ZSt4moveIRNSt7__cxx1112regex_traitsIcE10_RegexMaskEEONSt16remove_referenceIT_E4typeEOS6_
FN:97,98,_ZSt4moveIRNSt8__detail15_BracketMatcherINSt7__cxx1112regex_traitsIcEELb0ELb0EEEEONSt16remove_referenceIT_E4typeEOS8_
FN:97,98,_ZSt4moveIRNSt8__detail15_BracketMatcherINSt7__cxx1112regex_traitsIcEELb0ELb1EEEEONSt16remove_referenceIT_E4typeEOS8_
FN:97,98,_ZSt4moveIRNSt8__detail15_BracketMatcherINSt7__cxx1112regex_traitsIcEELb1ELb0EEEEONSt16remove_referenceIT_E4typeEOS8_
FN:97,98,_ZSt4moveIRNSt8__detail15_BracketMatcherINSt7__cxx1112regex_traitsIcEELb1ELb1EEEEONSt16remove_referenceIT_E4typeEOS8_
FN:97,98,_ZSt4moveIRNSt8__detail6_StateIcEEEONSt16remove_referenceIT_E4typeEOS5_
FN:97,98,_ZSt4moveIRNSt8__detail9_StateSeqINSt7__cxx1112regex_traitsIcEEEEEONSt16remove_referenceIT_E4typeEOS8_
FN:97,98,_ZSt4moveIRPFbRKSt9_Any_dataOcEEONSt16remove_referenceIT_E4typeEOS8_
FN:97,98,_ZSt4moveIRPFbRSt9_Any_dataRKS0_St18_Manager_operationEEONSt16remove_referenceIT_E4typeEOS9_
FN:97,98,_ZSt4moveIRPKN5Catch10ColourImplEEONSt16remove_referenceIT_E4typeEOS6_
FN:97,98,_ZSt4moveIRPKN5Catch22CumulativeReporterBase4NodeINS0_13TestCaseStatsENS1_11SectionNodeEEEEONSt16remove_referenceIT_E4typeEOSA_
FN:97,98,_ZSt4moveIRPKNSt8__detail4_NFAINSt7__cxx1112regex_traitsIcEEEEEONSt16remove_referenceIT_E4typeEOSA_
FN:97,98,_ZSt4moveIRPN5Catch12TestCaseInfoEEONSt16remove_referenceIT_E4typeEOS5_
FN:97,98,_ZSt4moveIRPN5Catch16TestCaseTracking8ITrackerEEONSt16remove_referenceIT_E4typeEOS6_
FN:97,98,_ZSt4moveIRPN5Catch5Clara3ArgEEONSt16remove_referenceIT_E4typeEOS6_
FN:97,98,_ZSt4moveIRPN5Catch5Clara3OptEEONSt16remove_referenceIT_E4typeEOS6_
FN:97,98,_ZSt4moveIRPN5Catch5Clara6Detail17BoundValueRefBaseEEONSt16remove_referenceIT_E4typeEOS7_
FN:97,98,_ZSt4moveIRPN5Catch5Clara6Detail8BoundRefEEONSt16remove_referenceIT_E4typeEOS7_
FN:97,98,_ZSt4moveIRPN5Catch9StringRefEEONSt16remove_referenceIT_E4typeEOS5_
FN:97,98,_ZSt4moveIRPN5Queue4NodeEEONSt16remove_referenceIT_E4typeEOS5_
FN:97,98,_ZSt4moveIRPN7AvlTree4NodeEEONSt16remove_referenceIT_E4typeEOS5_
FN:97,98,_ZSt4moveIRPNSt7__cxx1112basic_stringIcSt11char_traitsIcESaIcEEEEONSt16remove_referenceIT_E4typeEOS9_
FN:97,98,_ZSt4moveIRSaIN5Catch14TestCaseHandleEEEONSt16remove_referenceIT_E4typeEOS5_
FN:97,98,_ZSt4moveIRSaIN5Catch5Clara3ArgEEEONSt16remove_referenceIT_E4typeEOS6_
FN:97,98,_ZSt4moveIRSaIN5Catch5Clara3OptEEEONSt16remove_referenceIT_E4typeEOS6_
FN:97,98,_ZSt4moveIRSaIN5Catch6Detail10unique_ptrINS0_8TestSpec7PatternEEEEEONSt16remove_referenceIT_E4typeEOS9_
FN:97,98,_ZSt4moveIRSaIN5Catch8TestSpec11FilterMatchEEEONSt16remove_referenceIT_E4typeEOS6_
FN:97,98,_ZSt4moveIRSaIN5Catch8TestSpec6FilterEEEONSt16remove_referenceIT_E4typeEOS6_
FN:97,98,_ZSt4moveIRSaIN5Catch9StringRefEEEONSt16remove_referenceIT_E4typeEOS5_
FN:97,98,_ZSt4moveIRSaINSt7__cxx1112basic_stringIcSt11char_traitsIcESaIcEEEEEONSt16remove_referenceIT_E4typeEOS9_
FN:97,98,_ZSt4moveIRSaINSt7__cxx119sub_matchIN9__gnu_cxx17__normal_iteratorIPKcNS0_12basic_stringIcSt11char_traitsIcESaIcEEEEEEEEEONSt16remove_referenceIT_E4typeEOSG_
FN:97,98,_ZSt4moveIRSaISt13_Rb_tree_nodeIPKN5Catch12TestCaseInfoEEEEONSt16remove_referenceIT_E4typeEOS9_
FN:97,98,_ZSt4moveIRSaISt13_Rb_tree_nodeIPKN5Catch14TestCaseHandleEEEEONSt16remove_referenceIT_E4typeEOS9_
FN:97,98,_ZSt4moveIRSaIcEEONSt16remove_referenceIT_E4typeEOS3_
FN:97,98,_ZSt4moveIRSt10shared_ptrIKNSt8__detail4_NFAINSt7__cxx1112regex_traitsIcEEEEEEONSt16remove_referenceIT_E4typeEOSB_
FN:97,98,_ZSt4moveIRSt10shared_ptrIN5Catch5Clara6Detail11BoundLambdaIZNS1_21makeCommandLineParserERNS1_10ConfigDataEEUlRKNSt7__cxx1112basic_stringIcSt11char_traitsIcESaIcEEEE0_EEEEONSt16remove_referenceIT_E4typeEOSK_
FN:97,98,_ZSt4moveIRSt10shared_ptrIN5Catch5Clara6Detail11BoundLambdaIZNS1_21makeCommandLineParserERNS1_10ConfigDataEEUlRKNSt7__cxx1112basic_stringIcSt11char_traitsIcESaIcEEEE1_EEEEONSt16remove_referenceIT_E4typeEOSK_
FN:97,98,_ZSt4moveIRSt10shared_ptrIN5Catch5Clara6Detail11BoundLambdaIZNS1_21makeCommandLineParserERNS1_10ConfigDataEEUlRKNSt7__cxx1112basic_stringIcSt11char_traitsIcESaIcEEEE2_EEEEONSt16remove_referenceIT_E4typeEOSK_
FN:97,98,_ZSt4moveIRSt10shared_ptrIN5Catch5Clara6Detail11BoundLambdaIZNS1_21makeCommandLineParserERNS1_10ConfigDataEEUlRKNSt7__cxx1112basic_stringIcSt11char_traitsIcESaIcEEEE3_EEEEONSt16remove_referenceIT_E4typeEOSK_
FN:97,98,_ZSt4moveIRSt10shared_ptrIN5Catch5Clara6Detail11BoundLambdaIZNS1_21makeCommandLineParserERNS1_10ConfigDataEEUlRKNSt7__cxx1112basic_stringIcSt11char_traitsIcESaIcEEEE4_EEEEONSt16remove_referenceIT_E4typeEOSK_
FN:97,98,_ZSt4moveIRSt10shared_ptrIN5Catch5Clara6Detail11BoundLambdaIZNS1_21makeCommandLineParserERNS1_10ConfigDataEEUlRKNSt7__cxx1112basic_stringIcSt11char_traitsIcESaIcEEEE5_EEEEONSt16remove_referenceIT_E4typeEOSK_
FN:97,98,_ZSt4moveIRSt10shared_ptrIN5Catch5Clara6Detail11BoundLambdaIZNS1_21makeCommandLineParserERNS1_10ConfigDataEEUlRKNSt7__cxx1112basic_stringIcSt11char_traitsIcESaIcEEEE7_EEEEONSt16remove_referenceIT_E4typeEOSK_
FN:97,98,_ZSt4moveIRSt10shared_ptrIN5Catch5Clara6Detail11BoundLambdaIZNS1_21makeCommandLineParserERNS1_10ConfigDataEEUlRKNSt7__cxx1112basic_stringIcSt11char_traitsIcESaIcEEEE8_EEEEONSt16remove_referenceIT_E4typeEOSK_
FN:97,98,_ZSt4moveIRSt10shared_ptrIN5Catch5Clara6Detail11BoundLambdaIZNS1_21makeCommandLineParserERNS1_10ConfigDataEEUlbE0_EEEEONSt16remove_referenceIT_E4typeEOSC_
FN:97,98,_ZSt4moveIRSt10shared_ptrIN5Catch5Clara6Detail11BoundLambdaIZNS1_21makeCommandLineParserERNS1_10ConfigDataEEUliE_EEEEONSt16remove_referenceIT_E4typeEOSC_
FN:97,98,_ZSt4moveIRSt10shared_ptrIN5Catch5Clara6Detail12BoundFlagRefEEEONSt16remove_referenceIT_E4typeEOS8_
FN:97,98,_ZSt4moveIRSt10shared_ptrIN5Catch5Clara6Detail13BoundValueRefINSt7__cxx1112basic_stringIcSt11char_traitsIcESaIcEEEEEEEONSt16remove_referenceIT_E4typeEOSF_
FN:97,98,_ZSt4moveIRSt10shared_ptrIN5Catch5Clara6Detail13BoundValueRefISt6vectorINSt7__cxx1112basic_stringIcSt11char_traitsIcESaIcEEESaISB_EEEEEEONSt16remove_referenceIT_E4typeEOSI_
FN:97,98,_ZSt4moveIRSt10shared_ptrIN5Catch5Clara6Detail13BoundValueRefIdEEEEONSt16remove_referenceIT_E4typeEOS9_
FN:97,98,_ZSt4moveIRSt10shared_ptrIN5Catch5Clara6Detail13BoundValueRefIjEEEEONSt16remove_referenceIT_E4typeEOS9_
FN:97,98,_ZSt4moveIRSt10shared_ptrIN5Catch5Clara6Detail13BoundValueRefIlEEEEONSt16remove_referenceIT_E4typeEOS9_
FN:97,98,_ZSt4moveIRSt10shared_ptrIN5Catch5Clara6Detail15BoundFlagLambdaIZNS1_21makeCommandLineParserERNS1_10ConfigDataEEUlbE_EEEEONSt16remove_referenceIT_E4typeEOSC_
FN:97,98,_ZSt4moveIRSt10shared_ptrIN5Catch5Clara6Detail15BoundFlagLambdaIZNS2_4HelpC4ERbEUlbE_EEEEONSt16remove_referenceIT_E4typeEOSC_
FN:97,98,_ZSt4moveIRSt10shared_ptrIN5Catch5Clara6Detail15BoundManyLambdaIZNS1_21makeCommandLineParserERNS1_10ConfigDataEEUlRKNSt7__cxx1112basic_stringIcSt11char_traitsIcESaIcEEEE6_EEEEONSt16remove_referenceIT_E4typeEOSK_
FN:97,98,_ZSt4moveIRSt10shared_ptrIN5Catch5Clara6Detail15BoundManyLambdaIZNS1_21makeCommandLineParserERNS1_10ConfigDataEEUlRKNSt7__cxx1112basic_stringIcSt11char_traitsIcESaIcEEEE_EEEEONSt16remove_referenceIT_E4typeEOSK_
FN:97,98,_ZSt4moveIRSt10shared_ptrIN5Catch5Clara6Detail17BoundValueRefBaseEEEONSt16remove_referenceIT_E4typeEOS8_
FN:97,98,_ZSt4moveIRSt10shared_ptrIN5Catch5Clara6Detail8BoundRefEEEONSt16remove_referenceIT_E4typeEOS8_
FN:97,98,_ZSt4moveIRSt10shared_ptrINSt7__cxx1112basic_stringIcSt11char_traitsIcESaIcEEEEEONSt16remove_referenceIT_E4typeEOSA_
FN:97,98,_ZSt4moveIRSt10shared_ptrINSt8__detail4_NFAINSt7__cxx1112regex_traitsIcEEEEEEONSt16remove_referenceIT_E4typeEOSA_
FN:97,98,_ZSt4moveIRSt12__shared_ptrIKNSt8__detail4_NFAINSt7__cxx1112regex_traitsIcEEEELN9__gnu_cxx12_Lock_policyE2EEEONSt16remove_referenceIT_E4typeEOSD_
FN:97,98,_ZSt4moveIRSt12__shared_ptrIN5Catch5Clara6Detail13BoundValueRefINSt7__cxx1112basic_stringIcSt11char_traitsIcESaIcEEEEELN9__gnu_cxx12_Lock_policyE2EEEONSt16remove_referenceIT_E4typeEOSH_
FN:97,98,_ZSt4moveIRSt12__shared_ptrIN5Catch5Clara6Detail17BoundValueRefBaseELN9__gnu_cxx12_Lock_policyE2EEEONSt16remove_referenceIT_E4typeEOSA_
FN:97,98,_ZSt4moveIRSt12__shared_ptrIN5Catch5Clara6Detail8BoundRefELN9__gnu_cxx12_Lock_policyE2EEEONSt16remove_referenceIT_E4typeEOSA_
FN:97,98,_ZSt4moveIRSt12__shared_ptrINSt7__cxx1112basic_stringIcSt11char_traitsIcESaIcEEELN9__gnu_cxx12_Lock_policyE2EEEONSt16remove_referenceIT_E4typeEOSC_
FN:97,98,_ZSt4moveIRSt4lessIPKN5Catch14TestCaseHandleEEEONSt16remove_referenceIT_E4typeEOS8_
FN:97,98,_ZSt4moveIRSt4pairINSt7__cxx1112basic_stringIcSt11char_traitsIcESaIcEEES6_EEONSt16remove_referenceIT_E4typeEOSA_
FN:97,98,_ZSt4moveIRSt4pairIRKNSt7__cxx1112basic_stringIcSt11char_traitsIcESaIcEEERN5Catch6Detail10unique_ptrINS9_16IReporterFactoryEEEEEONSt16remove_referenceIT_E4typeEOSI_
FN:97,98,_ZSt4moveIRSt4pairIRNSt7__cxx1112basic_stringIcSt11char_traitsIcESaIcEEES7_EEONSt16remove_referenceIT_E4typeEOSB_
FN:97,98,_ZSt4moveIRSt4pairIccEEONSt16remove_referenceIT_E4typeEOS4_
FN:97,98,_ZSt4moveIRSt4pairIiN5Catch9StringRefEEEONSt16remove_referenceIT_E4typeEOS6_
FN:97,98,_ZSt4moveIRSt4pairIlSt6vectorINSt7__cxx119sub_matchIN9__gnu_cxx17__normal_iteratorIPKcNS2_12basic_stringIcSt11char_traitsIcESaIcEEEEEEESaISE_EEEEONSt16remove_referenceIT_E4typeEOSK_
FN:97,98,_ZSt4moveIRSt4pairImN5Catch14TestCaseHandleEEEONSt16remove_referenceIT_E4typeEOS6_
FN:97,98,_ZSt4moveIRSt6localeEONSt16remove_referenceIT_E4typeEOS3_
FN:97,98,_ZSt4moveIRSt6vectorIN5Catch14TestCaseHandleESaIS2_EEEONSt16remove_referenceIT_E4typeEOS7_
FN:97,98,_ZSt4moveIRSt6vectorIN5Catch5Clara3ArgESaIS3_EEEONSt16remove_referenceIT_E4typeEOS8_
FN:97,98,_ZSt4moveIRSt6vectorIN5Catch5Clara3OptESaIS3_EEEONSt16remove_referenceIT_E4typeEOS8_
FN:97,98,_ZSt4moveIRSt6vectorIN5Catch6Detail10unique_ptrINS1_8TestSpec7PatternEEESaIS6_EEEONSt16remove_referenceIT_E4typeEOSB_
FN:97,98,_ZSt4moveIRSt6vectorIN5Catch8TestSpec11FilterMatchESaIS3_EEEONSt16remove_referenceIT_E4typeEOS8_
FN:97,98,_ZSt4moveIRSt6vectorIN5Catch8TestSpec6FilterESaIS3_EEEONSt16remove_referenceIT_E4typeEOS8_
FN:97,98,_ZSt4moveIRSt6vectorIN5Catch9StringRefESaIS2_EEEONSt16remove_referenceIT_E4typeEOS7_
FN:97,98,_ZSt4moveIRSt6vectorINSt7__cxx1112basic_stringIcSt11char_traitsIcESaIcEEESaIS6_EEEONSt16remove_referenceIT_E4typeEOSB_
FN:97,98,_ZSt4moveIRSt6vectorINSt7__cxx119sub_matchIN9__gnu_cxx17__normal_iteratorIPKcNS1_12basic_stringIcSt11char_traitsIcESaIcEEEEEEESaISD_EEEONSt16remove_referenceIT_E4typeEOSI_
FN:97,98,_ZSt4moveIRSt6vectorISt4pairIlS0_INSt7__cxx119sub_matchIN9__gnu_cxx17__normal_iteratorIPKcNS2_12basic_stringIcSt11char_traitsIcESaIcEEEEEEESaISE_EEESaISH_EEEONSt16remove_referenceIT_E4typeEOSM_
FN:97,98,_ZSt4moveIRSt8functionIFbcEEEONSt16remove_referenceIT_E4typeEOS5_
FN:97,98,_ZSt4moveIRSt9_Any_dataEONSt16remove_referenceIT_E4typeEOS3_
FN:97,98,_ZSt4moveIRZN5Catch12_GLOBAL__N_111fileNameTagERKSt6vectorINS0_3TagESaIS3_EEEUlRKS3_E_EONSt16remove_referenceIT_E4typeEOSD_
FN:97,98,_ZSt4moveIRZN5Catch14IResultCapture16popScopedMessageEjEUlRKNS0_11MessageInfoEE_EONSt16remove_referenceIT_E4typeEOS8_
FN:97,98,_ZSt4moveIRZN5Catch15defaultListTagsERSoRKSt6vectorINS0_7TagInfoESaIS3_EEbEUlRKT_RKT0_E_EONSt16remove_referenceIS8_E4typeEOS8_
FN:97,98,_ZSt4moveIRZN5Catch16TestCaseTracking11TrackerBase5closeEvEUlRKNS0_6Detail10unique_ptrINS1_8ITrackerEEEE_EONSt16remove_referenceIT_E4typeEOSC_
FN:97,98,_ZSt4moveIRZN5Catch16TestCaseTracking8ITracker9findChildERKNS1_18NameAndLocationRefEEUlRKNS0_6Detail10unique_ptrIS2_EEE_EONSt16remove_referenceIT_E4typeEOSE_
FN:97,98,_ZSt4moveIRZN5Catch20defaultListListenersERSoRKSt6vectorINS0_19ListenerDescriptionESaIS3_EEEUlRKS3_S9_E_EONSt16remove_referenceIT_E4typeEOSD_
FN:97,98,_ZSt4moveIRZN5Catch20defaultListReportersERSoRKSt6vectorINS0_19ReporterDescriptionESaIS3_EENS0_9VerbosityEEUlRKS3_SA_E_EONSt16remove_referenceIT_E4typeEOSE_
FN:97,98,_ZSt4moveIRZN5Catch9Benchmark6Detail9bootstrapEdPdS3_RKSt6vectorIdSaIdEEPFdPKdSA_EEUldE_EONSt16remove_referenceIT_E4typeEOSG_
FN:97,98,_ZSt4moveIRZN5Catch9sortTestsERKNS0_7IConfigERKSt6vectorINS0_14TestCaseHandleESaIS5_EEEUlRKS5_SB_E_EONSt16remove_referenceIT_E4typeEOSF_
FN:97,98,_ZSt4moveIRZN5Catch9sortTestsERKNS0_7IConfigERKSt6vectorINS0_14TestCaseHandleESaIS5_EEEUlRKSt4pairImS5_ESD_E_EONSt16remove_referenceIT_E4typeEOSH_
FN:97,98,_ZSt4moveIRZNK5Catch22CumulativeReporterBase11SectionNode16hasAnyAssertionsEvEUlRKNS0_6Detail26AssertionOrBenchmarkResultEE_EONSt16remove_referenceIT_E4typeEOSA_
FN:97,98,_ZSt4moveIRZNK5Catch5Clara6Parser5parseERKNSt7__cxx1112basic_stringIcSt11char_traitsIcESaIcEEENS1_6Detail11TokenStreamEE10ParserInfoEONSt16remove_referenceIT_E4typeEOSG_
FN:97,98,_ZSt4moveIRZNK5Catch6Detail19CaseInsensitiveLessclENS0_9StringRefES3_EUlccE_EONSt16remove_referenceIT_E4typeEOS7_
FN:97,98,_ZSt4moveIRZNK5Catch8TestSpec7matchesERKNS0_12TestCaseInfoEEUlRKNS1_6FilterEE_EONSt16remove_referenceIT_E4typeEOSB_
FN:97,98,_ZSt4moveIRZZN5Catch10Generators12_GLOBAL__N_116GeneratorTracker5closeEvENKUlvE_clEvEUlRKNS0_6Detail10unique_ptrINS0_16TestCaseTracking8ITrackerEEEE_EONSt16remove_referenceIT_E4typeEOSF_
FN:97,98,_ZSt4moveIRbEONSt16remove_referenceIT_E4typeEOS2_
FN:97,98,_ZSt4moveIRcEONSt16remove_referenceIT_E4typeEOS2_
FN:97,98,_ZSt4moveIRdEONSt16remove_referenceIT_E4typeEOS2_
FN:97,98,_ZSt4moveIRlEONSt16remove_referenceIT_E4typeEOS2_
FN:97,98,_ZSt4moveIRmEONSt16remove_referenceIT_E4typeEOS2_
FNDA:118,_ZSt4swapIN5Catch14TestCaseHandleEENSt9enable_ifIXsrSt6__and_IJSt6__not_ISt15__is_tuple_likeIT_EESt21is_move_constructibleIS6_ESt18is_move_assignableIS6_EEE5valueEvE4typeERS6_SG_
FNDA:0,_ZSt4swapIN5Catch3TagEENSt9enable_ifIXsrSt6__and_IJSt6__not_ISt15__is_tuple_likeIT_EESt21is_move_constructibleIS6_ESt18is_move_assignableIS6_EEE5valueEvE4typeERS6_SG_
FNDA:0,_ZSt4swapIN5Catch6Colour4CodeEENSt9enable_ifIXsrSt6__and_IJSt6__not_ISt15__is_tuple_likeIT_EESt21is_move_constructibleIS7_ESt18is_move_assignableIS7_EEE5valueEvE4typeERS7_SH_
FNDA:0,_ZSt4swapIPFbRKSt9_Any_dataOcEENSt9enable_ifIXsrSt6__and_IJSt6__not_ISt15__is_tuple_likeIT_EESt21is_move_constructibleISA_ESt18is_move_assignableISA_EEE5valueEvE4typeERSA_SK_
FNDA:0,_ZSt4swapIPFbRSt9_Any_dataRKS0_St18_Manager_operationEENSt9enable_ifIXsrSt6__and_IJSt6__not_ISt15__is_tuple_likeIT_EESt21is_move_constructibleISB_ESt18is_move_assignableISB_EEE5valueEvE4typeERSB_SL_
FNDA:0,_ZSt4swapIPKN5Catch10ColourImplEENSt9enable_ifIXsrSt6__and_IJSt6__not_ISt15__is_tuple_likeIT_EESt21is_move_constructibleIS8_ESt18is_move_assignableIS8_EEE5valueEvE4typeERS8_SI_
FNDA:0,_ZSt4swapIPKNSt8__detail4_NFAINSt7__cxx1112regex_traitsIcEEEEENSt9enable_ifIXsrSt6__and_IJSt6__not_ISt15__is_tuple_likeIT_EESt21is_move_constructibleISC_ESt18is_move_assignableISC_EEE5valueEvE4typeERSC_SM_
FNDA:2,_ZSt4swapIPN5Catch5Clara6Detail17BoundValueRefBaseEENSt9enable_ifIXsrSt6__and_IJSt6__not_ISt15__is_tuple_likeIT_EESt21is_move_constructibleIS9_ESt18is_move_assignableIS9_EEE5valueEvE4typeERS9_SJ_
FNDA:0,_ZSt4swapIPN5Catch5Clara6Detail8BoundRefEENSt9enable_ifIXsrSt6__and_IJSt6__not_ISt15__is_tuple_likeIT_EESt21is_move_constructibleIS9_ESt18is_move_assignableIS9_EEE5valueEvE4typeERS9_SJ_
FNDA:4,_ZSt4swapIPN5Queue4NodeEENSt9enable_ifIXsrSt6__and_IJSt6__not_ISt15__is_tuple_likeIT_EESt21is_move_constructibleIS7_ESt18is_move_assignableIS7_EEE5valueEvE4typeERS7_SH_
FNDA:2,_ZSt4swapIPN7AvlTree4NodeEENSt9enable_ifIXsrSt6__and_IJSt6__not_ISt15__is_tuple_likeIT_EESt21is_move_constructibleIS7_ESt18is_move_assignableIS7_EEE5valueEvE4typeERS7_SH_
FNDA:3,_ZSt4swapIPNSt7__cxx1112basic_stringIcSt11char_traitsIcESaIcEEEENSt9enable_ifIXsrSt6__and_IJSt6__not_ISt15__is_tuple_likeIT_EESt21is_move_constructibleISB_ESt18is_move_assignableISB_EEE5valueEvE4typeERSB_SL_
FNDA:0,_ZSt4swapISt6localeENSt9enable_ifIXsrSt6__and_IJSt6__not_ISt15__is_tuple_likeIT_EESt21is_move_constructibleIS5_ESt18is_move_assignableIS5_EEE5valueEvE4typeERS5_SF_
FNDA:0,_ZSt4swapISt9_Any_dataENSt9enable_ifIXsrSt6__and_IJSt6__not_ISt15__is_tuple_likeIT_EESt21is_move_constructibleIS5_ESt18is_move_assignableIS5_EEE5valueEvE4typeERS5_SF_
FNDA:0,_ZSt4swapIbENSt9enable_ifIXsrSt6__and_IJSt6__not_ISt15__is_tuple_likeIT_EESt21is_move_constructibleIS4_ESt18is_move_assignableIS4_EEE5valueEvE4typeERS4_SE_
FNDA:0,_ZSt4swapIcENSt9enable_ifIXsrSt6__and_IJSt6__not_ISt15__is_tuple_likeIT_EESt21is_move_constructibleIS4_ESt18is_move_assignableIS4_EEE5valueEvE4typeERS4_SE_
FNDA:0,_ZSt4swapIdENSt9enable_ifIXsrSt6__and_IJSt6__not_ISt15__is_tuple_likeIT_EESt21is_move_constructibleIS4_ESt18is_move_assignableIS4_EEE5valueEvE4typeERS4_SE_
FNDA:0,_ZSt4swapIlENSt9enable_ifIXsrSt6__and_IJSt6__not_ISt15__is_tuple_likeIT_EESt21is_move_constructibleIS4_ESt18is_move_assignableIS4_EEE5valueEvE4typeERS4_SE_
FNDA:126,_ZSt4swapImENSt9enable_ifIXsrSt6__and_IJSt6__not_ISt15__is_tuple_likeIT_EESt21is_move_constructibleIS4_ESt18is_move_assignableIS4_EEE5valueEvE4typeERS4_SE_
FNDA:0,_ZSt11__addressofIKNSt8__detail11_AnyMatcherINSt7__cxx1112regex_traitsIcEELb0ELb0ELb0EEEEPT_RS7_
FNDA:0,_ZSt11__addressofIKNSt8__detail11_AnyMatcherINSt7__cxx1112regex_traitsIcEELb0ELb0ELb1EEEEPT_RS7_
FNDA:0,_ZSt11__addressofIKNSt8__detail11_AnyMatcherINSt7__cxx1112regex_traitsIcEELb0ELb1ELb0EEEEPT_RS7_
FNDA:0,_ZSt11__addressofIKNSt8__detail11_AnyMatcherINSt7__cxx1112regex_traitsIcEELb0ELb1ELb1EEEEPT_RS7_
FNDA:0,_ZSt11__addressofIKNSt8__detail11_AnyMatcherINSt7__cxx1112regex_traitsIcEELb1ELb0ELb0EEEEPT_RS7_
FNDA:0,_ZSt11__addressofIKNSt8__detail11_AnyMatcherINSt7__cxx1112regex_traitsIcEELb1ELb0ELb1EEEEPT_RS7_
FNDA:0,_ZSt11__addressofIKNSt8__detail11_AnyMatcherINSt7__cxx1112regex_traitsIcEELb1ELb1ELb0EEEEPT_RS7_
FNDA:0,_ZSt11__addressofIKNSt8__detail11_AnyMatcherINSt7__cxx1112regex_traitsIcEELb1ELb1ELb1EEEEPT_RS7_
FNDA:0,_ZSt11__addressofIKNSt8__detail12_CharMatcherINSt7__cxx1112regex_traitsIcEELb0ELb0EEEEPT_RS7_
FNDA:0,_ZSt11__addressofIKNSt8__detail12_CharMatcherINSt7__cxx1112regex_traitsIcEELb0ELb1EEEEPT_RS7_
FNDA:0,_ZSt11__addressofIKNSt8__detail12_CharMatcherINSt7__cxx1112regex_traitsIcEELb1ELb0EEEEPT_RS7_
FNDA:0,_ZSt11__addressofIKNSt8__detail12_CharMatcherINSt7__cxx1112regex_traitsIcEELb1ELb1EEEEPT_RS7_
FNDA:0,_ZSt11__addressofIKSt6vectorIN5Catch12ReporterSpecESaIS2_EEEPT_RS6_
FNDA:0,_ZSt11__addressofIKSt6vectorIN5Catch5Clara3ArgESaIS3_EEEPT_RS7_
FNDA:0,_ZSt11__addressofIKSt6vectorIN5Catch5Clara3OptESaIS3_EEEPT_RS7_
FNDA:0,_ZSt11__addressofIKSt6vectorIN5Catch9StringRefESaIS2_EEEPT_RS6_
FNDA:0,_ZSt11__addressofIKSt6vectorINSt7__cxx1112basic_stringIcSt11char_traitsIcESaIcEEESaIS6_EEEPT_RSA_
FNDA:0,_ZSt11__addressofIKSt6vectorINSt7__cxx119sub_matchIN9__gnu_cxx17__normal_iteratorIPKcNS1_12basic_stringIcSt11char_traitsIcESaIcEEEEEEESaISD_EEEPT_RSH_
FNDA:0,_ZSt11__addressofIKSt8_Rb_treeINSt7__cxx1112basic_stringIcSt11char_traitsIcESaIcEEESt4pairIKS6_S6_ESt10_Select1stIS9_ESt4lessIS6_ESaIS9_EEEPT_RSH_
FNDA:8,_ZSt11__addressofIN5Catch10ColumnInfoEEPT_RS2_
FNDA:0,_ZSt11__addressofIN5Catch11MessageInfoEEPT_RS2_
FNDA:3,_ZSt11__addressofIN5Catch11SectionInfoEEPT_RS2_
FNDA:1,_ZSt11__addressofIN5Catch12ReporterSpecEEPT_RS2_
FNDA:0,_ZSt11__addressofIN5Catch12_GLOBAL__N_113SummaryColumnEEPT_RS3_
FNDA:0,_ZSt11__addressofIN5Catch13ScopedMessageEEPT_RS2_
FNDA:0,_ZSt11__addressofIN5Catch14SectionEndInfoEEPT_RS2_
FNDA:765,_ZSt11__addressofIN5Catch14TestCaseHandleEEPT_RS2_
FNDA:0,_ZSt11__addressofIN5Catch15JsonArrayWriterEEPT_RS2_
FNDA:0,_ZSt11__addressofIN5Catch16JsonObjectWriterEEPT_RS2_
FNDA:0,_ZSt11__addressofIN5Catch19ListenerDescriptionEEPT_RS2_
FNDA:0,_ZSt11__addressofIN5Catch19ReporterDescriptionEEPT_RS2_
FNDA:1,_ZSt11__addressofIN5Catch21ProcessedReporterSpecEEPT_RS2_
FNDA:54,_ZSt11__addressofIN5Catch3TagEEPT_RS2_
FNDA:1,_ZSt11__addressofIN5Catch5Clara3ArgEEPT_RS3_
FNDA:225,_ZSt11__addressofIN5Catch5Clara3OptEEPT_RS3_
FNDA:0,_ZSt11__addressofIN5Catch5Clara6Detail11HelpColumnsEEPT_RS4_
FNDA:0,_ZSt11__addressofIN5Catch5Clara6Detail5TokenEEPT_RS4_
FNDA:0,_ZSt11__addressofIN5Catch6Detail10unique_ptrIKNS0_20IExceptionTranslatorEEEEPT_RS6_
FNDA:897,_ZSt11__addressofIN5Catch6Detail10unique_ptrINS0_12ITestInvokerEEEEPT_RS5_
FNDA:897,_ZSt11__addressofIN5Catch6Detail10unique_ptrINS0_12TestCaseInfoEEEEPT_RS5_
FNDA:0,_ZSt11__addressofIN5Catch6Detail10unique_ptrINS0_14IEventListenerEEEEPT_RS5_
FNDA:384,_ZSt11__addressofIN5Catch6Detail10unique_ptrINS0_16TestCaseTracking8ITrackerEEEEPT_RS6_
FNDA:0,_ZSt11__addressofIN5Catch6Detail10unique_ptrINS0_20EventListenerFactoryEEEEPT_RS5_
FNDA:0,_ZSt11__addressofIN5Catch6Detail10unique_ptrINS0_22CumulativeReporterBase11SectionNodeEEEEPT_RS6_
FNDA:0,_ZSt11__addressofIN5Catch6Detail10unique_ptrINS0_22CumulativeReporterBase4NodeINS0_13TestCaseStatsENS3_11SectionNodeEEEEEEPT_RS9_
FNDA:0,_ZSt11__addressofIN5Catch6Detail10unique_ptrINS0_8TestSpec7PatternEEEEPT_RS6_
FNDA:0,_ZSt11__addressofIN5Catch6Detail10unique_ptrINS1_8EnumInfoEEEEPT_RS5_
FNDA:1,_ZSt11__addressofIN5Catch6Detail10unique_ptrINSt7__cxx1119basic_ostringstreamIcSt11char_traitsIcESaIcEEEEEEPT_RSA_
FNDA:0,_ZSt11__addressofIN5Catch6Detail26AssertionOrBenchmarkResultEEPT_RS3_
FNDA:0,_ZSt11__addressofIN5Catch7TagInfoEEPT_RS2_
FNDA:0,_ZSt11__addressofIN5Catch8TestSpec11FilterMatchEEPT_RS3_
FNDA:0,_ZSt11__addressofIN5Catch8TestSpec6FilterEEPT_RS3_
FNDA:0,_ZSt11__addressofIN5Catch8TextFlow6Column14const_iteratorEEPT_RS4_
FNDA:0,_ZSt11__addressofIN5Catch8TextFlow6ColumnEEPT_RS3_
FNDA:60,_ZSt11__addressofIN5Catch9StringRefEEPT_RS2_
FNDA:0,_ZSt11__addressofINSt15__exception_ptr13exception_ptrEEPT_RS2_
FNDA:0,_ZSt11__addressofINSt6chrono10time_pointINS0_3_V212steady_clockENS0_8durationIlSt5ratioILl1ELl1000000000EEEEEEEPT_RS9_
FNDA:17,_ZSt11__addressofINSt7__cxx1112basic_stringIcSt11char_traitsIcESaIcEEEEPT_RS6_
FNDA:0,_ZSt11__addressofINSt7__cxx1112regex_traitsIcE10_RegexMaskEEPT_RS4_
FNDA:0,_ZSt11__addressofINSt7__cxx119sub_matchIN9__gnu_cxx17__normal_iteratorIPKcNS0_12basic_stringIcSt11char_traitsIcESaIcEEEEEEEEPT_RSD_
FNDA:0,_ZSt11__addressofINSt8__detail6_StateIcEEEPT_RS3_
FNDA:2,_ZSt11__addressofISaISt23_Sp_counted_ptr_inplaceIN5Catch5Clara6Detail11BoundLambdaIZNS1_21makeCommandLineParserERNS1_10ConfigDataEEUlRKNSt7__cxx1112basic_stringIcSt11char_traitsIcESaIcEEEE0_EESaIvELN9__gnu_cxx12_Lock_policyE2EEEEPT_RSM_
FNDA:2,_ZSt11__addressofISaISt23_Sp_counted_ptr_inplaceIN5Catch5Clara6Detail11BoundLambdaIZNS1_21makeCommandLineParserERNS1_10ConfigDataEEUlRKNSt7__cxx1112basic_stringIcSt11char_traitsIcESaIcEEEE1_EESaIvELN9__gnu_cxx12_Lock_policyE2EEEEPT_RSM_
FNDA:2,_ZSt11__addressofISaISt23_Sp_counted_ptr_inplaceIN5Catch5Clara6Detail11BoundLambdaIZNS1_21makeCommandLineParserERNS1_10ConfigDataEEUlRKNSt7__cxx1112basic_stringIcSt11char_traitsIcESaIcEEEE2_EESaIvELN9__gnu_cxx12_Lock_policyE2EEEEPT_RSM_
FNDA:2,_ZSt11__addressofISaISt23_Sp_counted_ptr_inplaceIN5Catch5Clara6Detail11BoundLambdaIZNS1_21makeCommandLineParserERNS1_10ConfigDataEEUlRKNSt7__cxx1112basic_stringIcSt11char_traitsIcESaIcEEEE3_EESaIvELN9__gnu_cxx12_Lock_policyE2EEEEPT_RSM_
FNDA:2,_ZSt11__addressofISaISt23_Sp_counted_ptr_inplaceIN5Catch5Clara6Detail11BoundLambdaIZNS1_21makeCommandLineParserERNS1_10ConfigDataEEUlRKNSt7__cxx1112basic_stringIcSt11char_traitsIcESaIcEEEE4_EESaIvELN9__gnu_cxx12_Lock_policyE2EEEEPT_RSM_
FNDA:2,_ZSt11__addressofISaISt23_Sp_counted_ptr_inplaceIN5Catch5Clara6Detail11BoundLambdaIZNS1_21makeCommandLineParserERNS1_10ConfigDataEEUlRKNSt7__cxx1112basic_stringIcSt11char_traitsIcESaIcEEEE5_EESaIvELN9__gnu_cxx12_Lock_policyE2EEEEPT_RSM_
FNDA:2,_ZSt11__addressofISaISt23_Sp_counted_ptr_inplaceIN5Catch5Clara6Detail11BoundLambdaIZNS1_21makeCommandLineParserERNS1_10ConfigDataEEUlRKNSt7__cxx1112basic_stringIcSt11char_traitsIcESaIcEEEE7_EESaIvELN9__gnu_cxx12_Lock_policyE2EEEEPT_RSM_
FNDA:2,_ZSt11__addressofISaISt23_Sp_counted_ptr_inplaceIN5Catch5Clara6Detail11BoundLambdaIZNS1_21makeCommandLineParserERNS1_10ConfigDataEEUlRKNSt7__cxx1112basic_stringIcSt11char_traitsIcESaIcEEEE8_EESaIvELN9__gnu_cxx12_Lock_policyE2EEEEPT_RSM_
FNDA:2,_ZSt11__addressofISaISt23_Sp_counted_ptr_inplaceIN5Catch5Clara6Detail11BoundLambdaIZNS1_21makeCommandLineParserERNS1_10ConfigDataEEUlbE0_EESaIvELN9__gnu_cxx12_Lock_policyE2EEEEPT_RSE_
FNDA:2,_ZSt11__addressofISaISt23_Sp_counted_ptr_inplaceIN5Catch5Clara6Detail11BoundLambdaIZNS1_21makeCommandLineParserERNS1_10ConfigDataEEUliE_EESaIvELN9__gnu_cxx12_Lock_policyE2EEEEPT_RSE_
FNDA:26,_ZSt11__addressofISaISt23_Sp_counted_ptr_inplaceIN5Catch5Clara6Detail12BoundFlagRefESaIvELN9__gnu_cxx12_Lock_policyE2EEEEPT_RSA_
FNDA:8,_ZSt11__addressofISaISt23_Sp_counted_ptr_inplaceIN5Catch5Clara6Detail13BoundValueRefINSt7__cxx1112basic_stringIcSt11char_traitsIcESaIcEEEEESaIvELN9__gnu_cxx12_Lock_policyE2EEEEPT_RSH_
FNDA:4,_ZSt11__addressofISaISt23_Sp_counted_ptr_inplaceIN5Catch5Clara6Detail13BoundValueRefISt6vectorINSt7__cxx1112basic_stringIcSt11char_traitsIcESaIcEEESaISB_EEEESaIvELN9__gnu_cxx12_Lock_policyE2EEEEPT_RSK_
FNDA:4,_ZSt11__addressofISaISt23_Sp_counted_ptr_inplaceIN5Catch5Clara6Detail13BoundValueRefIdEESaIvELN9__gnu_cxx12_Lock_policyE2EEEEPT_RSB_
FNDA:4,_ZSt11__addressofISaISt23_Sp_counted_ptr_inplaceIN5Catch5Clara6Detail13BoundValueRefIjEESaIvELN9__gnu_cxx12_Lock_policyE2EEEEPT_RSB_
FNDA:2,_ZSt11__addressofISaISt23_Sp_counted_ptr_inplaceIN5Catch5Clara6Detail13BoundValueRefIlEESaIvELN9__gnu_cxx12_Lock_policyE2EEEEPT_RSB_
FNDA:2,_ZSt11__addressofISaISt23_Sp_counted_ptr_inplaceIN5Catch5Clara6Detail15BoundFlagLambdaIZNS1_21makeCommandLineParserERNS1_10ConfigDataEEUlbE_EESaIvELN9__gnu_cxx12_Lock_policyE2EEEEPT_RSE_
FNDA:2,_ZSt11__addressofISaISt23_Sp_counted_ptr_inplaceIN5Catch5Clara6Detail15BoundFlagLambdaIZNS2_4HelpC4ERbEUlbE_EESaIvELN9__gnu_cxx12_Lock_policyE2EEEEPT_RSE_
FNDA:2,_ZSt11__addressofISaISt23_Sp_counted_ptr_inplaceIN5Catch5Clara6Detail15BoundManyLambdaIZNS1_21makeCommandLineParserERNS1_10ConfigDataEEUlRKNSt7__cxx1112basic_stringIcSt11char_traitsIcESaIcEEEE6_EESaIvELN9__gnu_cxx12_Lock_policyE2EEEEPT_RSM_
FNDA:2,_ZSt11__addressofISaISt23_Sp_counted_ptr_inplaceIN5Catch5Clara6Detail15BoundManyLambdaIZNS1_21makeCommandLineParserERNS1_10ConfigDataEEUlRKNSt7__cxx1112basic_stringIcSt11char_traitsIcESaIcEEEE_EESaIvELN9__gnu_cxx12_Lock_policyE2EEEEPT_RSM_
FNDA:6,_ZSt11__addressofISaISt23_Sp_counted_ptr_inplaceINSt7__cxx1112basic_stringIcSt11char_traitsIcESaIcEEESaIvELN9__gnu_cxx12_Lock_policyE2EEEEPT_RSC_
FNDA:0,_ZSt11__addressofISaISt23_Sp_counted_ptr_inplaceINSt8__detail4_NFAINSt7__cxx1112regex_traitsIcEEEESaIvELN9__gnu_cxx12_Lock_policyE2EEEEPT_RSC_
FNDA:0,_ZSt11__addressofISt4pairIN9__gnu_cxx17__normal_iteratorIPKcNSt7__cxx1112basic_stringIcSt11char_traitsIcESaIcEEEEEiEEPT_RSD_
FNDA:0,_ZSt11__addressofISt4pairINSt7__cxx1112basic_stringIcSt11char_traitsIcESaIcEEES6_EEPT_RS8_
FNDA:0,_ZSt11__addressofISt4pairIccEEPT_RS2_
FNDA:0,_ZSt11__addressofISt4pairIiN5Catch9StringRefEEEPT_RS4_
FNDA:0,_ZSt11__addressofISt4pairIlSt6vectorINSt7__cxx119sub_matchIN9__gnu_cxx17__normal_iteratorIPKcNS2_12basic_stringIcSt11char_traitsIcESaIcEEEEEEESaISE_EEEEPT_RSI_
FNDA:0,_ZSt11__addressofISt4pairImN5Catch14TestCaseHandleEEEPT_RS4_
FNDA:0,_ZSt11__addressofIZNK5Catch5Clara6Parser5parseERKNSt7__cxx1112basic_stringIcSt11char_traitsIcESaIcEEENS1_6Detail11TokenStreamEE10ParserInfoEPT_RSE_
FNDA:0,_ZSt7forwardIN5Catch11MessageInfoEEOT_RNSt16remove_referenceIS2_E4typeE
FNDA:2,_ZSt7forwardIN5Catch11SectionInfoEEOT_RNSt16remove_referenceIS2_E4typeE
FNDA:0,_ZSt7forwardIN5Catch12JsonReporter6WriterEEOT_RNSt16remove_referenceIS3_E4typeE
FNDA:4,_ZSt7forwardIN5Catch12ReporterSpecEEOT_RNSt16remove_referenceIS2_E4typeE
FNDA:0,_ZSt7forwardIN5Catch12_GLOBAL__N_113SummaryColumnEEOT_RNSt16remove_referenceIS3_E4typeE
FNDA:0,_ZSt7forwardIN5Catch13ScopedMessageEEOT_RNSt16remove_referenceIS2_E4typeE
FNDA:0,_ZSt7forwardIN5Catch14MessageBuilderEEOT_RNSt16remove_referenceIS2_E4typeE
FNDA:0,_ZSt7forwardIN5Catch14SectionEndInfoEEOT_RNSt16remove_referenceIS2_E4typeE
FNDA:1008,_ZSt7forwardIN5Catch14TestCaseHandleEEOT_RNSt16remove_referenceIS2_E4typeE
FNDA:0,_ZSt7forwardIN5Catch15JsonArrayWriterEEOT_RNSt16remove_referenceIS2_E4typeE
FNDA:0,_ZSt7forwardIN5Catch16JsonObjectWriterEEOT_RNSt16remove_referenceIS2_E4typeE
FNDA:0,_ZSt7forwardIN5Catch19ListenerDescriptionEEOT_RNSt16remove_referenceIS2_E4typeE
FNDA:0,_ZSt7forwardIN5Catch19ReporterDescriptionEEOT_RNSt16remove_referenceIS2_E4typeE
FNDA:4,_ZSt7forwardIN5Catch21ProcessedReporterSpecEEOT_RNSt16remove_referenceIS2_E4typeE
FNDA:36,_ZSt7forwardIN5Catch3TagEEOT_RNSt16remove_referenceIS2_E4typeE
FNDA:0,_ZSt7forwardIN5Catch5Clara3ArgEEOT_RNSt16remove_referenceIS3_E4typeE
FNDA:237,_ZSt7forwardIN5Catch5Clara3OptEEOT_RNSt16remove_referenceIS3_E4typeE
FNDA:0,_ZSt7forwardIN5Catch5Clara6Detail11HelpColumnsEEOT_RNSt16remove_referenceIS4_E4typeE
FNDA:0,_ZSt7forwardIN5Catch5Clara6Detail5TokenEEOT_RNSt16remove_referenceIS4_E4typeE
FNDA:0,_ZSt7forwardIN5Catch6Detail10unique_ptrIKNS0_20IExceptionTranslatorEEEEOT_RNSt16remove_referenceIS6_E4typeE
FNDA:915,_ZSt7forwardIN5Catch6Detail10unique_ptrINS0_12ITestInvokerEEEEOT_RNSt16remove_referenceIS5_E4typeE
FNDA:915,_ZSt7forwardIN5Catch6Detail10unique_ptrINS0_12TestCaseInfoEEEEOT_RNSt16remove_referenceIS5_E4typeE
FNDA:0,_ZSt7forwardIN5Catch6Detail10unique_ptrINS0_14IEventListenerEEEEOT_RNSt16remove_referenceIS5_E4typeE
FNDA:0,_ZSt7forwardIN5Catch6Detail10unique_ptrINS0_16IReporterFactoryEEEEOT_RNSt16remove_referenceIS5_E4typeE
FNDA:876,_ZSt7forwardIN5Catch6Detail10unique_ptrINS0_16TestCaseTracking8ITrackerEEEEOT_RNSt16remove_referenceIS6_E4typeE
FNDA:0,_ZSt7forwardIN5Catch6Detail10unique_ptrINS0_20EventListenerFactoryEEEEOT_RNSt16remove_referenceIS5_E4typeE
FNDA:0,_ZSt7forwardIN5Catch6Detail10unique_ptrINS0_22CumulativeReporterBase11SectionNodeEEEEOT_RNSt16remove_referenceIS6_E4typeE
FNDA:0,_ZSt7forwardIN5Catch6Detail10unique_ptrINS0_22CumulativeReporterBase4NodeINS0_13TestCaseStatsENS3_11SectionNodeEEEEEEOT_RNSt16remove_referenceIS9_E4typeE
FNDA:0,_ZSt7forwardIN5Catch6Detail10unique_ptrINS0_8TestSpec10TagPatternEEEEOT_RNSt16remove_referenceIS6_E4typeE
FNDA:0,_ZSt7forwardIN5Catch6Detail10unique_ptrINS0_8TestSpec11NamePatternEEEEOT_RNSt16remove_referenceIS6_E4typeE
FNDA:0,_ZSt7forwardIN5Catch6Detail10unique_ptrINS0_8TestSpec7PatternEEEEOT_RNSt16remove_referenceIS6_E4typeE
FNDA:0,_ZSt7forwardIN5Catch6Detail10unique_ptrINS1_8EnumInfoEEEEOT_RNSt16remove_referenceIS5_E4typeE
FNDA:4,_ZSt7forwardIN5Catch6Detail10unique_ptrINSt7__cxx1119basic_ostringstreamIcSt11char_traitsIcESaIcEEEEEEOT_RNSt16remove_referenceISA_E4typeE
FNDA:0,_ZSt7forwardIN5Catch7TagInfoEEOT_RNSt16remove_referenceIS2_E4typeE
FNDA:0,_ZSt7forwardIN5Catch8TagAliasEEOT_RNSt16remove_referenceIS2_E4typeE
FNDA:0,_ZSt7forwardIN5Catch8TestSpec11FilterMatchEEOT_RNSt16remove_referenceIS3_E4typeE
FNDA:0,_ZSt7forwardIN5Catch8TestSpec6FilterEEOT_RNSt16remove_referenceIS3_E4typeE
FNDA:0,_ZSt7forwardIN5Catch8TextFlow6Column14const_iteratorEEOT_RNSt16remove_referenceIS4_E4typeE
FNDA:0,_ZSt7forwardIN5Catch8TextFlow6ColumnEEOT_RNSt16remove_referenceIS3_E4typeE
FNDA:630,_ZSt7forwardIN5Catch9StringRefEEOT_RNSt16remove_referenceIS2_E4typeE
FNDA:0,_ZSt7forwardINSt15__exception_ptr13exception_ptrEEOT_RNSt16remove_referenceIS2_E4typeE
FNDA:0,_ZSt7forwardINSt6chrono8durationIdSt5ratioILl1ELl1000000000EEEEEOT_RNSt16remove_referenceIS5_E4typeE
FNDA:58,_ZSt7forwardINSt7__cxx1112basic_stringIcSt11char_traitsIcESaIcEEEEOT_RNSt16remove_referenceIS6_E4typeE
FNDA:0,_ZSt7forwardINSt7__cxx1112regex_traitsIcE10_RegexMaskEEOT_RNSt16remove_referenceIS4_E4typeE
FNDA:0,_ZSt7forwardINSt8__detail11_AnyMatcherINSt7__cxx1112regex_traitsIcEELb0ELb0ELb0EEEEOT_RNSt16remove_referenceIS6_E4typeE
FNDA:0,_ZSt7forwardINSt8__detail11_AnyMatcherINSt7__cxx1112regex_traitsIcEELb0ELb0ELb1EEEEOT_RNSt16remove_referenceIS6_E4typeE
FNDA:0,_ZSt7forwardINSt8__detail11_AnyMatcherINSt7__cxx1112regex_traitsIcEELb0ELb1ELb0EEEEOT_RNSt16remove_referenceIS6_E4typeE
FNDA:0,_ZSt7forwardINSt8__detail11_AnyMatcherINSt7__cxx1112regex_traitsIcEELb0ELb1ELb1EEEEOT_RNSt16remove_referenceIS6_E4typeE
FNDA:0,_ZSt7forwardINSt8__detail11_AnyMatcherINSt7__cxx1112regex_traitsIcEELb1ELb0ELb0EEEEOT_RNSt16remove_referenceIS6_E4typeE
FNDA:0,_ZSt7forwardINSt8__detail11_AnyMatcherINSt7__cxx1112regex_traitsIcEELb1ELb0ELb1EEEEOT_RNSt16remove_referenceIS6_E4typeE
FNDA:0,_ZSt7forwardINSt8__detail11_AnyMatcherINSt7__cxx1112regex_traitsIcEELb1ELb1ELb0EEEEOT_RNSt16remove_referenceIS6_E4typeE
FNDA:0,_ZSt7forwardINSt8__detail11_AnyMatcherINSt7__cxx1112regex_traitsIcEELb1ELb1ELb1EEEEOT_RNSt16remove_referenceIS6_E4typeE
FNDA:0,_ZSt7forwardINSt8__detail12_CharMatcherINSt7__cxx1112regex_traitsIcEELb0ELb0EEEEOT_RNSt16remove_referenceIS6_E4typeE
FNDA:0,_ZSt7forwardINSt8__detail12_CharMatcherINSt7__cxx1112regex_traitsIcEELb0ELb1EEEEOT_RNSt16remove_referenceIS6_E4typeE
FNDA:0,_ZSt7forwardINSt8__detail12_CharMatcherINSt7__cxx1112regex_traitsIcEELb1ELb0EEEEOT_RNSt16remove_referenceIS6_E4typeE
FNDA:0,_ZSt7forwardINSt8__detail12_CharMatcherINSt7__cxx1112regex_traitsIcEELb1ELb1EEEEOT_RNSt16remove_referenceIS6_E4typeE
FNDA:0,_ZSt7forwardINSt8__detail15_BracketMatcherINSt7__cxx1112regex_traitsIcEELb0ELb0EEEEOT_RNSt16remove_referenceIS6_E4typeE
FNDA:0,_ZSt7forwardINSt8__detail15_BracketMatcherINSt7__cxx1112regex_traitsIcEELb0ELb1EEEEOT_RNSt16remove_referenceIS6_E4typeE
FNDA:0,_ZSt7forwardINSt8__detail15_BracketMatcherINSt7__cxx1112regex_traitsIcEELb1ELb0EEEEOT_RNSt16remove_referenceIS6_E4typeE
FNDA:0,_ZSt7forwardINSt8__detail15_BracketMatcherINSt7__cxx1112regex_traitsIcEELb1ELb1EEEEOT_RNSt16remove_referenceIS6_E4typeE
FNDA:0,_ZSt7forwardINSt8__detail6_StateIcEEEOT_RNSt16remove_referenceIS3_E4typeE
FNDA:0,_ZSt7forwardINSt8__detail9_StateSeqINSt7__cxx1112regex_traitsIcEEEEEOT_RNSt16remove_referenceIS6_E4typeE
FNDA:0,_ZSt7forwardION5Catch9StringRefEEOT_RNSt16remove_referenceIS3_E4typeE
FNDA:9,_ZSt7forwardIONSt7__cxx1112basic_stringIcSt11char_traitsIcESaIcEEEEOT_RNSt16remove_referenceIS7_E4typeE
FNDA:826,_ZSt7forwardIPKN5Catch14TestCaseHandleEEOT_RNSt16remove_referenceIS4_E4typeE
FNDA:0,_ZSt7forwardIPKN5Catch22CumulativeReporterBase4NodeINS0_13TestCaseStatsENS1_11SectionNodeEEEEOT_RNSt16remove_referenceIS8_E4typeE
FNDA:405,_ZSt7forwardIPN5Catch12ITestInvokerEEOT_RNSt16remove_referenceIS3_E4typeE
FNDA:810,_ZSt7forwardIPN5Catch12TestCaseInfoEEOT_RNSt16remove_referenceIS3_E4typeE
FNDA:214,_ZSt7forwardIPN5Catch16TestCaseTracking8ITrackerEEOT_RNSt16remove_referenceIS4_E4typeE
FNDA:2,_ZSt7forwardIPNSt7__cxx1119basic_ostringstreamIcSt11char_traitsIcESaIcEEEEOT_RNSt16remove_referenceIS7_E4typeE
FNDA:21,_ZSt7forwardIRA13_KcEOT_RNSt16remove_referenceIS3_E4typeE
FNDA:0,_ZSt7forwardIRA2_KcEOT_RNSt16remove_referenceIS3_E4typeE
FNDA:4,_ZSt7forwardIRKN5Catch10ColumnInfoEEOT_RNSt16remove_referenceIS4_E4typeE
FNDA:0,_ZSt7forwardIRKN5Catch11MessageInfoEEOT_RNSt16remove_referenceIS4_E4typeE
FNDA:480,_ZSt7forwardIRKN5Catch11SectionInfoEEOT_RNSt16remove_referenceIS4_E4typeE
FNDA:0,_ZSt7forwardIRKN5Catch12ReporterSpecEEOT_RNSt16remove_referenceIS4_E4typeE
FNDA:0,_ZSt7forwardIRKN5Catch14AssertionStatsEEOT_RNSt16remove_referenceIS4_E4typeE
FNDA:0,_ZSt7forwardIRKN5Catch14BenchmarkStatsINSt6chrono8durationIdSt5ratioILl1ELl1000000000EEEEEEEOT_RNSt16remove_referenceISA_E4typeE
FNDA:0,_ZSt7forwardIRKN5Catch14SourceLineInfoEEOT_RNSt16remove_referenceIS4_E4typeE
FNDA:792,_ZSt7forwardIRKN5Catch14TestCaseHandleEEOT_RNSt16remove_referenceIS4_E4typeE
FNDA:3,_ZSt7forwardIRKN5Catch5Clara3ArgEEOT_RNSt16remove_referenceIS5_E4typeE
FNDA:3,_ZSt7forwardIRKN5Catch5Clara3OptEEOT_RNSt16remove_referenceIS5_E4typeE
FNDA:0,_ZSt7forwardIRKN5Catch6Detail26AssertionOrBenchmarkResultEEOT_RNSt16remove_referenceIS5_E4typeE
FNDA:0,_ZSt7forwardIRKN5Catch8TextFlow6Column14const_iteratorEEOT_RNSt16remove_referenceIS6_E4typeE
FNDA:0,_ZSt7forwardIRKN5Catch8TextFlow6ColumnEEOT_RNSt16remove_referenceIS5_E4typeE
FNDA:165,_ZSt7forwardIRKN5Catch9StringRefEEOT_RNSt16remove_referenceIS4_E4typeE
FNDA:0,_ZSt7forwardIRKNSt15__exception_ptr13exception_ptrEEOT_RNSt16remove_referenceIS4_E4typeE
FNDA:0,_ZSt7forwardIRKNSt6chrono8durationIdSt5ratioILl1ELl1000000000EEEEEOT_RNSt16remove_referenceIS7_E4typeE
FNDA:9,_ZSt7forwardIRKNSt7__cxx1112basic_stringIcSt11char_traitsIcESaIcEEEEOT_RNSt16remove_referenceIS8_E4typeE
FNDA:0,_ZSt7forwardIRKNSt7__cxx1112regex_traitsIcE10_RegexMaskEEOT_RNSt16remove_referenceIS6_E4typeE
FNDA:0,_ZSt7forwardIRKNSt7__cxx119sub_matchIN9__gnu_cxx17__normal_iteratorIPKcNS0_12basic_stringIcSt11char_traitsIcESaIcEEEEEEEEOT_RNSt16remove_referenceISF_E4typeE
FNDA:0,_ZSt7forwardIRKNSt8__detail11_AnyMatcherINSt7__cxx1112regex_traitsIcEELb0ELb0ELb0EEEEOT_RNSt16remove_referenceIS8_E4typeE
FNDA:0,_ZSt7forwardIRKNSt8__detail11_AnyMatcherINSt7__cxx1112regex_traitsIcEELb0ELb0ELb1EEEEOT_RNSt16remove_referenceIS8_E4typeE
FNDA:0,_ZSt7forwardIRKNSt8__detail11_AnyMatcherINSt7__cxx1112regex_traitsIcEELb0ELb1ELb0EEEEOT_RNSt16remove_referenceIS8_E4typeE
FNDA:0,_ZSt7forwardIRKNSt8__detail11_AnyMatcherINSt7__cxx1112regex_traitsIcEELb0ELb1ELb1EEEEOT_RNSt16remove_referenceIS8_E4typeE
FNDA:0,_ZSt7forwardIRKNSt8__detail11_AnyMatcherINSt7__cxx1112regex_traitsIcEELb1ELb0ELb0EEEEOT_RNSt16remove_referenceIS8_E4typeE
FNDA:0,_ZSt7forwardIRKNSt8__detail11_AnyMatcherINSt7__cxx1112regex_traitsIcEELb1ELb0ELb1EEEEOT_RNSt16remove_referenceIS8_E4typeE
FNDA:0,_ZSt7forwardIRKNSt8__detail11_AnyMatcherINSt7__cxx1112regex_traitsIcEELb1ELb1ELb0EEEEOT_RNSt16remove_referenceIS8_E4typeE
FNDA:0,_ZSt7forwardIRKNSt8__detail11_AnyMatcherINSt7__cxx1112regex_traitsIcEELb1ELb1ELb1EEEEOT_RNSt16remove_referenceIS8_E4typeE
FNDA:0,_ZSt7forwardIRKNSt8__detail12_CharMatcherINSt7__cxx1112regex_traitsIcEELb0ELb0EEEEOT_RNSt16remove_referenceIS8_E4typeE
FNDA:0,_ZSt7forwardIRKNSt8__detail12_CharMatcherINSt7__cxx1112regex_traitsIcEELb0ELb1EEEEOT_RNSt16remove_referenceIS8_E4typeE
FNDA:0,_ZSt7forwardIRKNSt8__detail12_CharMatcherINSt7__cxx1112regex_traitsIcEELb1ELb0EEEEOT_RNSt16remove_referenceIS8_E4typeE
FNDA:0,_ZSt7forwardIRKNSt8__detail12_CharMatcherINSt7__cxx1112regex_traitsIcEELb1ELb1EEEEOT_RNSt16remove_referenceIS8_E4typeE
FNDA:0,_ZSt7forwardIRKNSt8__detail15_BracketMatcherINSt7__cxx1112regex_traitsIcEELb0ELb0EEEEOT_RNSt16remove_referenceIS8_E4typeE
FNDA:0,_ZSt7forwardIRKNSt8__detail15_BracketMatcherINSt7__cxx1112regex_traitsIcEELb0ELb1EEEEOT_RNSt16remove_referenceIS8_E4typeE
FNDA:0,_ZSt7forwardIRKNSt8__detail15_BracketMatcherINSt7__cxx1112regex_traitsIcEELb1ELb0EEEEOT_RNSt16remove_referenceIS8_E4typeE
FNDA:0,_ZSt7forwardIRKNSt8__detail15_BracketMatcherINSt7__cxx1112regex_traitsIcEELb1ELb1EEEEOT_RNSt16remove_referenceIS8_E4typeE
FNDA:0,_ZSt7forwardIRKNSt8__detail9_StateSeqINSt7__cxx1112regex_traitsIcEEEEEOT_RNSt16remove_referenceIS8_E4typeE
FNDA:924,_ZSt7forwardIRKPKN5Catch12TestCaseInfoEEOT_RNSt16remove_referenceIS6_E4typeE
FNDA:708,_ZSt7forwardIRKPKN5Catch14TestCaseHandleEEOT_RNSt16remove_referenceIS6_E4typeE
FNDA:0,_ZSt7forwardIRKPKcEOT_RNSt16remove_referenceIS4_E4typeE
FNDA:6,_ZSt7forwardIRKPN5Catch10ISingletonEEOT_RNSt16remove_referenceIS5_E4typeE
FNDA:0,_ZSt7forwardIRKPN5Catch22CumulativeReporterBase11SectionNodeEEOT_RNSt16remove_referenceIS6_E4typeE
FNDA:27,_ZSt7forwardIRKPN7AvlTree4NodeEEOT_RNSt16remove_referenceIS5_E4typeE
FNDA:54,_ZSt7forwardIRKSt21piecewise_construct_tEOT_RNSt16remove_referenceIS3_E4typeE
FNDA:0,_ZSt7forwardIRKSt4pairIKNSt7__cxx1112basic_stringIcSt11char_traitsIcESaIcEEES6_EEOT_RNSt16remove_referenceISB_E4typeE
FNDA:0,_ZSt7forwardIRKSt4pairINSt7__cxx1112basic_stringIcSt11char_traitsIcESaIcEEES6_EEOT_RNSt16remove_referenceISA_E4typeE
FNDA:0,_ZSt7forwardIRKSt4pairIccEEOT_RNSt16remove_referenceIS4_E4typeE
FNDA:0,_ZSt7forwardIRKSt6localeEOT_RNSt16remove_referenceIS3_E4typeE
FNDA:0,_ZSt7forwardIRKSt6vectorINSt7__cxx119sub_matchIN9__gnu_cxx17__normal_iteratorIPKcNS1_12basic_stringIcSt11char_traitsIcESaIcEEEEEEESaISD_EEEOT_RNSt16remove_referenceISI_E4typeE
FNDA:7,_ZSt7forwardIRKZN5Catch21makeCommandLineParserERNS0_10ConfigDataEEUlRKNSt7__cxx1112basic_stringIcSt11char_traitsIcESaIcEEEE0_EOT_RNSt16remove_referenceISE_E4typeE
FNDA:7,_ZSt7forwardIRKZN5Catch21makeCommandLineParserERNS0_10ConfigDataEEUlRKNSt7__cxx1112basic_stringIcSt11char_traitsIcESaIcEEEE1_EOT_RNSt16remove_referenceISE_E4typeE
FNDA:7,_ZSt7forwardIRKZN5Catch21makeCommandLineParserERNS0_10ConfigDataEEUlRKNSt7__cxx1112basic_stringIcSt11char_traitsIcESaIcEEEE2_EOT_RNSt16remove_referenceISE_E4typeE
FNDA:7,_ZSt7forwardIRKZN5Catch21makeCommandLineParserERNS0_10ConfigDataEEUlRKNSt7__cxx1112basic_stringIcSt11char_traitsIcESaIcEEEE3_EOT_RNSt16remove_referenceISE_E4typeE
FNDA:7,_ZSt7forwardIRKZN5Catch21makeCommandLineParserERNS0_10ConfigDataEEUlRKNSt7__cxx1112basic_stringIcSt11char_traitsIcESaIcEEEE4_EOT_RNSt16remove_referenceISE_E4typeE
FNDA:7,_ZSt7forwardIRKZN5Catch21makeCommandLineParserERNS0_10ConfigDataEEUlRKNSt7__cxx1112basic_stringIcSt11char_traitsIcESaIcEEEE5_EOT_RNSt16remove_referenceISE_E4typeE
FNDA:7,_ZSt7forwardIRKZN5Catch21makeCommandLineParserERNS0_10ConfigDataEEUlRKNSt7__cxx1112basic_stringIcSt11char_traitsIcESaIcEEEE6_EOT_RNSt16remove_referenceISE_E4typeE
FNDA:7,_ZSt7forwardIRKZN5Catch21makeCommandLineParserERNS0_10ConfigDataEEUlRKNSt7__cxx1112basic_stringIcSt11char_traitsIcESaIcEEEE7_EOT_RNSt16remove_referenceISE_E4typeE
FNDA:7,_ZSt7forwardIRKZN5Catch21makeCommandLineParserERNS0_10ConfigDataEEUlRKNSt7__cxx1112basic_stringIcSt11char_traitsIcESaIcEEEE8_EOT_RNSt16remove_referenceISE_E4typeE
FNDA:7,_ZSt7forwardIRKZN5Catch21makeCommandLineParserERNS0_10ConfigDataEEUlRKNSt7__cxx1112basic_stringIcSt11char_traitsIcESaIcEEEE_EOT_RNSt16remove_referenceISE_E4typeE
FNDA:7,_ZSt7forwardIRKZN5Catch21makeCommandLineParserERNS0_10ConfigDataEEUlbE0_EOT_RNSt16remove_referenceIS6_E4typeE
FNDA:7,_ZSt7forwardIRKZN5Catch21makeCommandLineParserERNS0_10ConfigDataEEUlbE_EOT_RNSt16remove_referenceIS6_E4typeE
FNDA:7,_ZSt7forwardIRKZN5Catch21makeCommandLineParserERNS0_10ConfigDataEEUliE_EOT_RNSt16remove_referenceIS6_E4typeE
FNDA:7,_ZSt7forwardIRKZN5Catch5Clara4HelpC4ERbEUlbE_EOT_RNSt16remove_referenceIS7_E4typeE
FNDA:0,_ZSt7forwardIRKcEOT_RNSt16remove_referenceIS2_E4typeE
FNDA:0,_ZSt7forwardIRKdEOT_RNSt16remove_referenceIS2_E4typeE
FNDA:0,_ZSt7forwardIRKlEOT_RNSt16remove_referenceIS2_E4typeE
FNDA:3,_ZSt7forwardIRKmEOT_RNSt16remove_referenceIS2_E4typeE
FNDA:0,_ZSt7forwardIRN5Catch12ReporterSpecEEOT_RNSt16remove_referenceIS3_E4typeE
FNDA:0,_ZSt7forwardIRN5Catch5Clara3ArgEEOT_RNSt16remove_referenceIS4_E4typeE
FNDA:0,_ZSt7forwardIRN5Catch5Clara3OptEEOT_RNSt16remove_referenceIS4_E4typeE
FNDA:0,_ZSt7forwardIRN5Catch6Detail10unique_ptrINS0_16IReporterFactoryEEEEOT_RNSt16remove_referenceIS6_E4typeE
FNDA:0,_ZSt7forwardIRN5Catch9ResultWas6OfTypeEEOT_RNSt16remove_referenceIS4_E4typeE
FNDA:0,_ZSt7forwardIRN5Catch9StringRefEEOT_RNSt16remove_referenceIS3_E4typeE
FNDA:0,_ZSt7forwardIRNSt15regex_constants18syntax_option_typeEEOT_RNSt16remove_referenceIS3_E4typeE
FNDA:28,_ZSt7forwardIRNSt7__cxx1112basic_stringIcSt11char_traitsIcESaIcEEEEOT_RNSt16remove_referenceIS7_E4typeE
FNDA:0,_ZSt7forwardIRNSt7__cxx119sub_matchIN9__gnu_cxx17__normal_iteratorIPKcNS0_12basic_stringIcSt11char_traitsIcESaIcEEEEEEEEOT_RNSt16remove_referenceISE_E4typeE
FNDA:0,_ZSt7forwardIRNSt8__detail11_AnyMatcherINSt7__cxx1112regex_traitsIcEELb0ELb0ELb0EEEEOT_RNSt16remove_referenceIS7_E4typeE
FNDA:0,_ZSt7forwardIRNSt8__detail11_AnyMatcherINSt7__cxx1112regex_traitsIcEELb0ELb0ELb1EEEEOT_RNSt16remove_referenceIS7_E4typeE
FNDA:0,_ZSt7forwardIRNSt8__detail11_AnyMatcherINSt7__cxx1112regex_traitsIcEELb0ELb1ELb0EEEEOT_RNSt16remove_referenceIS7_E4typeE
FNDA:0,_ZSt7forwardIRNSt8__detail11_AnyMatcherINSt7__cxx1112regex_traitsIcEELb0ELb1ELb1EEEEOT_RNSt16remove_referenceIS7_E4typeE
FNDA:0,_ZSt7forwardIRNSt8__detail11_AnyMatcherINSt7__cxx1112regex_traitsIcEELb1ELb0ELb0EEEEOT_RNSt16remove_referenceIS7_E4typeE
FNDA:0,_ZSt7forwardIRNSt8__detail11_AnyMatcherINSt7__cxx1112regex_traitsIcEELb1ELb0ELb1EEEEOT_RNSt16remove_referenceIS7_E4typeE
FNDA:0,_ZSt7forwardIRNSt8__detail11_AnyMatcherINSt7__cxx1112regex_traitsIcEELb1ELb1ELb0EEEEOT_RNSt16remove_referenceIS7_E4typeE
FNDA:0,_ZSt7forwardIRNSt8__detail11_AnyMatcherINSt7__cxx1112regex_traitsIcEELb1ELb1ELb1EEEEOT_RNSt16remove_referenceIS7_E4typeE
FNDA:0,_ZSt7forwardIRNSt8__detail12_CharMatcherINSt7__cxx1112regex_traitsIcEELb0ELb0EEEEOT_RNSt16remove_referenceIS7_E4typeE
FNDA:0,_ZSt7forwardIRNSt8__detail12_CharMatcherINSt7__cxx1112regex_traitsIcEELb0ELb1EEEEOT_RNSt16remove_referenceIS7_E4typeE
FNDA:0,_ZSt7forwardIRNSt8__detail12_CharMatcherINSt7__cxx1112regex_traitsIcEELb1ELb0EEEEOT_RNSt16remove_referenceIS7_E4typeE
FNDA:0,_ZSt7forwardIRNSt8__detail12_CharMatcherINSt7__cxx1112regex_traitsIcEELb1ELb1EEEEOT_RNSt16remove_referenceIS7_E4typeE
FNDA:0,_ZSt7forwardIRNSt8__detail15_BracketMatcherINSt7__cxx1112regex_traitsIcEELb0ELb0EEEEOT_RNSt16remove_referenceIS7_E4typeE
FNDA:0,_ZSt7forwardIRNSt8__detail15_BracketMatcherINSt7__cxx1112regex_traitsIcEELb0ELb1EEEEOT_RNSt16remove_referenceIS7_E4typeE
FNDA:0,_ZSt7forwardIRNSt8__detail15_BracketMatcherINSt7__cxx1112regex_traitsIcEELb1ELb0EEEEOT_RNSt16remove_referenceIS7_E4typeE
FNDA:0,_ZSt7forwardIRNSt8__detail15_BracketMatcherINSt7__cxx1112regex_traitsIcEELb1ELb1EEEEOT_RNSt16remove_referenceIS7_E4typeE
FNDA:0,_ZSt7forwardIRPSt13_Rb_tree_nodeIN5Catch9StringRefEEEOT_RNSt16remove_referenceIS6_E4typeE
FNDA:132,_ZSt7forwardIRPSt13_Rb_tree_nodeIPKN5Catch12TestCaseInfoEEEOT_RNSt16remove_referenceIS8_E4typeE
FNDA:118,_ZSt7forwardIRPSt13_Rb_tree_nodeIPKN5Catch14TestCaseHandleEEEOT_RNSt16remove_referenceIS8_E4typeE
FNDA:0,_ZSt7forwardIRPSt13_Rb_tree_nodeISt4pairIKN5Catch9StringRefENS2_7TagInfoEEEEOT_RNSt16remove_referenceISA_E4typeE
FNDA:0,_ZSt7forwardIRPSt13_Rb_tree_nodeISt4pairIKN5Catch9StringRefESt6vectorIPKNS2_22CumulativeReporterBase4NodeINS2_13TestCaseStatsENS6_11SectionNodeEEESaISC_EEEEEOT_RNSt16remove_referenceISJ_E4typeE
FNDA:1,_ZSt7forwardIRPSt13_Rb_tree_nodeISt4pairIKNSt7__cxx1112basic_stringIcSt11char_traitsIcESaIcEEEN5Catch6Detail10unique_ptrINS9_16IReporterFactoryEEEEEEOT_RNSt16remove_referenceISI_E4typeE
FNDA:0,_ZSt7forwardIRPSt13_Rb_tree_nodeISt4pairIKNSt7__cxx1112basic_stringIcSt11char_traitsIcESaIcEEEN5Catch8TagAliasEEEEOT_RNSt16remove_referenceISF_E4typeE
FNDA:0,_ZSt7forwardIRPSt13_Rb_tree_nodeISt4pairIKNSt7__cxx1112basic_stringIcSt11char_traitsIcESaIcEEES7_EEEOT_RNSt16remove_referenceISD_E4typeE
FNDA:0,_ZSt7forwardIRPSt13_Rb_tree_nodeISt4pairIKllEEEOT_RNSt16remove_referenceIS7_E4typeE
FNDA:251,_ZSt7forwardIRPSt18_Rb_tree_node_baseEOT_RNSt16remove_referenceIS3_E4typeE
FNDA:0,_ZSt7forwardIRSoEOT_RNSt16remove_referenceIS1_E4typeE
FNDA:0,_ZSt7forwardIRSt17_Rb_tree_iteratorIN5Catch9StringRefEEEOT_RNSt16remove_referenceIS5_E4typeE
FNDA:132,_ZSt7forwardIRSt17_Rb_tree_iteratorIPKN5Catch12TestCaseInfoEEEOT_RNSt16remove_referenceIS7_E4typeE
FNDA:0,_ZSt7forwardIRSt17_Rb_tree_iteratorISt4pairIKN5Catch9StringRefENS2_7TagInfoEEEEOT_RNSt16remove_referenceIS9_E4typeE
FNDA:0,_ZSt7forwardIRSt17_Rb_tree_iteratorISt4pairIKNSt7__cxx1112basic_stringIcSt11char_traitsIcESaIcEEEN5Catch6Detail10unique_ptrINS9_16IReporterFactoryEEEEEEOT_RNSt16remove_referenceISH_E4typeE
FNDA:0,_ZSt7forwardIRSt17_Rb_tree_iteratorISt4pairIKNSt7__cxx1112basic_stringIcSt11char_traitsIcESaIcEEEN5Catch8TagAliasEEEEOT_RNSt16remove_referenceISE_E4typeE
FNDA:0,_ZSt7forwardIRSt17_Rb_tree_iteratorISt4pairIKNSt7__cxx1112basic_stringIcSt11char_traitsIcESaIcEEES7_EEEOT_RNSt16remove_referenceISC_E4typeE
FNDA:14,_ZSt7forwardIRSt6vectorINSt7__cxx1112basic_stringIcSt11char_traitsIcESaIcEEESaIS6_EEEOT_RNSt16remove_referenceISA_E4typeE
FNDA:223,_ZSt7forwardIRbEOT_RNSt16remove_referenceIS1_E4typeE
FNDA:14,_ZSt7forwardIRdEOT_RNSt16remove_referenceIS1_E4typeE
FNDA:0,_ZSt7forwardIRiEOT_RNSt16remove_referenceIS1_E4typeE
FNDA:14,_ZSt7forwardIRjEOT_RNSt16remove_referenceIS1_E4typeE
FNDA:7,_ZSt7forwardIRlEOT_RNSt16remove_referenceIS1_E4typeE
FNDA:0,_ZSt7forwardIRmEOT_RNSt16remove_referenceIS1_E4typeE
FNDA:0,_ZSt7forwardISt17_Rb_tree_iteratorIN5Catch9StringRefEEEOT_RNSt16remove_referenceIS4_E4typeE
FNDA:132,_ZSt7forwardISt17_Rb_tree_iteratorIPKN5Catch12TestCaseInfoEEEOT_RNSt16remove_referenceIS6_E4typeE
FNDA:236,_ZSt7forwardISt17_Rb_tree_iteratorIPKN5Catch14TestCaseHandleEEEOT_RNSt16remove_referenceIS6_E4typeE
FNDA:0,_ZSt7forwardISt4pairIN5Catch9StringRefENS1_7TagInfoEEEOT_RNSt16remove_referenceIS5_E4typeE
FNDA:0,_ZSt7forwardISt4pairINSt7__cxx1112basic_stringIcSt11char_traitsIcESaIcEEEN5Catch8TagAliasEEEOT_RNSt16remove_referenceISA_E4typeE
FNDA:0,_ZSt7forwardISt4pairINSt7__cxx1112basic_stringIcSt11char_traitsIcESaIcEEES6_EEOT_RNSt16remove_referenceIS8_E4typeE
FNDA:0,_ZSt7forwardISt4pairIccEEOT_RNSt16remove_referenceIS2_E4typeE
FNDA:0,_ZSt7forwardISt4pairIiN5Catch9StringRefEEEOT_RNSt16remove_referenceIS4_E4typeE
FNDA:0,_ZSt7forwardISt4pairIlSt6vectorINSt7__cxx119sub_matchIN9__gnu_cxx17__normal_iteratorIPKcNS2_12basic_stringIcSt11char_traitsIcESaIcEEEEEEESaISE_EEEEOT_RNSt16remove_referenceISI_E4typeE
FNDA:0,_ZSt7forwardISt4pairImN5Catch14TestCaseHandleEEEOT_RNSt16remove_referenceIS4_E4typeE
FNDA:54,_ZSt7forwardISt5tupleIJEEEOT_RNSt16remove_referenceIS2_E4typeE
FNDA:0,_ZSt7forwardISt5tupleIJON5Catch9StringRefEEEEOT_RNSt16remove_referenceIS5_E4typeE
FNDA:54,_ZSt7forwardISt5tupleIJONSt7__cxx1112basic_stringIcSt11char_traitsIcESaIcEEEEEEOT_RNSt16remove_referenceIS9_E4typeE
FNDA:0,_ZSt7forwardISt5tupleIJRKlEEEOT_RNSt16remove_referenceIS4_E4typeE
FNDA:111,_ZSt7forwardIZNK5Catch5Clara6Parser5parseERKNSt7__cxx1112basic_stringIcSt11char_traitsIcESaIcEEENS1_6Detail11TokenStreamEE10ParserInfoEOT_RNSt16remove_referenceISE_E4typeE
FNDA:368,_ZSt7forwardIbEOT_RNSt16remove_referenceIS0_E4typeE
FNDA:0,_ZSt7forwardIcEOT_RNSt16remove_referenceIS0_E4typeE
FNDA:0,_ZSt7forwardIdEOT_RNSt16remove_referenceIS0_E4typeE
FNDA:528,_ZSt7forwardIjEOT_RNSt16remove_referenceIS0_E4typeE
FNDA:500,_ZSt7forwardImEOT_RNSt16remove_referenceIS0_E4typeE
FNDA:2,_ZSt4moveIR13HashTableOpenEONSt16remove_referenceIT_E4typeEOS3_
FNDA:2,_ZSt4moveIR5QueueEONSt16remove_referenceIT_E4typeEOS3_
FNDA:2,_ZSt4moveIR7AvlTreeEONSt16remove_referenceIT_E4typeEOS3_
FNDA:2,_ZSt4moveIR7MyArrayEONSt16remove_referenceIT_E4typeEOS3_
FNDA:2,_ZSt4moveIR9HashTableEONSt16remove_referenceIT_E4typeEOS3_
FNDA:0,_ZSt4moveIRN5Catch11MessageInfoEEONSt16remove_referenceIT_E4typeEOS4_
FNDA:1,_ZSt4moveIRN5Catch11SectionInfoEEONSt16remove_referenceIT_E4typeEOS4_
FNDA:2,_ZSt4moveIRN5Catch12ReporterSpecEEONSt16remove_referenceIT_E4typeEOS4_
FNDA:0,_ZSt4moveIRN5Catch12_GLOBAL__N_113BySectionInfoEEONSt16remove_referenceIT_E4typeEOS5_
FNDA:0,_ZSt4moveIRN5Catch12_GLOBAL__N_113SummaryColumnEEONSt16remove_referenceIT_E4typeEOS5_
FNDA:0,_ZSt4moveIRN5Catch13ScopedMessageEEONSt16remove_referenceIT_E4typeEOS4_
FNDA:0,_ZSt4moveIRN5Catch14SectionEndInfoEEONSt16remove_referenceIT_E4typeEOS4_
FNDA:609,_ZSt4moveIRN5Catch14TestCaseHandleEEONSt16remove_referenceIT_E4typeEOS4_
FNDA:0,_ZSt4moveIRN5Catch19ListenerDescriptionEEONSt16remove_referenceIT_E4typeEOS4_
FNDA:0,_ZSt4moveIRN5Catch19ReporterDescriptionEEONSt16remove_referenceIT_E4typeEOS4_
FNDA:1,_ZSt4moveIRN5Catch21ProcessedReporterSpecEEONSt16remove_referenceIT_E4typeEOS4_
FNDA:52,_ZSt4moveIRN5Catch3TagEEONSt16remove_referenceIT_E4typeEOS4_
FNDA:0,_ZSt4moveIRN5Catch5Clara3ArgEEONSt16remove_referenceIT_E4typeEOS5_
FNDA:98,_ZSt4moveIRN5Catch5Clara3OptEEONSt16remove_referenceIT_E4typeEOS5_
FNDA:0,_ZSt4moveIRN5Catch5Clara6Detail11HelpColumnsEEONSt16remove_referenceIT_E4typeEOS6_
FNDA:0,_ZSt4moveIRN5Catch5Clara6Detail5TokenEEONSt16remove_referenceIT_E4typeEOS6_
FNDA:0,_ZSt4moveIRN5Catch6Colour4CodeEEONSt16remove_referenceIT_E4typeEOS5_
FNDA:0,_ZSt4moveIRN5Catch6Detail10unique_ptrIKNS0_20IExceptionTranslatorEEEEONSt16remove_referenceIT_E4typeEOS8_
FNDA:387,_ZSt4moveIRN5Catch6Detail10unique_ptrINS0_12ITestInvokerEEEEONSt16remove_referenceIT_E4typeEOS7_
FNDA:387,_ZSt4moveIRN5Catch6Detail10unique_ptrINS0_12TestCaseInfoEEEEONSt16remove_referenceIT_E4typeEOS7_
FNDA:0,_ZSt4moveIRN5Catch6Detail10unique_ptrINS0_14IEventListenerEEEEONSt16remove_referenceIT_E4typeEOS7_
FNDA:254,_ZSt4moveIRN5Catch6Detail10unique_ptrINS0_16TestCaseTracking8ITrackerEEEEONSt16remove_referenceIT_E4typeEOS8_
FNDA:0,_ZSt4moveIRN5Catch6Detail10unique_ptrINS0_20EventListenerFactoryEEEEONSt16remove_referenceIT_E4typeEOS7_
FNDA:0,_ZSt4moveIRN5Catch6Detail10unique_ptrINS0_22CumulativeReporterBase11SectionNodeEEEEONSt16remove_referenceIT_E4typeEOS8_
FNDA:0,_ZSt4moveIRN5Catch6Detail10unique_ptrINS0_22CumulativeReporterBase4NodeINS0_13TestCaseStatsENS3_11SectionNodeEEEEEEONSt16remove_referenceIT_E4typeEOSB_
FNDA:0,_ZSt4moveIRN5Catch6Detail10unique_ptrINS0_8TestSpec7PatternEEEEONSt16remove_referenceIT_E4typeEOS8_
FNDA:0,_ZSt4moveIRN5Catch6Detail10unique_ptrINS1_8EnumInfoEEEEONSt16remove_referenceIT_E4typeEOS7_
FNDA:1,_ZSt4moveIRN5Catch6Detail10unique_ptrINSt7__cxx1119basic_ostringstreamIcSt11char_traitsIcESaIcEEEEEEONSt16remove_referenceIT_E4typeEOSC_
FNDA:0,_ZSt4moveIRN5Catch7TagInfoEEONSt16remove_referenceIT_E4typeEOS4_
FNDA:0,_ZSt4moveIRN5Catch8TestSpec11FilterMatchEEONSt16remove_referenceIT_E4typeEOS5_
FNDA:0,_ZSt4moveIRN5Catch8TestSpec6FilterEEONSt16remove_referenceIT_E4typeEOS5_
FNDA:0,_ZSt4moveIRN5Catch8TextFlow6Column14const_iteratorEEONSt16remove_referenceIT_E4typeEOS6_
FNDA:0,_ZSt4moveIRN5Catch8TextFlow6ColumnEEONSt16remove_referenceIT_E4typeEOS5_
FNDA:19,_ZSt4moveIRN5Catch9StringRefEEONSt16remove_referenceIT_E4typeEOS4_
FNDA:0,_ZSt4moveIRN9__gnu_cxx5__ops15_Iter_comp_iterIZN5Catch9sortTestsERKNS3_7IConfigERKSt6vectorINS3_14TestCaseHandleESaIS8_EEEUlRKS8_SE_E_EEEONSt16remove_referenceIT_E4typeEOSJ_
FNDA:127,_ZSt4moveIRN9__gnu_cxx5__ops15_Iter_comp_iterIZN5Catch9sortTestsERKNS3_7IConfigERKSt6vectorINS3_14TestCaseHandleESaIS8_EEEUlRKSt4pairImS8_ESG_E_EEEONSt16remove_referenceIT_E4typeEOSL_
FNDA:0,_ZSt4moveIRN9__gnu_cxx5__ops15_Iter_less_iterEEONSt16remove_referenceIT_E4typeEOS5_
FNDA:4,_ZSt4moveIRNSt12_Vector_baseIN5Catch10ColumnInfoESaIS2_EE12_Vector_implEEONSt16remove_referenceIT_E4typeEOS8_
FNDA:2,_ZSt4moveIRNSt12_Vector_baseIN5Catch14TestCaseHandleESaIS2_EE12_Vector_implEEONSt16remove_referenceIT_E4typeEOS8_
FNDA:76,_ZSt4moveIRNSt12_Vector_baseIN5Catch5Clara3ArgESaIS3_EE12_Vector_implEEONSt16remove_referenceIT_E4typeEOS9_
FNDA:76,_ZSt4moveIRNSt12_Vector_baseIN5Catch5Clara3OptESaIS3_EE12_Vector_implEEONSt16remove_referenceIT_E4typeEOS9_
FNDA:8,_ZSt4moveIRNSt12_Vector_baseIN5Catch5Clara6Detail5TokenESaIS4_EE12_Vector_implEEONSt16remove_referenceIT_E4typeEOSA_
FNDA:0,_ZSt4moveIRNSt12_Vector_baseIN5Catch6Detail10unique_ptrINS1_8TestSpec7PatternEEESaIS6_EE12_Vector_implEEONSt16remove_referenceIT_E4typeEOSC_
FNDA:2,_ZSt4moveIRNSt12_Vector_baseIN5Catch8TestSpec6FilterESaIS3_EE12_Vector_implEEONSt16remove_referenceIT_E4typeEOS9_
FNDA:0,_ZSt4moveIRNSt12_Vector_baseIN5Catch8TextFlow6ColumnESaIS3_EE12_Vector_implEEONSt16remove_referenceIT_E4typeEOS9_
FNDA:196,_ZSt4moveIRNSt12_Vector_baseIN5Catch9StringRefESaIS2_EE12_Vector_implEEONSt16remove_referenceIT_E4typeEOS8_
FNDA:0,_ZSt4moveIRNSt12_Vector_baseINSt6chrono8durationIdSt5ratioILl1ELl1000000000EEEESaIS5_EE12_Vector_implEEONSt16remove_referenceIT_E4typeEOSB_
FNDA:2,_ZSt4moveIRNSt12_Vector_baseINSt7__cxx1112basic_stringIcSt11char_traitsIcESaIcEEESaIS6_EE12_Vector_implEEONSt16remove_referenceIT_E4typeEOSC_
FNDA:0,_ZSt4moveIRNSt12_Vector_baseINSt7__cxx1112regex_traitsIcE10_RegexMaskESaIS4_EE12_Vector_implEEONSt16remove_referenceIT_E4typeEOSA_
FNDA:0,_ZSt4moveIRNSt12_Vector_baseINSt7__cxx119sub_matchIN9__gnu_cxx17__normal_iteratorIPKcNS1_12basic_stringIcSt11char_traitsIcESaIcEEEEEEESaISD_EE12_Vector_implEEONSt16remove_referenceIT_E4typeEOSJ_
FNDA:0,_ZSt4moveIRNSt12_Vector_baseIPKN5Catch14TestCaseHandleESaIS4_EE12_Vector_implEEONSt16remove_referenceIT_E4typeEOSA_
FNDA:0,_ZSt4moveIRNSt12_Vector_baseISt4pairINSt7__cxx1112basic_stringIcSt11char_traitsIcESaIcEEES7_ESaIS8_EE12_Vector_implEEONSt16remove_referenceIT_E4typeEOSE_
FNDA:0,_ZSt4moveIRNSt12_Vector_baseISt4pairIccESaIS2_EE12_Vector_implEEONSt16remove_referenceIT_E4typeEOS8_
FNDA:0,_ZSt4moveIRNSt12_Vector_baseISt4pairIlSt6vectorINSt7__cxx119sub_matchIN9__gnu_cxx17__normal_iteratorIPKcNS3_12basic_stringIcSt11char_traitsIcESaIcEEEEEEESaISF_EEESaISI_EE12_Vector_implEEONSt16remove_referenceIT_E4typeEOSO_
FNDA:0,_ZSt4moveIRNSt12_Vector_baseIcSaIcEE12_Vector_implEEONSt16remove_referenceIT_E4typeEOS6_
FNDA:0,_ZSt4moveIRNSt12_Vector_baseIdSaIdEE12_Vector_implEEONSt16remove_referenceIT_E4typeEOS6_
FNDA:0,_ZSt4moveIRNSt15__exception_ptr13exception_ptrEEONSt16remove_referenceIT_E4typeEOS4_
FNDA:0,_ZSt4moveIRNSt6chrono8durationIdSt5ratioILl1ELl1000000000EEEEEONSt16remove_referenceIT_E4typeEOS7_
FNDA:363,_ZSt4moveIRNSt7__cxx1112basic_stringIcSt11char_traitsIcESaIcEEEEONSt16remove_referenceIT_E4typeEOS8_
FNDA:0,_ZSt4moveIRNSt7__cxx1112regex_traitsIcE10_RegexMaskEEONSt16remove_referenceIT_E4typeEOS6_
FNDA:0,_ZSt4moveIRNSt8__detail15_BracketMatcherINSt7__cxx1112regex_traitsIcEELb0ELb0EEEEONSt16remove_referenceIT_E4typeEOS8_
FNDA:0,_ZSt4moveIRNSt8__detail15_BracketMatcherINSt7__cxx1112regex_traitsIcEELb0ELb1EEEEONSt16remove_referenceIT_E4typeEOS8_
FNDA:0,_ZSt4moveIRNSt8__detail15_BracketMatcherINSt7__cxx1112regex_traitsIcEELb1ELb0EEEEONSt16remove_referenceIT_E4typeEOS8_
FNDA:0,_ZSt4moveIRNSt8__detail15_BracketMatcherINSt7__cxx1112regex_traitsIcEELb1ELb1EEEEONSt16remove_referenceIT_E4typeEOS8_
FNDA:0,_ZSt4moveIRNSt8__detail6_StateIcEEEONSt16remove_referenceIT_E4typeEOS5_
FNDA:0,_ZSt4moveIRNSt8__detail9_StateSeqINSt7__cxx1112regex_traitsIcEEEEEONSt16remove_referenceIT_E4typeEOS8_
FNDA:0,_ZSt4moveIRPFbRKSt9_Any_dataOcEEONSt16remove_referenceIT_E4typeEOS8_
FNDA:0,_ZSt4moveIRPFbRSt9_Any_dataRKS0_St18_Manager_operationEEONSt16remove_referenceIT_E4typeEOS9_
FNDA:0,_ZSt4moveIRPKN5Catch10ColourImplEEONSt16remove_referenceIT_E4typeEOS6_
FNDA:0,_ZSt4moveIRPKN5Catch22CumulativeReporterBase4NodeINS0_13TestCaseStatsENS1_11SectionNodeEEEEONSt16remove_referenceIT_E4typeEOSA_
FNDA:0,_ZSt4moveIRPKNSt8__detail4_NFAINSt7__cxx1112regex_traitsIcEEEEEONSt16remove_referenceIT_E4typeEOSA_
FNDA:132,_ZSt4moveIRPN5Catch12TestCaseInfoEEONSt16remove_referenceIT_E4typeEOS5_
FNDA:71,_ZSt4moveIRPN5Catch16TestCaseTracking8ITrackerEEONSt16remove_referenceIT_E4typeEOS6_
FNDA:0,_ZSt4moveIRPN5Catch5Clara3ArgEEONSt16remove_referenceIT_E4typeEOS6_
FNDA:0,_ZSt4moveIRPN5Catch5Clara3OptEEONSt16remove_referenceIT_E4typeEOS6_
FNDA:6,_ZSt4moveIRPN5Catch5Clara6Detail17BoundValueRefBaseEEONSt16remove_referenceIT_E4typeEOS7_
FNDA:0,_ZSt4moveIRPN5Catch5Clara6Detail8BoundRefEEONSt16remove_referenceIT_E4typeEOS7_
FNDA:0,_ZSt4moveIRPN5Catch9StringRefEEONSt16remove_referenceIT_E4typeEOS5_
FNDA:12,_ZSt4moveIRPN5Queue4NodeEEONSt16remove_referenceIT_E4typeEOS5_
FNDA:6,_ZSt4moveIRPN7AvlTree4NodeEEONSt16remove_referenceIT_E4typeEOS5_
FNDA:9,_ZSt4moveIRPNSt7__cxx1112basic_stringIcSt11char_traitsIcESaIcEEEEONSt16remove_referenceIT_E4typeEOS9_
FNDA:1,_ZSt4moveIRSaIN5Catch14TestCaseHandleEEEONSt16remove_referenceIT_E4typeEOS5_
FNDA:1,_ZSt4moveIRSaIN5Catch5Clara3ArgEEEONSt16remove_referenceIT_E4typeEOS6_
FNDA:1,_ZSt4moveIRSaIN5Catch5Clara3OptEEEONSt16remove_referenceIT_E4typeEOS6_
FNDA:0,_ZSt4moveIRSaIN5Catch6Detail10unique_ptrINS0_8TestSpec7PatternEEEEEONSt16remove_referenceIT_E4typeEOS9_
FNDA:0,_ZSt4moveIRSaIN5Catch8TestSpec11FilterMatchEEEONSt16remove_referenceIT_E4typeEOS6_
FNDA:1,_ZSt4moveIRSaIN5Catch8TestSpec6FilterEEEONSt16remove_referenceIT_E4typeEOS6_
FNDA:0,_ZSt4moveIRSaIN5Catch9StringRefEEEONSt16remove_referenceIT_E4typeEOS5_
FNDA:1,_ZSt4moveIRSaINSt7__cxx1112basic_stringIcSt11char_traitsIcESaIcEEEEEONSt16remove_referenceIT_E4typeEOS9_
FNDA:0,_ZSt4moveIRSaINSt7__cxx119sub_matchIN9__gnu_cxx17__normal_iteratorIPKcNS0_12basic_stringIcSt11char_traitsIcESaIcEEEEEEEEEONSt16remove_referenceIT_E4typeEOSG_
FNDA:1,_ZSt4moveIRSaISt13_Rb_tree_nodeIPKN5Catch12TestCaseInfoEEEEONSt16remove_referenceIT_E4typeEOS9_
FNDA:1,_ZSt4moveIRSaISt13_Rb_tree_nodeIPKN5Catch14TestCaseHandleEEEEONSt16remove_referenceIT_E4typeEOS9_
FNDA:0,_ZSt4moveIRSaIcEEONSt16remove_referenceIT_E4typeEOS3_
FNDA:0,_ZSt4moveIRSt10shared_ptrIKNSt8__detail4_NFAINSt7__cxx1112regex_traitsIcEEEEEEONSt16remove_referenceIT_E4typeEOSB_
FNDA:1,_ZSt4moveIRSt10shared_ptrIN5Catch5Clara6Detail11BoundLambdaIZNS1_21makeCommandLineParserERNS1_10ConfigDataEEUlRKNSt7__cxx1112basic_stringIcSt11char_traitsIcESaIcEEEE0_EEEEONSt16remove_referenceIT_E4typeEOSK_
FNDA:1,_ZSt4moveIRSt10shared_ptrIN5Catch5Clara6Detail11BoundLambdaIZNS1_21makeCommandLineParserERNS1_10ConfigDataEEUlRKNSt7__cxx1112basic_stringIcSt11char_traitsIcESaIcEEEE1_EEEEONSt16remove_referenceIT_E4typeEOSK_
FNDA:1,_ZSt4moveIRSt10shared_ptrIN5Catch5Clara6Detail11BoundLambdaIZNS1_21makeCommandLineParserERNS1_10ConfigDataEEUlRKNSt7__cxx1112basic_stringIcSt11char_traitsIcESaIcEEEE2_EEEEONSt16remove_referenceIT_E4typeEOSK_
FNDA:1,_ZSt4moveIRSt10shared_ptrIN5Catch5Clara6Detail11BoundLambdaIZNS1_21makeCommandLineParserERNS1_10ConfigDataEEUlRKNSt7__cxx1112basic_stringIcSt11char_traitsIcESaIcEEEE3_EEEEONSt16remove_referenceIT_E4typeEOSK_
FNDA:1,_ZSt4moveIRSt10shared_ptrIN5Catch5Clara6Detail11BoundLambdaIZNS1_21makeCommandLineParserERNS1_10ConfigDataEEUlRKNSt7__cxx1112basic_stringIcSt11char_traitsIcESaIcEEEE4_EEEEONSt16remove_referenceIT_E4typeEOSK_
FNDA:1,_ZSt4moveIRSt10shared_ptrIN5Catch5Clara6Detail11BoundLambdaIZNS1_21makeCommandLineParserERNS1_10ConfigDataEEUlRKNSt7__cxx1112basic_stringIcSt11char_traitsIcESaIcEEEE5_EEEEONSt16remove_referenceIT_E4typeEOSK_
FNDA:1,_ZSt4moveIRSt10shared_ptrIN5Catch5Clara6Detail11BoundLambdaIZNS1_21makeCommandLineParserERNS1_10ConfigDataEEUlRKNSt7__cxx1112basic_stringIcSt11char_traitsIcESaIcEEEE7_EEEEONSt16remove_referenceIT_E4typeEOSK_
FNDA:1,_ZSt4moveIRSt10shared_ptrIN5Catch5Clara6Detail11BoundLambdaIZNS1_21makeCommandLineParserERNS1_10ConfigDataEEUlRKNSt7__cxx1112basic_stringIcSt11char_traitsIcESaIcEEEE8_EEEEONSt16remove_referenceIT_E4typeEOSK_
FNDA:1,_ZSt4moveIRSt10shared_ptrIN5Catch5Clara6Detail11BoundLambdaIZNS1_21makeCommandLineParserERNS1_10ConfigDataEEUlbE0_EEEEONSt16remove_referenceIT_E4typeEOSC_
FNDA:1,_ZSt4moveIRSt10shared_ptrIN5Catch5Clara6Detail11BoundLambdaIZNS1_21makeCommandLineParserERNS1_10ConfigDataEEUliE_EEEEONSt16remove_referenceIT_E4typeEOSC_
FNDA:13,_ZSt4moveIRSt10shared_ptrIN5Catch5Clara6Detail12BoundFlagRefEEEONSt16remove_referenceIT_E4typeEOS8_
FNDA:4,_ZSt4moveIRSt10shared_ptrIN5Catch5Clara6Detail13BoundValueRefINSt7__cxx1112basic_stringIcSt11char_traitsIcESaIcEEEEEEEONSt16remove_referenceIT_E4typeEOSF_
FNDA:2,_ZSt4moveIRSt10shared_ptrIN5Catch5Clara6Detail13BoundValueRefISt6vectorINSt7__cxx1112basic_stringIcSt11char_traitsIcESaIcEEESaISB_EEEEEEONSt16remove_referenceIT_E4typeEOSI_
FNDA:2,_ZSt4moveIRSt10shared_ptrIN5Catch5Clara6Detail13BoundValueRefIdEEEEONSt16remove_referenceIT_E4typeEOS9_
FNDA:2,_ZSt4moveIRSt10shared_ptrIN5Catch5Clara6Detail13BoundValueRefIjEEEEONSt16remove_referenceIT_E4typeEOS9_
FNDA:1,_ZSt4moveIRSt10shared_ptrIN5Catch5Clara6Detail13BoundValueRefIlEEEEONSt16remove_referenceIT_E4typeEOS9_
FNDA:1,_ZSt4moveIRSt10shared_ptrIN5Catch5Clara6Detail15BoundFlagLambdaIZNS1_21makeCommandLineParserERNS1_10ConfigDataEEUlbE_EEEEONSt16remove_referenceIT_E4typeEOSC_
FNDA:1,_ZSt4moveIRSt10shared_ptrIN5Catch5Clara6Detail15BoundFlagLambdaIZNS2_4HelpC4ERbEUlbE_EEEEONSt16remove_referenceIT_E4typeEOSC_
FNDA:1,_ZSt4moveIRSt10shared_ptrIN5Catch5Clara6Detail15BoundManyLambdaIZNS1_21makeCommandLineParserERNS1_10ConfigDataEEUlRKNSt7__cxx1112basic_stringIcSt11char_traitsIcESaIcEEEE6_EEEEONSt16remove_referenceIT_E4typeEOSK_
FNDA:1,_ZSt4moveIRSt10shared_ptrIN5Catch5Clara6Detail15BoundManyLambdaIZNS1_21makeCommandLineParserERNS1_10ConfigDataEEUlRKNSt7__cxx1112basic_stringIcSt11char_traitsIcESaIcEEEE_EEEEONSt16remove_referenceIT_E4typeEOSK_
FNDA:39,_ZSt4moveIRSt10shared_ptrIN5Catch5Clara6Detail17BoundValueRefBaseEEEONSt16remove_referenceIT_E4typeEOS8_
FNDA:98,_ZSt4moveIRSt10shared_ptrIN5Catch5Clara6Detail8BoundRefEEEONSt16remove_referenceIT_E4typeEOS8_
FNDA:39,_ZSt4moveIRSt10shared_ptrINSt7__cxx1112basic_stringIcSt11char_traitsIcESaIcEEEEEONSt16remove_referenceIT_E4typeEOSA_
FNDA:0,_ZSt4moveIRSt10shared_ptrINSt8__detail4_NFAINSt7__cxx1112regex_traitsIcEEEEEEONSt16remove_referenceIT_E4typeEOSA_
FNDA:0,_ZSt4moveIRSt12__shared_ptrIKNSt8__detail4_NFAINSt7__cxx1112regex_traitsIcEEEELN9__gnu_cxx12_Lock_policyE2EEEONSt16remove_referenceIT_E4typeEOSD_
FNDA:1,_ZSt4moveIRSt12__shared_ptrIN5Catch5Clara6Detail13BoundValueRefINSt7__cxx1112basic_stringIcSt11char_traitsIcESaIcEEEEELN9__gnu_cxx12_Lock_policyE2EEEONSt16remove_referenceIT_E4typeEOSH_
FNDA:1,_ZSt4moveIRSt12__shared_ptrIN5Catch5Clara6Detail17BoundValueRefBaseELN9__gnu_cxx12_Lock_policyE2EEEONSt16remove_referenceIT_E4typeEOSA_
FNDA:0,_ZSt4moveIRSt12__shared_ptrIN5Catch5Clara6Detail8BoundRefELN9__gnu_cxx12_Lock_policyE2EEEONSt16remove_referenceIT_E4typeEOSA_
FNDA:1,_ZSt4moveIRSt12__shared_ptrINSt7__cxx1112basic_stringIcSt11char_traitsIcESaIcEEELN9__gnu_cxx12_Lock_policyE2EEEONSt16remove_referenceIT_E4typeEOSC_
FNDA:1,_ZSt4moveIRSt4lessIPKN5Catch14TestCaseHandleEEEONSt16remove_referenceIT_E4typeEOS8_
FNDA:0,_ZSt4moveIRSt4pairINSt7__cxx1112basic_stringIcSt11char_traitsIcESaIcEEES6_EEONSt16remove_referenceIT_E4typeEOSA_
FNDA:0,_ZSt4moveIRSt4pairIRKNSt7__cxx1112basic_stringIcSt11char_traitsIcESaIcEEERN5Catch6Detail10unique_ptrINS9_16IReporterFactoryEEEEEONSt16remove_referenceIT_E4typeEOSI_
FNDA:0,_ZSt4moveIRSt4pairIRNSt7__cxx1112basic_stringIcSt11char_traitsIcESaIcEEES7_EEONSt16remove_referenceIT_E4typeEOSB_
FNDA:0,_ZSt4moveIRSt4pairIccEEONSt16remove_referenceIT_E4typeEOS4_
FNDA:0,_ZSt4moveIRSt4pairIiN5Catch9StringRefEEEONSt16remove_referenceIT_E4typeEOS6_
FNDA:0,_ZSt4moveIRSt4pairIlSt6vectorINSt7__cxx119sub_matchIN9__gnu_cxx17__normal_iteratorIPKcNS2_12basic_stringIcSt11char_traitsIcESaIcEEEEEEESaISE_EEEEONSt16remove_referenceIT_E4typeEOSK_
FNDA:629,_ZSt4moveIRSt4pairImN5Catch14TestCaseHandleEEEONSt16remove_referenceIT_E4typeEOS6_
FNDA:0,_ZSt4moveIRSt6localeEONSt16remove_referenceIT_E4typeEOS3_
FNDA:1,_ZSt4moveIRSt6vectorIN5Catch14TestCaseHandleESaIS2_EEEONSt16remove_referenceIT_E4typeEOS7_
FNDA:1,_ZSt4moveIRSt6vectorIN5Catch5Clara3ArgESaIS3_EEEONSt16remove_referenceIT_E4typeEOS8_
FNDA:1,_ZSt4moveIRSt6vectorIN5Catch5Clara3OptESaIS3_EEEONSt16remove_referenceIT_E4typeEOS8_
FNDA:0,_ZSt4moveIRSt6vectorIN5Catch6Detail10unique_ptrINS1_8TestSpec7PatternEEESaIS6_EEEONSt16remove_referenceIT_E4typeEOSB_
FNDA:0,_ZSt4moveIRSt6vectorIN5Catch8TestSpec11FilterMatchESaIS3_EEEONSt16remove_referenceIT_E4typeEOS8_
FNDA:1,_ZSt4moveIRSt6vectorIN5Catch8TestSpec6FilterESaIS3_EEEONSt16remove_referenceIT_E4typeEOS8_
FNDA:0,_ZSt4moveIRSt6vectorIN5Catch9StringRefESaIS2_EEEONSt16remove_referenceIT_E4typeEOS7_
FNDA:1,_ZSt4moveIRSt6vectorINSt7__cxx1112basic_stringIcSt11char_traitsIcESaIcEEESaIS6_EEEONSt16remove_referenceIT_E4typeEOSB_
FNDA:0,_ZSt4moveIRSt6vectorINSt7__cxx119sub_matchIN9__gnu_cxx17__normal_iteratorIPKcNS1_12basic_stringIcSt11char_traitsIcESaIcEEEEEEESaISD_EEEONSt16remove_referenceIT_E4typeEOSI_
FNDA:0,_ZSt4moveIRSt6vectorISt4pairIlS0_INSt7__cxx119sub_matchIN9__gnu_cxx17__normal_iteratorIPKcNS2_12basic_stringIcSt11char_traitsIcESaIcEEEEEEESaISE_EEESaISH_EEEONSt16remove_referenceIT_E4typeEOSM_
FNDA:0,_ZSt4moveIRSt8functionIFbcEEEONSt16remove_referenceIT_E4typeEOS5_
FNDA:0,_ZSt4moveIRSt9_Any_dataEONSt16remove_referenceIT_E4typeEOS3_
FNDA:0,_ZSt4moveIRZN5Catch12_GLOBAL__N_111fileNameTagERKSt6vectorINS0_3TagESaIS3_EEEUlRKS3_E_EONSt16remove_referenceIT_E4typeEOSD_
FNDA:0,_ZSt4moveIRZN5Catch14IResultCapture16popScopedMessageEjEUlRKNS0_11MessageInfoEE_EONSt16remove_referenceIT_E4typeEOS8_
FNDA:0,_ZSt4moveIRZN5Catch15defaultListTagsERSoRKSt6vectorINS0_7TagInfoESaIS3_EEbEUlRKT_RKT0_E_EONSt16remove_referenceIS8_E4typeEOS8_
FNDA:284,_ZSt4moveIRZN5Catch16TestCaseTracking11TrackerBase5closeEvEUlRKNS0_6Detail10unique_ptrINS1_8ITrackerEEEE_EONSt16remove_referenceIT_E4typeEOSC_
FNDA:894,_ZSt4moveIRZN5Catch16TestCaseTracking8ITracker9findChildERKNS1_18NameAndLocationRefEEUlRKNS0_6Detail10unique_ptrIS2_EEE_EONSt16remove_referenceIT_E4typeEOSE_
FNDA:0,_ZSt4moveIRZN5Catch20defaultListListenersERSoRKSt6vectorINS0_19ListenerDescriptionESaIS3_EEEUlRKS3_S9_E_EONSt16remove_referenceIT_E4typeEOSD_
FNDA:0,_ZSt4moveIRZN5Catch20defaultListReportersERSoRKSt6vectorINS0_19ReporterDescriptionESaIS3_EENS0_9VerbosityEEUlRKS3_SA_E_EONSt16remove_referenceIT_E4typeEOSE_
FNDA:0,_ZSt4moveIRZN5Catch9Benchmark6Detail9bootstrapEdPdS3_RKSt6vectorIdSaIdEEPFdPKdSA_EEUldE_EONSt16remove_referenceIT_E4typeEOSG_
FNDA:0,_ZSt4moveIRZN5Catch9sortTestsERKNS0_7IConfigERKSt6vectorINS0_14TestCaseHandleESaIS5_EEEUlRKS5_SB_E_EONSt16remove_referenceIT_E4typeEOSF_
FNDA:129,_ZSt4moveIRZN5Catch9sortTestsERKNS0_7IConfigERKSt6vectorINS0_14TestCaseHandleESaIS5_EEEUlRKSt4pairImS5_ESD_E_EONSt16remove_referenceIT_E4typeEOSH_
FNDA:0,_ZSt4moveIRZNK5Catch22CumulativeReporterBase11SectionNode16hasAnyAssertionsEvEUlRKNS0_6Detail26AssertionOrBenchmarkResultEE_EONSt16remove_referenceIT_E4typeEOSA_
FNDA:37,_ZSt4moveIRZNK5Catch5Clara6Parser5parseERKNSt7__cxx1112basic_stringIcSt11char_traitsIcESaIcEEENS1_6Detail11TokenStreamEE10ParserInfoEONSt16remove_referenceIT_E4typeEOSG_
FNDA:156,_ZSt4moveIRZNK5Catch6Detail19CaseInsensitiveLessclENS0_9StringRefES3_EUlccE_EONSt16remove_referenceIT_E4typeEOS7_
FNDA:0,_ZSt4moveIRZNK5Catch8TestSpec7matchesERKNS0_12TestCaseInfoEEUlRKNS1_6FilterEE_EONSt16remove_referenceIT_E4typeEOSB_
FNDA:0,_ZSt4moveIRZZN5Catch10Generators12_GLOBAL__N_116GeneratorTracker5closeEvENKUlvE_clEvEUlRKNS0_6Detail10unique_ptrINS0_16TestCaseTracking8ITrackerEEEE_EONSt16remove_referenceIT_E4typeEOSF_
FNDA:0,_ZSt4moveIRbEONSt16remove_referenceIT_E4typeEOS2_
FNDA:0,_ZSt4moveIRcEONSt16remove_referenceIT_E4typeEOS2_
FNDA:0,_ZSt4moveIRdEONSt16remove_referenceIT_E4typeEOS2_
FNDA:0,_ZSt4moveIRlEONSt16remove_referenceIT_E4typeEOS2_
FNDA:378,_ZSt4moveIRmEONSt16remove_referenceIT_E4typeEOS2_
FNF:485
FNH:184
DA:51,3396
DA:52,3396
DA:70,13169
DA:71,13169
DA:97,5650
DA:98,5650
DA:189,255
DA:197,255
DA:198,255
DA:199,255
DA:200,255
LF:11
LH:11
end_of_record
TN:
SF:/usr/include/c++/13/bits/new_allocator.h
FN:104,104,_ZNSt15__new_allocatorIN5Catch10ColumnInfoEED2Ev
FN:104,104,_ZNSt15__new_allocatorIN5Catch11MessageInfoEED2Ev
FN:104,104,_ZNSt15__new_allocatorIN5Catch11SectionInfoEED2Ev
FN:104,104,_ZNSt15__new_allocatorIN5Catch12JsonReporter6WriterEED2Ev
FN:104,104,_ZNSt15__new_allocatorIN5Catch12ReporterSpecEED2Ev
FN:104,104,_ZNSt15__new_allocatorIN5Catch12_GLOBAL__N_113SummaryColumnEED2Ev
FN:104,104,_ZNSt15__new_allocatorIN5Catch13ScopedMessageEED2Ev
FN:104,104,_ZNSt15__new_allocatorIN5Catch14SectionEndInfoEED2Ev
FN:104,104,_ZNSt15__new_allocatorIN5Catch14TestCaseHandleEED2Ev
FN:104,104,_ZNSt15__new_allocatorIN5Catch15JsonArrayWriterEED2Ev
FN:104,104,_ZNSt15__new_allocatorIN5Catch16JsonObjectWriterEED2Ev
FN:104,104,_ZNSt15__new_allocatorIN5Catch19ListenerDescriptionEED2Ev
FN:104,104,_ZNSt15__new_allocatorIN5Catch19ReporterDescriptionEED2Ev
FN:104,104,_ZNSt15__new_allocatorIN5Catch21ProcessedReporterSpecEED2Ev
FN:104,104,_ZNSt15__new_allocatorIN5Catch3TagEED2Ev
FN:104,104,_ZNSt15__new_allocatorIN5Catch5Clara3ArgEED2Ev
FN:104,104,_ZNSt15__new_allocatorIN5Catch5Clara3OptEED2Ev
FN:104,104,_ZNSt15__new_allocatorIN5Catch5Clara6Detail11HelpColumnsEED2Ev
FN:104,104,_ZNSt15__new_allocatorIN5Catch5Clara6Detail5TokenEED2Ev
FN:104,104,_ZNSt15__new_allocatorIN5Catch6Detail10unique_ptrIKNS0_20IExceptionTranslatorEEEED2Ev
FN:104,104,_ZNSt15__new_allocatorIN5Catch6Detail10unique_ptrINS0_12ITestInvokerEEEED2Ev
FN:104,104,_ZNSt15__new_allocatorIN5Catch6Detail10unique_ptrINS0_12TestCaseInfoEEEED2Ev
FN:104,104,_ZNSt15__new_allocatorIN5Catch6Detail10unique_ptrINS0_14IEventListenerEEEED2Ev
FN:104,104,_ZNSt15__new_allocatorIN5Catch6Detail10unique_ptrINS0_16TestCaseTracking8ITrackerEEEED2Ev
FN:104,104,_ZNSt15__new_allocatorIN5Catch6Detail10unique_ptrINS0_20EventListenerFactoryEEEED2Ev
FN:104,104,_ZNSt15__new_allocatorIN5Catch6Detail10unique_ptrINS0_22CumulativeReporterBase11SectionNodeEEEED2Ev
FN:104,104,_ZNSt15__new_allocatorIN5Catch6Detail10unique_ptrINS0_22CumulativeReporterBase4NodeINS0_13TestCaseStatsENS3_11SectionNodeEEEEEED2Ev
FN:104,104,_ZNSt15__new_allocatorIN5Catch6Detail10unique_ptrINS0_8TestSpec7PatternEEEED2Ev
FN:104,104,_ZNSt15__new_allocatorIN5Catch6Detail10unique_ptrINS1_8EnumInfoEEEED2Ev
FN:104,104,_ZNSt15__new_allocatorIN5Catch6Detail10unique_ptrINSt7__cxx1119basic_ostringstreamIcSt11char_traitsIcESaIcEEEEEED2Ev
FN:104,104,_ZNSt15__new_allocatorIN5Catch6Detail26AssertionOrBenchmarkResultEED2Ev
FN:104,104,_ZNSt15__new_allocatorIN5Catch7TagInfoEED2Ev
FN:104,104,_ZNSt15__new_allocatorIN5Catch8TestSpec11FilterMatchEED2Ev
FN:104,104,_ZNSt15__new_allocatorIN5Catch8TestSpec6FilterEED2Ev
FN:104,104,_ZNSt15__new_allocatorIN5Catch8TextFlow6Column14const_iteratorEED2Ev
FN:104,104,_ZNSt15__new_allocatorIN5Catch8TextFlow6ColumnEED2Ev
FN:104,104,_ZNSt15__new_allocatorIN5Catch9StringRefEED2Ev
FN:104,104,_ZNSt15__new_allocatorINSt15__exception_ptr13exception_ptrEED2Ev
FN:104,104,_ZNSt15__new_allocatorINSt6chrono10time_pointINS0_3_V212steady_clockENS0_8durationIlSt5ratioILl1ELl1000000000EEEEEEED2Ev
FN:104,104,_ZNSt15__new_allocatorINSt6chrono8durationIdSt5ratioILl1ELl1000000000EEEEED2Ev
FN:104,104,_ZNSt15__new_allocatorINSt7__cxx1112basic_stringIcSt11char_traitsIcESaIcEEEED2Ev
FN:104,104,_ZNSt15__new_allocatorINSt7__cxx1112regex_traitsIcE10_RegexMaskEED2Ev
FN:104,104,_ZNSt15__new_allocatorINSt7__cxx119sub_matchIN9__gnu_cxx17__normal_iteratorIPKcNS0_12basic_stringIcSt11char_traitsIcESaIcEEEEEEEED2Ev
FN:104,104,_ZNSt15__new_allocatorINSt8__detail6_StateIcEEED2Ev
FN:104,104,_ZNSt15__new_allocatorINSt8__detail9_StateSeqINSt7__cxx1112regex_traitsIcEEEEED2Ev
FN:104,104,_ZNSt15__new_allocatorIPKN5Catch12TestCaseInfoEED2Ev
FN:104,104,_ZNSt15__new_allocatorIPKN5Catch14TestCaseHandleEED2Ev
FN:104,104,_ZNSt15__new_allocatorIPKN5Catch22CumulativeReporterBase4NodeINS0_13TestCaseStatsENS1_11SectionNodeEEEED2Ev
FN:104,104,_ZNSt15__new_allocatorIPN5Catch10ISingletonEED2Ev
FN:104,104,_ZNSt15__new_allocatorIPN5Catch12JsonReporter6WriterEED2Ev
FN:104,104,_ZNSt15__new_allocatorIPN5Catch12TestCaseInfoEED2Ev
FN:104,104,_ZNSt15__new_allocatorIPN5Catch15JsonArrayWriterEED2Ev
FN:104,104,_ZNSt15__new_allocatorIPN5Catch16JsonObjectWriterEED2Ev
FN:104,104,_ZNSt15__new_allocatorIPN5Catch16TestCaseTracking8ITrackerEED2Ev
FN:104,104,_ZNSt15__new_allocatorIPN5Catch22CumulativeReporterBase11SectionNodeEED2Ev
FN:104,104,_ZNSt15__new_allocatorIPN7AvlTree4NodeEED2Ev
FN:104,104,_ZNSt15__new_allocatorIPNSt8__detail9_StateSeqINSt7__cxx1112regex_traitsIcEEEEED2Ev
FN:104,104,_ZNSt15__new_allocatorIPcED2Ev
FN:104,104,_ZNSt15__new_allocatorIPlED2Ev
FN:104,104,_ZNSt15__new_allocatorISt13_Rb_tree_nodeIN5Catch9StringRefEEED2Ev
FN:104,104,_ZNSt15__new_allocatorISt13_Rb_tree_nodeIPKN5Catch12TestCaseInfoEEED2Ev
FN:104,104,_ZNSt15__new_allocatorISt13_Rb_tree_nodeIPKN5Catch14TestCaseHandleEEED2Ev
FN:104,104,_ZNSt15__new_allocatorISt13_Rb_tree_nodeISt4pairIKN5Catch9StringRefENS2_7TagInfoEEEED2Ev
FN:104,104,_ZNSt15__new_allocatorISt13_Rb_tree_nodeISt4pairIKN5Catch9StringRefESt6vectorIPKNS2_22CumulativeReporterBase4NodeINS2_13TestCaseStatsENS6_11SectionNodeEEESaISC_EEEEED2Ev
FN:104,104,_ZNSt15__new_allocatorISt13_Rb_tree_nodeISt4pairIKNSt7__cxx1112basic_stringIcSt11char_traitsIcESaIcEEEN5Catch6Detail10unique_ptrINS9_16IReporterFactoryEEEEEED2Ev
FN:104,104,_ZNSt15__new_allocatorISt13_Rb_tree_nodeISt4pairIKNSt7__cxx1112basic_stringIcSt11char_traitsIcESaIcEEEN5Catch8TagAliasEEEED2Ev
FN:104,104,_ZNSt15__new_allocatorISt13_Rb_tree_nodeISt4pairIKNSt7__cxx1112basic_stringIcSt11char_traitsIcESaIcEEES7_EEED2Ev
FN:104,104,_ZNSt15__new_allocatorISt13_Rb_tree_nodeISt4pairIKllEEED2Ev
FN:104,104,_ZNSt15__new_allocatorISt23_Sp_counted_ptr_inplaceIN5Catch5Clara6Detail11BoundLambdaIZNS1_21makeCommandLineParserERNS1_10ConfigDataEEUlRKNSt7__cxx1112basic_stringIcSt11char_traitsIcESaIcEEEE0_EESaIvELN9__gnu_cxx12_Lock_policyE2EEED2Ev
FN:104,104,_ZNSt15__new_allocatorISt23_Sp_counted_ptr_inplaceIN5Catch5Clara6Detail11BoundLambdaIZNS1_21makeCommandLineParserERNS1_10ConfigDataEEUlRKNSt7__cxx1112basic_stringIcSt11char_traitsIcESaIcEEEE1_EESaIvELN9__gnu_cxx12_Lock_policyE2EEED2Ev
FN:104,104,_ZNSt15__new_allocatorISt23_Sp_counted_ptr_inplaceIN5Catch5Clara6Detail11BoundLambdaIZNS1_21makeCommandLineParserERNS1_10ConfigDataEEUlRKNSt7__cxx1112basic_stringIcSt11char_traitsIcESaIcEEEE2_EESaIvELN9__gnu_cxx12_Lock_policyE2EEED2Ev
FN:104,104,_ZNSt15__new_allocatorISt23_Sp_counted_ptr_inplaceIN5Catch5Clara6Detail11BoundLambdaIZNS1_21makeCommandLineParserERNS1_10ConfigDataEEUlRKNSt7__cxx1112basic_stringIcSt11char_traitsIcESaIcEEEE3_EESaIvELN9__gnu_cxx12_Lock_policyE2EEED2Ev
FN:104,104,_ZNSt15__new_allocatorISt23_Sp_counted_ptr_inplaceIN5Catch5Clara6Detail11BoundLambdaIZNS1_21makeCommandLineParserERNS1_10ConfigDataEEUlRKNSt7__cxx1112basic_stringIcSt11char_traitsIcESaIcEEEE4_EESaIvELN9__gnu_cxx12_Lock_policyE2EEED2Ev
FN:104,104,_ZNSt15__new_allocatorISt23_Sp_counted_ptr_inplaceIN5Catch5Clara6Detail11BoundLambdaIZNS1_21makeCommandLineParserERNS1_10ConfigDataEEUlRKNSt7__cxx1112basic_stringIcSt11char_traitsIcESaIcEEEE5_EESaIvELN9__gnu_cxx12_Lock_policyE2EEED2Ev
FN:104,104,_ZNSt15__new_allocatorISt23_Sp_counted_ptr_inplaceIN5Catch5Clara6Detail11BoundLambdaIZNS1_21makeCommandLineParserERNS1_10ConfigDataEEUlRKNSt7__cxx1112basic_stringIcSt11char_traitsIcESaIcEEEE7_EESaIvELN9__gnu_cxx12_Lock_policyE2EEED2Ev
FN:104,104,_ZNSt15__new_allocatorISt23_Sp_counted_ptr_inplaceIN5Catch5Clara6Detail11BoundLambdaIZNS1_21makeCommandLineParserERNS1_10ConfigDataEEUlRKNSt7__cxx1112basic_stringIcSt11char_traitsIcESaIcEEEE8_EESaIvELN9__gnu_cxx12_Lock_policyE2EEED2Ev
FN:104,104,_ZNSt15__new_allocatorISt23_Sp_counted_ptr_inplaceIN5Catch5Clara6Detail11BoundLambdaIZNS1_21makeCommandLineParserERNS1_10ConfigDataEEUlbE0_EESaIvELN9__gnu_cxx12_Lock_policyE2EEED2Ev
FN:104,104,_ZNSt15__new_allocatorISt23_Sp_counted_ptr_inplaceIN5Catch5Clara6Detail11BoundLambdaIZNS1_21makeCommandLineParserERNS1_10ConfigDataEEUliE_EESaIvELN9__gnu_cxx12_Lock_policyE2EEED2Ev
FN:104,104,_ZNSt15__new_allocatorISt23_Sp_counted_ptr_inplaceIN5Catch5Clara6Detail12BoundFlagRefESaIvELN9__gnu_cxx12_Lock_policyE2EEED2Ev
FN:104,104,_ZNSt15__new_allocatorISt23_Sp_counted_ptr_inplaceIN5Catch5Clara6Detail13BoundValueRefINSt7__cxx1112basic_stringIcSt11char_traitsIcESaIcEEEEESaIvELN9__gnu_cxx12_Lock_policyE2EEED2Ev
FN:104,104,_ZNSt15__new_allocatorISt23_Sp_counted_ptr_inplaceIN5Catch5Clara6Detail13BoundValueRefISt6vectorINSt7__cxx1112basic_stringIcSt11char_traitsIcESaIcEEESaISB_EEEESaIvELN9__gnu_cxx12_Lock_policyE2EEED2Ev
FN:104,104,_ZNSt15__new_allocatorISt23_Sp_counted_ptr_inplaceIN5Catch5Clara6Detail13BoundValueRefIdEESaIvELN9__gnu_cxx12_Lock_policyE2EEED2Ev
FN:104,104,_ZNSt15__new_allocatorISt23_Sp_counted_ptr_inplaceIN5Catch5Clara6Detail13BoundValueRefIjEESaIvELN9__gnu_cxx12_Lock_policyE2EEED2Ev
FN:104,104,_ZNSt15__new_allocatorISt23_Sp_counted_ptr_inplaceIN5Catch5Clara6Detail13BoundValueRefIlEESaIvELN9__gnu_cxx12_Lock_policyE2EEED2Ev
FN:104,104,_ZNSt15__new_allocatorISt23_Sp_counted_ptr_inplaceIN5Catch5Clara6Detail15BoundFlagLambdaIZNS1_21makeCommandLineParserERNS1_10ConfigDataEEUlbE_EESaIvELN9__gnu_cxx12_Lock_policyE2EEED2Ev
FN:104,104,_ZNSt15__new_allocatorISt23_Sp_counted_ptr_inplaceIN5Catch5Clara6Detail15BoundFlagLambdaIZNS2_4HelpC4ERbEUlbE_EESaIvELN9__gnu_cxx12_Lock_policyE2EEED2Ev
FN:104,104,_ZNSt15__new_allocatorISt23_Sp_counted_ptr_inplaceIN5Catch5Clara6Detail15BoundManyLambdaIZNS1_21makeCommandLineParserERNS1_10ConfigDataEEUlRKNSt7__cxx1112basic_stringIcSt11char_traitsIcESaIcEEEE6_EESaIvELN9__gnu_cxx12_Lock_policyE2EEED2Ev
FN:104,104,_ZNSt15__new_allocatorISt23_Sp_counted_ptr_inplaceIN5Catch5Clara6Detail15BoundManyLambdaIZNS1_21makeCommandLineParserERNS1_10ConfigDataEEUlRKNSt7__cxx1112basic_stringIcSt11char_traitsIcESaIcEEEE_EESaIvELN9__gnu_cxx12_Lock_policyE2EEED2Ev
FN:104,104,_ZNSt15__new_allocatorISt23_Sp_counted_ptr_inplaceINSt7__cxx1112basic_stringIcSt11char_traitsIcESaIcEEESaIvELN9__gnu_cxx12_Lock_policyE2EEED2Ev
FN:104,104,_ZNSt15__new_allocatorISt23_Sp_counted_ptr_inplaceINSt8__detail4_NFAINSt7__cxx1112regex_traitsIcEEEESaIvELN9__gnu_cxx12_Lock_policyE2EEED2Ev
FN:104,104,_ZNSt15__new_allocatorISt4pairIN9__gnu_cxx17__normal_iteratorIPKcNSt7__cxx1112basic_stringIcSt11char_traitsIcESaIcEEEEEiEED2Ev
FN:104,104,_ZNSt15__new_allocatorISt4pairINSt7__cxx1112basic_stringIcSt11char_traitsIcESaIcEEES6_EED2Ev
FN:104,104,_ZNSt15__new_allocatorISt4pairIccEED2Ev
FN:104,104,_ZNSt15__new_allocatorISt4pairIiN5Catch9StringRefEEED2Ev
FN:104,104,_ZNSt15__new_allocatorISt4pairIlSt6vectorINSt7__cxx119sub_matchIN9__gnu_cxx17__normal_iteratorIPKcNS2_12basic_stringIcSt11char_traitsIcESaIcEEEEEEESaISE_EEEED2Ev
FN:104,104,_ZNSt15__new_allocatorISt4pairImN5Catch14TestCaseHandleEEED2Ev
FN:104,104,_ZNSt15__new_allocatorIZNK5Catch5Clara6Parser5parseERKNSt7__cxx1112basic_stringIcSt11char_traitsIcESaIcEEENS1_6Detail11TokenStreamEE10ParserInfoED2Ev
FN:104,104,_ZNSt15__new_allocatorIcED2Ev
FN:104,104,_ZNSt15__new_allocatorIdED2Ev
FN:104,104,_ZNSt15__new_allocatorIlED2Ev
FN:104,104,_ZNSt15__new_allocatorImED2Ev
FN:104,104,_ZNSt15__new_allocatorIwED2Ev
FN:126,152,_ZNSt15__new_allocatorIN5Catch10ColumnInfoEE8allocateEmPKv
FN:126,152,_ZNSt15__new_allocatorIN5Catch11MessageInfoEE8allocateEmPKv
FN:126,152,_ZNSt15__new_allocatorIN5Catch11SectionInfoEE8allocateEmPKv
FN:126,152,_ZNSt15__new_allocatorIN5Catch12JsonReporter6WriterEE8allocateEmPKv
FN:126,152,_ZNSt15__new_allocatorIN5Catch12ReporterSpecEE8allocateEmPKv
FN:126,152,_ZNSt15__new_allocatorIN5Catch12_GLOBAL__N_113SummaryColumnEE8allocateEmPKv
FN:126,152,_ZNSt15__new_allocatorIN5Catch13ScopedMessageEE8allocateEmPKv
FN:126,152,_ZNSt15__new_allocatorIN5Catch14SectionEndInfoEE8allocateEmPKv
FN:126,152,_ZNSt15__new_allocatorIN5Catch14TestCaseHandleEE8allocateEmPKv
FN:126,152,_ZNSt15__new_allocatorIN5Catch15JsonArrayWriterEE8allocateEmPKv
FN:126,152,_ZNSt15__new_allocatorIN5Catch16JsonObjectWriterEE8allocateEmPKv
FN:126,152,_ZNSt15__new_allocatorIN5Catch19ListenerDescriptionEE8allocateEmPKv
FN:126,152,_ZNSt15__new_allocatorIN5Catch19ReporterDescriptionEE8allocateEmPKv
FN:126,152,_ZNSt15__new_allocatorIN5Catch21ProcessedReporterSpecEE8allocateEmPKv
FN:126,152,_ZNSt15__new_allocatorIN5Catch3TagEE8allocateEmPKv
FN:126,152,_ZNSt15__new_allocatorIN5Catch5Clara3ArgEE8allocateEmPKv
FN:126,152,_ZNSt15__new_allocatorIN5Catch5Clara3OptEE8allocateEmPKv
FN:126,152,_ZNSt15__new_allocatorIN5Catch5Clara6Detail11HelpColumnsEE8allocateEmPKv
FN:126,152,_ZNSt15__new_allocatorIN5Catch5Clara6Detail5TokenEE8allocateEmPKv
FN:126,152,_ZNSt15__new_allocatorIN5Catch6Detail10unique_ptrIKNS0_20IExceptionTranslatorEEEE8allocateEmPKv
FN:126,152,_ZNSt15__new_allocatorIN5Catch6Detail10unique_ptrINS0_12ITestInvokerEEEE8allocateEmPKv
FN:126,152,_ZNSt15__new_allocatorIN5Catch6Detail10unique_ptrINS0_12TestCaseInfoEEEE8allocateEmPKv
FN:126,152,_ZNSt15__new_allocatorIN5Catch6Detail10unique_ptrINS0_14IEventListenerEEEE8allocateEmPKv
FN:126,152,_ZNSt15__new_allocatorIN5Catch6Detail10unique_ptrINS0_16TestCaseTracking8ITrackerEEEE8allocateEmPKv
FN:126,152,_ZNSt15__new_allocatorIN5Catch6Detail10unique_ptrINS0_20EventListenerFactoryEEEE8allocateEmPKv
FN:126,152,_ZNSt15__new_allocatorIN5Catch6Detail10unique_ptrINS0_22CumulativeReporterBase11SectionNodeEEEE8allocateEmPKv
FN:126,152,_ZNSt15__new_allocatorIN5Catch6Detail10unique_ptrINS0_22CumulativeReporterBase4NodeINS0_13TestCaseStatsENS3_11SectionNodeEEEEEE8allocateEmPKv
FN:126,152,_ZNSt15__new_allocatorIN5Catch6Detail10unique_ptrINS0_8TestSpec7PatternEEEE8allocateEmPKv
FN:126,152,_ZNSt15__new_allocatorIN5Catch6Detail10unique_ptrINS1_8EnumInfoEEEE8allocateEmPKv
FN:126,152,_ZNSt15__new_allocatorIN5Catch6Detail10unique_ptrINSt7__cxx1119basic_ostringstreamIcSt11char_traitsIcESaIcEEEEEE8allocateEmPKv
FN:126,152,_ZNSt15__new_allocatorIN5Catch6Detail26AssertionOrBenchmarkResultEE8allocateEmPKv
FN:126,152,_ZNSt15__new_allocatorIN5Catch7TagInfoEE8allocateEmPKv
FN:126,152,_ZNSt15__new_allocatorIN5Catch8TestSpec11FilterMatchEE8allocateEmPKv
FN:126,152,_ZNSt15__new_allocatorIN5Catch8TestSpec6FilterEE8allocateEmPKv
FN:126,152,_ZNSt15__new_allocatorIN5Catch8TextFlow6Column14const_iteratorEE8allocateEmPKv
FN:126,152,_ZNSt15__new_allocatorIN5Catch8TextFlow6ColumnEE8allocateEmPKv
FN:126,152,_ZNSt15__new_allocatorIN5Catch9StringRefEE8allocateEmPKv
FN:126,152,_ZNSt15__new_allocatorINSt15__exception_ptr13exception_ptrEE8allocateEmPKv
FN:126,152,_ZNSt15__new_allocatorINSt6chrono10time_pointINS0_3_V212steady_clockENS0_8durationIlSt5ratioILl1ELl1000000000EEEEEEE8allocateEmPKv
FN:126,152,_ZNSt15__new_allocatorINSt6chrono8durationIdSt5ratioILl1ELl1000000000EEEEE8allocateEmPKv
FN:126,152,_ZNSt15__new_allocatorINSt7__cxx1112basic_stringIcSt11char_traitsIcESaIcEEEE8allocateEmPKv
FN:126,152,_ZNSt15__new_allocatorINSt7__cxx1112regex_traitsIcE10_RegexMaskEE8allocateEmPKv
FN:126,152,_ZNSt15__new_allocatorINSt7__cxx119sub_matchIN9__gnu_cxx17__normal_iteratorIPKcNS0_12basic_stringIcSt11char_traitsIcESaIcEEEEEEEE8allocateEmPKv
FN:126,152,_ZNSt15__new_allocatorINSt8__detail6_StateIcEEE8allocateEmPKv
FN:126,152,_ZNSt15__new_allocatorINSt8__detail9_StateSeqINSt7__cxx1112regex_traitsIcEEEEE8allocateEmPKv
FN:126,152,_ZNSt15__new_allocatorIPKN5Catch14TestCaseHandleEE8allocateEmPKv
FN:126,152,_ZNSt15__new_allocatorIPKN5Catch22CumulativeReporterBase4NodeINS0_13TestCaseStatsENS1_11SectionNodeEEEE8allocateEmPKv
FN:126,152,_ZNSt15__new_allocatorIPN5Catch10ISingletonEE8allocateEmPKv
FN:126,152,_ZNSt15__new_allocatorIPN5Catch12JsonReporter6WriterEE8allocateEmPKv
FN:126,152,_ZNSt15__new_allocatorIPN5Catch12TestCaseInfoEE8allocateEmPKv
FN:126,152,_ZNSt15__new_allocatorIPN5Catch15JsonArrayWriterEE8allocateEmPKv
FN:126,152,_ZNSt15__new_allocatorIPN5Catch16JsonObjectWriterEE8allocateEmPKv
FN:126,152,_ZNSt15__new_allocatorIPN5Catch16TestCaseTracking8ITrackerEE8allocateEmPKv
FN:126,152,_ZNSt15__new_allocatorIPN5Catch22CumulativeReporterBase11SectionNodeEE8allocateEmPKv
FN:126,152,_ZNSt15__new_allocatorIPN7AvlTree4NodeEE8allocateEmPKv
FN:126,152,_ZNSt15__new_allocatorIPNSt8__detail9_StateSeqINSt7__cxx1112regex_traitsIcEEEEE8allocateEmPKv
FN:126,152,_ZNSt15__new_allocatorIPcE8allocateEmPKv
FN:126,152,_ZNSt15__new_allocatorIPlE8allocateEmPKv
FN:126,152,_ZNSt15__new_allocatorISt13_Rb_tree_nodeIN5Catch9StringRefEEE8allocateEmPKv
FN:126,152,_ZNSt15__new_allocatorISt13_Rb_tree_nodeIPKN5Catch12TestCaseInfoEEE8allocateEmPKv
FN:126,152,_ZNSt15__new_allocatorISt13_Rb_tree_nodeIPKN5Catch14TestCaseHandleEEE8allocateEmPKv
FN:126,152,_ZNSt15__new_allocatorISt13_Rb_tree_nodeISt4pairIKN5Catch9StringRefENS2_7TagInfoEEEE8allocateEmPKv
FN:126,152,_ZNSt15__new_allocatorISt13_Rb_tree_nodeISt4pairIKN5Catch9StringRefESt6vectorIPKNS2_22CumulativeReporterBase4NodeINS2_13TestCaseStatsENS6_11SectionNodeEEESaISC_EEEEE8allocateEmPKv
FN:126,152,_ZNSt15__new_allocatorISt13_Rb_tree_nodeISt4pairIKNSt7__cxx1112basic_stringIcSt11char_traitsIcESaIcEEEN5Catch6Detail10unique_ptrINS9_16IReporterFactoryEEEEEE8allocateEmPKv
FN:126,152,_ZNSt15__new_allocatorISt13_Rb_tree_nodeISt4pairIKNSt7__cxx1112basic_stringIcSt11char_traitsIcESaIcEEEN5Catch8TagAliasEEEE8allocateEmPKv
FN:126,152,_ZNSt15__new_allocatorISt13_Rb_tree_nodeISt4pairIKNSt7__cxx1112basic_stringIcSt11char_traitsIcESaIcEEES7_EEE8allocateEmPKv
FN:126,152,_ZNSt15__new_allocatorISt13_Rb_tree_nodeISt4pairIKllEEE8allocateEmPKv
FN:126,152,_ZNSt15__new_allocatorISt23_Sp_counted_ptr_inplaceIN5Catch5Clara6Detail11BoundLambdaIZNS1_21makeCommandLineParserERNS1_10ConfigDataEEUlRKNSt7__cxx1112basic_stringIcSt11char_traitsIcESaIcEEEE0_EESaIvELN9__gnu_cxx12_Lock_policyE2EEE8allocateEmPKv
FN:126,152,_ZNSt15__new_allocatorISt23_Sp_counted_ptr_inplaceIN5Catch5Clara6Detail11BoundLambdaIZNS1_21makeCommandLineParserERNS1_10ConfigDataEEUlRKNSt7__cxx1112basic_stringIcSt11char_traitsIcESaIcEEEE1_EESaIvELN9__gnu_cxx12_Lock_policyE2EEE8allocateEmPKv
FN:126,152,_ZNSt15__new_allocatorISt23_Sp_counted_ptr_inplaceIN5Catch5Clara6Detail11BoundLambdaIZNS1_21makeCommandLineParserERNS1_10ConfigDataEEUlRKNSt7__cxx1112basic_stringIcSt11char_traitsIcESaIcEEEE2_EESaIvELN9__gnu_cxx12_Lock_policyE2EEE8allocateEmPKv
FN:126,152,_ZNSt15__new_allocatorISt23_Sp_counted_ptr_inplaceIN5Catch5Clara6Detail11BoundLambdaIZNS1_21makeCommandLineParserERNS1_10ConfigDataEEUlRKNSt7__cxx1112basic_stringIcSt11char_traitsIcESaIcEEEE3_EESaIvELN9__gnu_cxx12_Lock_policyE2EEE8allocateEmPKv
FN:126,152,_ZNSt15__new_allocatorISt23_Sp_counted_ptr_inplaceIN5Catch5Clara6Detail11BoundLambdaIZNS1_21makeCommandLineParserERNS1_10ConfigDataEEUlRKNSt7__cxx1112basic_stringIcSt11char_traitsIcESaIcEEEE4_EESaIvELN9__gnu_cxx12_Lock_policyE2EEE8allocateEmPKv
FN:126,152,_ZNSt15__new_allocatorISt23_Sp_counted_ptr_inplaceIN5Catch5Clara6Detail11BoundLambdaIZNS1_21makeCommandLineParserERNS1_10ConfigDataEEUlRKNSt7__cxx1112basic_stringIcSt11char_traitsIcESaIcEEEE5_EESaIvELN9__gnu_cxx12_Lock_policyE2EEE8allocateEmPKv
FN:126,152,_ZNSt15__new_allocatorISt23_Sp_counted_ptr_inplaceIN5Catch5Clara6Detail11BoundLambdaIZNS1_21makeCommandLineParserERNS1_10ConfigDataEEUlRKNSt7__cxx1112basic_stringIcSt11char_traitsIcESaIcEEEE7_EESaIvELN9__gnu_cxx12_Lock_policyE2EEE8allocateEmPKv
FN:126,152,_ZNSt15__new_allocatorISt23_Sp_counted_ptr_inplaceIN5Catch5Clara6Detail11BoundLambdaIZNS1_21makeCommandLineParserERNS1_10ConfigDataEEUlRKNSt7__cxx1112basic_stringIcSt11char_traitsIcESaIcEEEE8_EESaIvELN9__gnu_cxx12_Lock_policyE2EEE8allocateEmPKv
FN:126,152,_ZNSt15__new_allocatorISt23_Sp_counted_ptr_inplaceIN5Catch5Clara6Detail11BoundLambdaIZNS1_21makeCommandLineParserERNS1_10ConfigDataEEUlbE0_EESaIvELN9__gnu_cxx12_Lock_policyE2EEE8allocateEmPKv
FN:126,152,_ZNSt15__new_allocatorISt23_Sp_counted_ptr_inplaceIN5Catch5Clara6Detail11BoundLambdaIZNS1_21makeCommandLineParserERNS1_10ConfigDataEEUliE_EESaIvELN9__gnu_cxx12_Lock_policyE2EEE8allocateEmPKv
FN:126,152,_ZNSt15__new_allocatorISt23_Sp_counted_ptr_inplaceIN5Catch5Clara6Detail12BoundFlagRefESaIvELN9__gnu_cxx12_Lock_policyE2EEE8allocateEmPKv
FN:126,152,_ZNSt15__new_allocatorISt23_Sp_counted_ptr_inplaceIN5Catch5Clara6Detail13BoundValueRefINSt7__cxx1112basic_stringIcSt11char_traitsIcESaIcEEEEESaIvELN9__gnu_cxx12_Lock_policyE2EEE8allocateEmPKv
FN:126,152,_ZNSt15__new_allocatorISt23_Sp_counted_ptr_inplaceIN5Catch5Clara6Detail13BoundValueRefISt6vectorINSt7__cxx1112basic_stringIcSt11char_traitsIcESaIcEEESaISB_EEEESaIvELN9__gnu_cxx12_Lock_policyE2EEE8allocateEmPKv
FN:126,152,_ZNSt15__new_allocatorISt23_Sp_counted_ptr_inplaceIN5Catch5Clara6Detail13BoundValueRefIdEESaIvELN9__gnu_cxx12_Lock_policyE2EEE8allocateEmPKv
FN:126,152,_ZNSt15__new_allocatorISt23_Sp_counted_ptr_inplaceIN5Catch5Clara6Detail13BoundValueRefIjEESaIvELN9__gnu_cxx12_Lock_policyE2EEE8allocateEmPKv
FN:126,152,_ZNSt15__new_allocatorISt23_Sp_counted_ptr_inplaceIN5Catch5Clara6Detail13BoundValueRefIlEESaIvELN9__gnu_cxx12_Lock_policyE2EEE8allocateEmPKv
FN:126,152,_ZNSt15__new_allocatorISt23_Sp_counted_ptr_inplaceIN5Catch5Clara6Detail15BoundFlagLambdaIZNS1_21makeCommandLineParserERNS1_10ConfigDataEEUlbE_EESaIvELN9__gnu_cxx12_Lock_policyE2EEE8allocateEmPKv
FN:126,152,_ZNSt15__new_allocatorISt23_Sp_counted_ptr_inplaceIN5Catch5Clara6Detail15BoundFlagLambdaIZNS2_4HelpC4ERbEUlbE_EESaIvELN9__gnu_cxx12_Lock_policyE2EEE8allocateEmPKv
FN:126,152,_ZNSt15__new_allocatorISt23_Sp_counted_ptr_inplaceIN5Catch5Clara6Detail15BoundManyLambdaIZNS1_21makeCommandLineParserERNS1_10ConfigDataEEUlRKNSt7__cxx1112basic_stringIcSt11char_traitsIcESaIcEEEE6_EESaIvELN9__gnu_cxx12_Lock_policyE2EEE8allocateEmPKv
FN:126,152,_ZNSt15__new_allocatorISt23_Sp_counted_ptr_inplaceIN5Catch5Clara6Detail15BoundManyLambdaIZNS1_21makeCommandLineParserERNS1_10ConfigDataEEUlRKNSt7__cxx1112basic_stringIcSt11char_traitsIcESaIcEEEE_EESaIvELN9__gnu_cxx12_Lock_policyE2EEE8allocateEmPKv
FN:126,152,_ZNSt15__new_allocatorISt23_Sp_counted_ptr_inplaceINSt7__cxx1112basic_stringIcSt11char_traitsIcESaIcEEESaIvELN9__gnu_cxx12_Lock_policyE2EEE8allocateEmPKv
FN:126,152,_ZNSt15__new_allocatorISt23_Sp_counted_ptr_inplaceINSt8__detail4_NFAINSt7__cxx1112regex_traitsIcEEEESaIvELN9__gnu_cxx12_Lock_policyE2EEE8allocateEmPKv
FN:126,152,_ZNSt15__new_allocatorISt4pairIN9__gnu_cxx17__normal_iteratorIPKcNSt7__cxx1112basic_stringIcSt11char_traitsIcESaIcEEEEEiEE8allocateEmPKv
FN:126,152,_ZNSt15__new_allocatorISt4pairINSt7__cxx1112basic_stringIcSt11char_traitsIcESaIcEEES6_EE8allocateEmPKv
FN:126,152,_ZNSt15__new_allocatorISt4pairIccEE8allocateEmPKv
FN:126,152,_ZNSt15__new_allocatorISt4pairIiN5Catch9StringRefEEE8allocateEmPKv
FN:126,152,_ZNSt15__new_allocatorISt4pairIlSt6vectorINSt7__cxx119sub_matchIN9__gnu_cxx17__normal_iteratorIPKcNS2_12basic_stringIcSt11char_traitsIcESaIcEEEEEEESaISE_EEEE8allocateEmPKv
FN:126,152,_ZNSt15__new_allocatorISt4pairImN5Catch14TestCaseHandleEEE8allocateEmPKv
FN:126,152,_ZNSt15__new_allocatorIZNK5Catch5Clara6Parser5parseERKNSt7__cxx1112basic_stringIcSt11char_traitsIcESaIcEEENS1_6Detail11TokenStreamEE10ParserInfoE8allocateEmPKv
FN:126,152,_ZNSt15__new_allocatorIcE8allocateEmPKv
FN:126,152,_ZNSt15__new_allocatorIdE8allocateEmPKv
FN:126,152,_ZNSt15__new_allocatorIlE8allocateEmPKv
FN:126,152,_ZNSt15__new_allocatorImE8allocateEmPKv
FN:156,173,_ZNSt15__new_allocatorIN5Catch10ColumnInfoEE10deallocateEPS1_m
FN:156,173,_ZNSt15__new_allocatorIN5Catch11MessageInfoEE10deallocateEPS1_m
FN:156,173,_ZNSt15__new_allocatorIN5Catch11SectionInfoEE10deallocateEPS1_m
FN:156,173,_ZNSt15__new_allocatorIN5Catch12JsonReporter6WriterEE10deallocateEPS2_m
FN:156,173,_ZNSt15__new_allocatorIN5Catch12ReporterSpecEE10deallocateEPS1_m
FN:156,173,_ZNSt15__new_allocatorIN5Catch12_GLOBAL__N_113SummaryColumnEE10deallocateEPS2_m
FN:156,173,_ZNSt15__new_allocatorIN5Catch13ScopedMessageEE10deallocateEPS1_m
FN:156,173,_ZNSt15__new_allocatorIN5Catch14SectionEndInfoEE10deallocateEPS1_m
FN:156,173,_ZNSt15__new_allocatorIN5Catch14TestCaseHandleEE10deallocateEPS1_m
FN:156,173,_ZNSt15__new_allocatorIN5Catch15JsonArrayWriterEE10deallocateEPS1_m
FN:156,173,_ZNSt15__new_allocatorIN5Catch16JsonObjectWriterEE10deallocateEPS1_m
FN:156,173,_ZNSt15__new_allocatorIN5Catch19ListenerDescriptionEE10deallocateEPS1_m
FN:156,173,_ZNSt15__new_allocatorIN5Catch19ReporterDescriptionEE10deallocateEPS1_m
FN:156,173,_ZNSt15__new_allocatorIN5Catch21ProcessedReporterSpecEE10deallocateEPS1_m
FN:156,173,_ZNSt15__new_allocatorIN5Catch3TagEE10deallocateEPS1_m
FN:156,173,_ZNSt15__new_allocatorIN5Catch5Clara3ArgEE10deallocateEPS2_m
FN:156,173,_ZNSt15__new_allocatorIN5Catch5Clara3OptEE10deallocateEPS2_m
FN:156,173,_ZNSt15__new_allocatorIN5Catch5Clara6Detail11HelpColumnsEE10deallocateEPS3_m
FN:156,173,_ZNSt15__new_allocatorIN5Catch5Clara6Detail5TokenEE10deallocateEPS3_m
FN:156,173,_ZNSt15__new_allocatorIN5Catch6Detail10unique_ptrIKNS0_20IExceptionTranslatorEEEE10deallocateEPS5_m
FN:156,173,_ZNSt15__new_allocatorIN5Catch6Detail10unique_ptrINS0_12ITestInvokerEEEE10deallocateEPS4_m
FN:156,173,_ZNSt15__new_allocatorIN5Catch6Detail10unique_ptrINS0_12TestCaseInfoEEEE10deallocateEPS4_m
FN:156,173,_ZNSt15__new_allocatorIN5Catch6Detail10unique_ptrINS0_14IEventListenerEEEE10deallocateEPS4_m
FN:156,173,_ZNSt15__new_allocatorIN5Catch6Detail10unique_ptrINS0_16TestCaseTracking8ITrackerEEEE10deallocateEPS5_m
FN:156,173,_ZNSt15__new_allocatorIN5Catch6Detail10unique_ptrINS0_20EventListenerFactoryEEEE10deallocateEPS4_m
FN:156,173,_ZNSt15__new_allocatorIN5Catch6Detail10unique_ptrINS0_22CumulativeReporterBase11SectionNodeEEEE10deallocateEPS5_m
FN:156,173,_ZNSt15__new_allocatorIN5Catch6Detail10unique_ptrINS0_22CumulativeReporterBase4NodeINS0_13TestCaseStatsENS3_11SectionNodeEEEEEE10deallocateEPS8_m
FN:156,173,_ZNSt15__new_allocatorIN5Catch6Detail10unique_ptrINS0_8TestSpec7PatternEEEE10deallocateEPS5_m
FN:156,173,_ZNSt15__new_allocatorIN5Catch6Detail10unique_ptrINS1_8EnumInfoEEEE10deallocateEPS4_m
FN:156,173,_ZNSt15__new_allocatorIN5Catch6Detail10unique_ptrINSt7__cxx1119basic_ostringstreamIcSt11char_traitsIcESaIcEEEEEE10deallocateEPS9_m
FN:156,173,_ZNSt15__new_allocatorIN5Catch6Detail26AssertionOrBenchmarkResultEE10deallocateEPS2_m
FN:156,173,_ZNSt15__new_allocatorIN5Catch7TagInfoEE10deallocateEPS1_m
FN:156,173,_ZNSt15__new_allocatorIN5Catch8TestSpec11FilterMatchEE10deallocateEPS2_m
FN:156,173,_ZNSt15__new_allocatorIN5Catch8TestSpec6FilterEE10deallocateEPS2_m
FN:156,173,_ZNSt15__new_allocatorIN5Catch8TextFlow6Column14const_iteratorEE10deallocateEPS3_m
FN:156,173,_ZNSt15__new_allocatorIN5Catch8TextFlow6ColumnEE10deallocateEPS2_m
FN:156,173,_ZNSt15__new_allocatorIN5Catch9StringRefEE10deallocateEPS1_m
FN:156,173,_ZNSt15__new_allocatorINSt15__exception_ptr13exception_ptrEE10deallocateEPS1_m
FN:156,173,_ZNSt15__new_allocatorINSt6chrono10time_pointINS0_3_V212steady_clockENS0_8durationIlSt5ratioILl1ELl1000000000EEEEEEE10deallocateEPS8_m
FN:156,173,_ZNSt15__new_allocatorINSt6chrono8durationIdSt5ratioILl1ELl1000000000EEEEE10deallocateEPS4_m
FN:156,173,_ZNSt15__new_allocatorINSt7__cxx1112basic_stringIcSt11char_traitsIcESaIcEEEE10deallocateEPS5_m
FN:156,173,_ZNSt15__new_allocatorINSt7__cxx1112regex_traitsIcE10_RegexMaskEE10deallocateEPS3_m
FN:156,173,_ZNSt15__new_allocatorINSt7__cxx119sub_matchIN9__gnu_cxx17__normal_iteratorIPKcNS0_12basic_stringIcSt11char_traitsIcESaIcEEEEEEEE10deallocateEPSC_m
FN:156,173,_ZNSt15__new_allocatorINSt8__detail6_StateIcEEE10deallocateEPS2_m
FN:156,173,_ZNSt15__new_allocatorINSt8__detail9_StateSeqINSt7__cxx1112regex_traitsIcEEEEE10deallocateEPS5_m
FN:156,173,_ZNSt15__new_allocatorIPKN5Catch14TestCaseHandleEE10deallocateEPS3_m
FN:156,173,_ZNSt15__new_allocatorIPKN5Catch22CumulativeReporterBase4NodeINS0_13TestCaseStatsENS1_11SectionNodeEEEE10deallocateEPS7_m
FN:156,173,_ZNSt15__new_allocatorIPN5Catch10ISingletonEE10deallocateEPS2_m
FN:156,173,_ZNSt15__new_allocatorIPN5Catch12JsonReporter6WriterEE10deallocateEPS3_m
FN:156,173,_ZNSt15__new_allocatorIPN5Catch12TestCaseInfoEE10deallocateEPS2_m
FN:156,173,_ZNSt15__new_allocatorIPN5Catch15JsonArrayWriterEE10deallocateEPS2_m
FN:156,173,_ZNSt15__new_allocatorIPN5Catch16JsonObjectWriterEE10deallocateEPS2_m
FN:156,173,_ZNSt15__new_allocatorIPN5Catch16TestCaseTracking8ITrackerEE10deallocateEPS3_m
FN:156,173,_ZNSt15__new_allocatorIPN5Catch22CumulativeReporterBase11SectionNodeEE10deallocateEPS3_m
FN:156,173,_ZNSt15__new_allocatorIPN7AvlTree4NodeEE10deallocateEPS2_m
FN:156,173,_ZNSt15__new_allocatorIPNSt8__detail9_StateSeqINSt7__cxx1112regex_traitsIcEEEEE10deallocateEPS6_m
FN:156,173,_ZNSt15__new_allocatorIPcE10deallocateEPS0_m
FN:156,173,_ZNSt15__new_allocatorIPlE10deallocateEPS0_m
FN:156,173,_ZNSt15__new_allocatorISt13_Rb_tree_nodeIN5Catch9StringRefEEE10deallocateEPS3_m
FN:156,173,_ZNSt15__new_allocatorISt13_Rb_tree_nodeIPKN5Catch12TestCaseInfoEEE10deallocateEPS5_m
FN:156,173,_ZNSt15__new_allocatorISt13_Rb_tree_nodeIPKN5Catch14TestCaseHandleEEE10deallocateEPS5_m
FN:156,173,_ZNSt15__new_allocatorISt13_Rb_tree_nodeISt4pairIKN5Catch9StringRefENS2_7TagInfoEEEE10deallocateEPS7_m
FN:156,173,_ZNSt15__new_allocatorISt13_Rb_tree_nodeISt4pairIKN5Catch9StringRefESt6vectorIPKNS2_22CumulativeReporterBase4NodeINS2_13TestCaseStatsENS6_11SectionNodeEEESaISC_EEEEE10deallocateEPSG_m
FN:156,173,_ZNSt15__new_allocatorISt13_Rb_tree_nodeISt4pairIKNSt7__cxx1112basic_stringIcSt11char_traitsIcESaIcEEEN5Catch6Detail10unique_ptrINS9_16IReporterFactoryEEEEEE10deallocateEPSF_m
FN:156,173,_ZNSt15__new_allocatorISt13_Rb_tree_nodeISt4pairIKNSt7__cxx1112basic_stringIcSt11char_traitsIcESaIcEEEN5Catch8TagAliasEEEE10deallocateEPSC_m
FN:156,173,_ZNSt15__new_allocatorISt13_Rb_tree_nodeISt4pairIKNSt7__cxx1112basic_stringIcSt11char_traitsIcESaIcEEES7_EEE10deallocateEPSA_m
FN:156,173,_ZNSt15__new_allocatorISt13_Rb_tree_nodeISt4pairIKllEEE10deallocateEPS4_m
FN:156,173,_ZNSt15__new_allocatorISt23_Sp_counted_ptr_inplaceIN5Catch5Clara6Detail11BoundLambdaIZNS1_21makeCommandLineParserERNS1_10ConfigDataEEUlRKNSt7__cxx1112basic_stringIcSt11char_traitsIcESaIcEEEE0_EESaIvELN9__gnu_cxx12_Lock_policyE2EEE10deallocateEPSK_m
FN:156,173,_ZNSt15__new_allocatorISt23_Sp_counted_ptr_inplaceIN5Catch5Clara6Detail11BoundLambdaIZNS1_21makeCommandLineParserERNS1_10ConfigDataEEUlRKNSt7__cxx1112basic_stringIcSt11char_traitsIcESaIcEEEE1_EESaIvELN9__gnu_cxx12_Lock_policyE2EEE10deallocateEPSK_m
FN:156,173,_ZNSt15__new_allocatorISt23_Sp_counted_ptr_inplaceIN5Catch5Clara6Detail11BoundLambdaIZNS1_21makeCommandLineParserERNS1_10ConfigDataEEUlRKNSt7__cxx1112basic_stringIcSt11char_traitsIcESaIcEEEE2_EESaIvELN9__gnu_cxx12_Lock_policyE2EEE10deallocateEPSK_m
FN:156,173,_ZNSt15__new_allocatorISt23_Sp_counted_ptr_inplaceIN5Catch5Clara6Detail11BoundLambdaIZNS1_21makeCommandLineParserERNS1_10ConfigDataEEUlRKNSt7__cxx1112basic_stringIcSt11char_traitsIcESaIcEEEE3_EESaIvELN9__gnu_cxx12_Lock_policyE2EEE10deallocateEPSK_m
FN:156,173,_ZNSt15__new_allocatorISt23_Sp_counted_ptr_inplaceIN5Catch5Clara6Detail11BoundLambdaIZNS1_21makeCommandLineParserERNS1_10ConfigDataEEUlRKNSt7__cxx1112basic_stringIcSt11char_traitsIcESaIcEEEE4_EESaIvELN9__gnu_cxx12_Lock_policyE2EEE10deallocateEPSK_m
FN:156,173,_ZNSt15__new_allocatorISt23_Sp_counted_ptr_inplaceIN5Catch5Clara6Detail11BoundLambdaIZNS1_21makeCommandLineParserERNS1_10ConfigDataEEUlRKNSt7__cxx1112basic_stringIcSt11char_traitsIcESaIcEEEE5_EESaIvELN9__gnu_cxx12_Lock_policyE2EEE10deallocateEPSK_m
FN:156,173,_ZNSt15__new_allocatorISt23_Sp_counted_ptr_inplaceIN5Catch5Clara6Detail11BoundLambdaIZNS1_21makeCommandLineParserERNS1_10ConfigDataEEUlRKNSt7__cxx1112basic_stringIcSt11char_traitsIcESaIcEEEE7_EESaIvELN9__gnu_cxx12_Lock_policyE2EEE10deallocateEPSK_m
FN:156,173,_ZNSt15__new_allocatorISt23_Sp_counted_ptr_inplaceIN5Catch5Clara6Detail11BoundLambdaIZNS1_21makeCommandLineParserERNS1_10ConfigDataEEUlRKNSt7__cxx1112basic_stringIcSt11char_traitsIcESaIcEEEE8_EESaIvELN9__gnu_cxx12_Lock_policyE2EEE10deallocateEPSK_m
FN:156,173,_ZNSt15__new_allocatorISt23_Sp_counted_ptr_inplaceIN5Catch5Clara6Detail11BoundLambdaIZNS1_21makeCommandLineParserERNS1_10ConfigDataEEUlbE0_EESaIvELN9__gnu_cxx12_Lock_policyE2EEE10deallocateEPSC_m
FN:156,173,_ZNSt15__new_allocatorISt23_Sp_counted_ptr_inplaceIN5Catch5Clara6Detail11BoundLambdaIZNS1_21makeCommandLineParserERNS1_10ConfigDataEEUliE_EESaIvELN9__gnu_cxx12_Lock_policyE2EEE10deallocateEPSC_m
FN:156,173,_ZNSt15__new_allocatorISt23_Sp_counted_ptr_inplaceIN5Catch5Clara6Detail12BoundFlagRefESaIvELN9__gnu_cxx12_Lock_policyE2EEE10deallocateEPS8_m
FN:156,173,_ZNSt15__new_allocatorISt23_Sp_counted_ptr_inplaceIN5Catch5Clara6Detail13BoundValueRefINSt7__cxx1112basic_stringIcSt11char_traitsIcESaIcEEEEESaIvELN9__gnu_cxx12_Lock_policyE2EEE10deallocateEPSF_m
FN:156,173,_ZNSt15__new_allocatorISt23_Sp_counted_ptr_inplaceIN5Catch5Clara6Detail13BoundValueRefISt6vectorINSt7__cxx1112basic_stringIcSt11char_traitsIcESaIcEEESaISB_EEEESaIvELN9__gnu_cxx12_Lock_policyE2EEE10deallocateEPSI_m
FN:156,173,_ZNSt15__new_allocatorISt23_Sp_counted_ptr_inplaceIN5Catch5Clara6Detail13BoundValueRefIdEESaIvELN9__gnu_cxx12_Lock_policyE2EEE10deallocateEPS9_m
FN:156,173,_ZNSt15__new_allocatorISt23_Sp_counted_ptr_inplaceIN5Catch5Clara6Detail13BoundValueRefIjEESaIvELN9__gnu_cxx12_Lock_policyE2EEE10deallocateEPS9_m
FN:156,173,_ZNSt15__new_allocatorISt23_Sp_counted_ptr_inplaceIN5Catch5Clara6Detail13BoundValueRefIlEESaIvELN9__gnu_cxx12_Lock_policyE2EEE10deallocateEPS9_m
FN:156,173,_ZNSt15__new_allocatorISt23_Sp_counted_ptr_inplaceIN5Catch5Clara6Detail15BoundFlagLambdaIZNS1_21makeCommandLineParserERNS1_10ConfigDataEEUlbE_EESaIvELN9__gnu_cxx12_Lock_policyE2EEE10deallocateEPSC_m
FN:156,173,_ZNSt15__new_allocatorISt23_Sp_counted_ptr_inplaceIN5Catch5Clara6Detail15BoundFlagLambdaIZNS2_4HelpC4ERbEUlbE_EESaIvELN9__gnu_cxx12_Lock_policyE2EEE10deallocateEPSC_m
FN:156,173,_ZNSt15__new_allocatorISt23_Sp_counted_ptr_inplaceIN5Catch5Clara6Detail15BoundManyLambdaIZNS1_21makeCommandLineParserERNS1_10ConfigDataEEUlRKNSt7__cxx1112basic_stringIcSt11char_traitsIcESaIcEEEE6_EESaIvELN9__gnu_cxx12_Lock_policyE2EEE10deallocateEPSK_m
FN:156,173,_ZNSt15__new_allocatorISt23_Sp_counted_ptr_inplaceIN5Catch5Clara6Detail15BoundManyLambdaIZNS1_21makeCommandLineParserERNS1_10ConfigDataEEUlRKNSt7__cxx1112basic_stringIcSt11char_traitsIcESaIcEEEE_EESaIvELN9__gnu_cxx12_Lock_policyE2EEE10deallocateEPSK_m
FN:156,173,_ZNSt15__new_allocatorISt23_Sp_counted_ptr_inplaceINSt7__cxx1112basic_stringIcSt11char_traitsIcESaIcEEESaIvELN9__gnu_cxx12_Lock_policyE2EEE10deallocateEPSA_m
FN:156,173,_ZNSt15__new_allocatorISt23_Sp_counted_ptr_inplaceINSt8__detail4_NFAINSt7__cxx1112regex_traitsIcEEEESaIvELN9__gnu_cxx12_Lock_policyE2EEE10deallocateEPSA_m
FN:156,173,_ZNSt15__new_allocatorISt4pairIN9__gnu_cxx17__normal_iteratorIPKcNSt7__cxx1112basic_stringIcSt11char_traitsIcESaIcEEEEEiEE10deallocateEPSC_m
FN:156,173,_ZNSt15__new_allocatorISt4pairINSt7__cxx1112basic_stringIcSt11char_traitsIcESaIcEEES6_EE10deallocateEPS7_m
FN:156,173,_ZNSt15__new_allocatorISt4pairIccEE10deallocateEPS1_m
FN:156,173,_ZNSt15__new_allocatorISt4pairIiN5Catch9StringRefEEE10deallocateEPS3_m
FN:156,173,_ZNSt15__new_allocatorISt4pairIlSt6vectorINSt7__cxx119sub_matchIN9__gnu_cxx17__normal_iteratorIPKcNS2_12basic_stringIcSt11char_traitsIcESaIcEEEEEEESaISE_EEEE10deallocateEPSH_m
FN:156,173,_ZNSt15__new_allocatorISt4pairImN5Catch14TestCaseHandleEEE10deallocateEPS3_m
FN:156,173,_ZNSt15__new_allocatorIZNK5Catch5Clara6Parser5parseERKNSt7__cxx1112basic_stringIcSt11char_traitsIcESaIcEEENS1_6Detail11TokenStreamEE10ParserInfoE10deallocateEPSD_m
FN:156,173,_ZNSt15__new_allocatorIcE10deallocateEPcm
FN:156,173,_ZNSt15__new_allocatorIdE10deallocateEPdm
FN:156,173,_ZNSt15__new_allocatorIlE10deallocateEPlm
FN:156,173,_ZNSt15__new_allocatorImE10deallocateEPmm
FNDA:5,_ZNSt15__new_allocatorIN5Catch10ColumnInfoEED2Ev
FNDA:1,_ZNSt15__new_allocatorIN5Catch11MessageInfoEED2Ev
FNDA:1,_ZNSt15__new_allocatorIN5Catch11SectionInfoEED2Ev
FNDA:0,_ZNSt15__new_allocatorIN5Catch12JsonReporter6WriterEED2Ev
FNDA:3,_ZNSt15__new_allocatorIN5Catch12ReporterSpecEED2Ev
FNDA:0,_ZNSt15__new_allocatorIN5Catch12_GLOBAL__N_113SummaryColumnEED2Ev
FNDA:1,_ZNSt15__new_allocatorIN5Catch13ScopedMessageEED2Ev
FNDA:1,_ZNSt15__new_allocatorIN5Catch14SectionEndInfoEED2Ev
FNDA:6,_ZNSt15__new_allocatorIN5Catch14TestCaseHandleEED2Ev
FNDA:0,_ZNSt15__new_allocatorIN5Catch15JsonArrayWriterEED2Ev
FNDA:0,_ZNSt15__new_allocatorIN5Catch16JsonObjectWriterEED2Ev
FNDA:0,_ZNSt15__new_allocatorIN5Catch19ListenerDescriptionEED2Ev
FNDA:0,_ZNSt15__new_allocatorIN5Catch19ReporterDescriptionEED2Ev
FNDA:1,_ZNSt15__new_allocatorIN5Catch21ProcessedReporterSpecEED2Ev
FNDA:132,_ZNSt15__new_allocatorIN5Catch3TagEED2Ev
FNDA:42,_ZNSt15__new_allocatorIN5Catch5Clara3ArgEED2Ev
FNDA:42,_ZNSt15__new_allocatorIN5Catch5Clara3OptEED2Ev
FNDA:0,_ZNSt15__new_allocatorIN5Catch5Clara6Detail11HelpColumnsEED2Ev
FNDA:5,_ZNSt15__new_allocatorIN5Catch5Clara6Detail5TokenEED2Ev
FNDA:1,_ZNSt15__new_allocatorIN5Catch6Detail10unique_ptrIKNS0_20IExceptionTranslatorEEEED2Ev
FNDA:1,_ZNSt15__new_allocatorIN5Catch6Detail10unique_ptrINS0_12ITestInvokerEEEED2Ev
FNDA:1,_ZNSt15__new_allocatorIN5Catch6Detail10unique_ptrINS0_12TestCaseInfoEEEED2Ev
FNDA:0,_ZNSt15__new_allocatorIN5Catch6Detail10unique_ptrINS0_14IEventListenerEEEED2Ev
FNDA:307,_ZNSt15__new_allocatorIN5Catch6Detail10unique_ptrINS0_16TestCaseTracking8ITrackerEEEED2Ev
FNDA:1,_ZNSt15__new_allocatorIN5Catch6Detail10unique_ptrINS0_20EventListenerFactoryEEEED2Ev
FNDA:0,_ZNSt15__new_allocatorIN5Catch6Detail10unique_ptrINS0_22CumulativeReporterBase11SectionNodeEEEED2Ev
FNDA:0,_ZNSt15__new_allocatorIN5Catch6Detail10unique_ptrINS0_22CumulativeReporterBase4NodeINS0_13TestCaseStatsENS3_11SectionNodeEEEEEED2Ev
FNDA:2,_ZNSt15__new_allocatorIN5Catch6Detail10unique_ptrINS0_8TestSpec7PatternEEEED2Ev
FNDA:1,_ZNSt15__new_allocatorIN5Catch6Detail10unique_ptrINS1_8EnumInfoEEEED2Ev
FNDA:1,_ZNSt15__new_allocatorIN5Catch6Detail10unique_ptrINSt7__cxx1119basic_ostringstreamIcSt11char_traitsIcESaIcEEEEEED2Ev
FNDA:0,_ZNSt15__new_allocatorIN5Catch6Detail26AssertionOrBenchmarkResultEED2Ev
FNDA:0,_ZNSt15__new_allocatorIN5Catch7TagInfoEED2Ev
FNDA:1,_ZNSt15__new_allocatorIN5Catch8TestSpec11FilterMatchEED2Ev
FNDA:5,_ZNSt15__new_allocatorIN5Catch8TestSpec6FilterEED2Ev
FNDA:0,_ZNSt15__new_allocatorIN5Catch8TextFlow6Column14const_iteratorEED2Ev
FNDA:0,_ZNSt15__new_allocatorIN5Catch8TextFlow6ColumnEED2Ev
FNDA:446,_ZNSt15__new_allocatorIN5Catch9StringRefEED2Ev
FNDA:1,_ZNSt15__new_allocatorINSt15__exception_ptr13exception_ptrEED2Ev
FNDA:0,_ZNSt15__new_allocatorINSt6chrono10time_pointINS0_3_V212steady_clockENS0_8durationIlSt5ratioILl1ELl1000000000EEEEEEED2Ev
FNDA:0,_ZNSt15__new_allocatorINSt6chrono8durationIdSt5ratioILl1ELl1000000000EEEEED2Ev
FNDA:17,_ZNSt15__new_allocatorINSt7__cxx1112basic_stringIcSt11char_traitsIcESaIcEEEED2Ev
FNDA:0,_ZNSt15__new_allocatorINSt7__cxx1112regex_traitsIcE10_RegexMaskEED2Ev
FNDA:0,_ZNSt15__new_allocatorINSt7__cxx119sub_matchIN9__gnu_cxx17__normal_iteratorIPKcNS0_12basic_stringIcSt11char_traitsIcESaIcEEEEEEEED2Ev
FNDA:0,_ZNSt15__new_allocatorINSt8__detail6_StateIcEEED2Ev
FNDA:0,_ZNSt15__new_allocatorINSt8__detail9_StateSeqINSt7__cxx1112regex_traitsIcEEEEED2Ev
FNDA:2,_ZNSt15__new_allocatorIPKN5Catch12TestCaseInfoEED2Ev
FNDA:0,_ZNSt15__new_allocatorIPKN5Catch14TestCaseHandleEED2Ev
FNDA:0,_ZNSt15__new_allocatorIPKN5Catch22CumulativeReporterBase4NodeINS0_13TestCaseStatsENS1_11SectionNodeEEEED2Ev
FNDA:2,_ZNSt15__new_allocatorIPN5Catch10ISingletonEED2Ev
FNDA:0,_ZNSt15__new_allocatorIPN5Catch12JsonReporter6WriterEED2Ev
FNDA:1,_ZNSt15__new_allocatorIPN5Catch12TestCaseInfoEED2Ev
FNDA:0,_ZNSt15__new_allocatorIPN5Catch15JsonArrayWriterEED2Ev
FNDA:0,_ZNSt15__new_allocatorIPN5Catch16JsonObjectWriterEED2Ev
FNDA:1,_ZNSt15__new_allocatorIPN5Catch16TestCaseTracking8ITrackerEED2Ev
FNDA:0,_ZNSt15__new_allocatorIPN5Catch22CumulativeReporterBase11SectionNodeEED2Ev
FNDA:4,_ZNSt15__new_allocatorIPN7AvlTree4NodeEED2Ev
FNDA:0,_ZNSt15__new_allocatorIPNSt8__detail9_StateSeqINSt7__cxx1112regex_traitsIcEEEEED2Ev
FNDA:0,_ZNSt15__new_allocatorIPcED2Ev
FNDA:0,_ZNSt15__new_allocatorIPlED2Ev
FNDA:0,_ZNSt15__new_allocatorISt13_Rb_tree_nodeIN5Catch9StringRefEEED2Ev
FNDA:2,_ZNSt15__new_allocatorISt13_Rb_tree_nodeIPKN5Catch12TestCaseInfoEEED2Ev
FNDA:3,_ZNSt15__new_allocatorISt13_Rb_tree_nodeIPKN5Catch14TestCaseHandleEEED2Ev
FNDA:0,_ZNSt15__new_allocatorISt13_Rb_tree_nodeISt4pairIKN5Catch9StringRefENS2_7TagInfoEEEED2Ev
FNDA:0,_ZNSt15__new_allocatorISt13_Rb_tree_nodeISt4pairIKN5Catch9StringRefESt6vectorIPKNS2_22CumulativeReporterBase4NodeINS2_13TestCaseStatsENS6_11SectionNodeEEESaISC_EEEEED2Ev
FNDA:1,_ZNSt15__new_allocatorISt13_Rb_tree_nodeISt4pairIKNSt7__cxx1112basic_stringIcSt11char_traitsIcESaIcEEEN5Catch6Detail10unique_ptrINS9_16IReporterFactoryEEEEEED2Ev
FNDA:1,_ZNSt15__new_allocatorISt13_Rb_tree_nodeISt4pairIKNSt7__cxx1112basic_stringIcSt11char_traitsIcESaIcEEEN5Catch8TagAliasEEEED2Ev
FNDA:13,_ZNSt15__new_allocatorISt13_Rb_tree_nodeISt4pairIKNSt7__cxx1112basic_stringIcSt11char_traitsIcESaIcEEES7_EEED2Ev
FNDA:0,_ZNSt15__new_allocatorISt13_Rb_tree_nodeISt4pairIKllEEED2Ev
FNDA:2,_ZNSt15__new_allocatorISt23_Sp_counted_ptr_inplaceIN5Catch5Clara6Detail11BoundLambdaIZNS1_21makeCommandLineParserERNS1_10ConfigDataEEUlRKNSt7__cxx1112basic_stringIcSt11char_traitsIcESaIcEEEE0_EESaIvELN9__gnu_cxx12_Lock_policyE2EEED2Ev
FNDA:2,_ZNSt15__new_allocatorISt23_Sp_counted_ptr_inplaceIN5Catch5Clara6Detail11BoundLambdaIZNS1_21makeCommandLineParserERNS1_10ConfigDataEEUlRKNSt7__cxx1112basic_stringIcSt11char_traitsIcESaIcEEEE1_EESaIvELN9__gnu_cxx12_Lock_policyE2EEED2Ev
FNDA:2,_ZNSt15__new_allocatorISt23_Sp_counted_ptr_inplaceIN5Catch5Clara6Detail11BoundLambdaIZNS1_21makeCommandLineParserERNS1_10ConfigDataEEUlRKNSt7__cxx1112basic_stringIcSt11char_traitsIcESaIcEEEE2_EESaIvELN9__gnu_cxx12_Lock_policyE2EEED2Ev
FNDA:2,_ZNSt15__new_allocatorISt23_Sp_counted_ptr_inplaceIN5Catch5Clara6Detail11BoundLambdaIZNS1_21makeCommandLineParserERNS1_10ConfigDataEEUlRKNSt7__cxx1112basic_stringIcSt11char_traitsIcESaIcEEEE3_EESaIvELN9__gnu_cxx12_Lock_policyE2EEED2Ev
FNDA:2,_ZNSt15__new_allocatorISt23_Sp_counted_ptr_inplaceIN5Catch5Clara6Detail11BoundLambdaIZNS1_21makeCommandLineParserERNS1_10ConfigDataEEUlRKNSt7__cxx1112basic_stringIcSt11char_traitsIcESaIcEEEE4_EESaIvELN9__gnu_cxx12_Lock_policyE2EEED2Ev
FNDA:2,_ZNSt15__new_allocatorISt23_Sp_counted_ptr_inplaceIN5Catch5Clara6Detail11BoundLambdaIZNS1_21makeCommandLineParserERNS1_10ConfigDataEEUlRKNSt7__cxx1112basic_stringIcSt11char_traitsIcESaIcEEEE5_EESaIvELN9__gnu_cxx12_Lock_policyE2EEED2Ev
FNDA:2,_ZNSt15__new_allocatorISt23_Sp_counted_ptr_inplaceIN5Catch5Clara6Detail11BoundLambdaIZNS1_21makeCommandLineParserERNS1_10ConfigDataEEUlRKNSt7__cxx1112basic_stringIcSt11char_traitsIcESaIcEEEE7_EESaIvELN9__gnu_cxx12_Lock_policyE2EEED2Ev
FNDA:2,_ZNSt15__new_allocatorISt23_Sp_counted_ptr_inplaceIN5Catch5Clara6Detail11BoundLambdaIZNS1_21makeCommandLineParserERNS1_10ConfigDataEEUlRKNSt7__cxx1112basic_stringIcSt11char_traitsIcESaIcEEEE8_EESaIvELN9__gnu_cxx12_Lock_policyE2EEED2Ev
FNDA:2,_ZNSt15__new_allocatorISt23_Sp_counted_ptr_inplaceIN5Catch5Clara6Detail11BoundLambdaIZNS1_21makeCommandLineParserERNS1_10ConfigDataEEUlbE0_EESaIvELN9__gnu_cxx12_Lock_policyE2EEED2Ev
FNDA:2,_ZNSt15__new_allocatorISt23_Sp_counted_ptr_inplaceIN5Catch5Clara6Detail11BoundLambdaIZNS1_21makeCommandLineParserERNS1_10ConfigDataEEUliE_EESaIvELN9__gnu_cxx12_Lock_policyE2EEED2Ev
FNDA:26,_ZNSt15__new_allocatorISt23_Sp_counted_ptr_inplaceIN5Catch5Clara6Detail12BoundFlagRefESaIvELN9__gnu_cxx12_Lock_policyE2EEED2Ev
FNDA:8,_ZNSt15__new_allocatorISt23_Sp_counted_ptr_inplaceIN5Catch5Clara6Detail13BoundValueRefINSt7__cxx1112basic_stringIcSt11char_traitsIcESaIcEEEEESaIvELN9__gnu_cxx12_Lock_policyE2EEED2Ev
FNDA:4,_ZNSt15__new_allocatorISt23_Sp_counted_ptr_inplaceIN5Catch5Clara6Detail13BoundValueRefISt6vectorINSt7__cxx1112basic_stringIcSt11char_traitsIcESaIcEEESaISB_EEEESaIvELN9__gnu_cxx12_Lock_policyE2EEED2Ev
FNDA:4,_ZNSt15__new_allocatorISt23_Sp_counted_ptr_inplaceIN5Catch5Clara6Detail13BoundValueRefIdEESaIvELN9__gnu_cxx12_Lock_policyE2EEED2Ev
FNDA:4,_ZNSt15__new_allocatorISt23_Sp_counted_ptr_inplaceIN5Catch5Clara6Detail13BoundValueRefIjEESaIvELN9__gnu_cxx12_Lock_policyE2EEED2Ev
FNDA:2,_ZNSt15__new_allocatorISt23_Sp_counted_ptr_inplaceIN5Catch5Clara6Detail13BoundValueRefIlEESaIvELN9__gnu_cxx12_Lock_policyE2EEED2Ev
FNDA:2,_ZNSt15__new_allocatorISt23_Sp_counted_ptr_inplaceIN5Catch5Clara6Detail15BoundFlagLambdaIZNS1_21makeCommandLineParserERNS1_10ConfigDataEEUlbE_EESaIvELN9__gnu_cxx12_Lock_policyE2EEED2Ev
FNDA:2,_ZNSt15__new_allocatorISt23_Sp_counted_ptr_inplaceIN5Catch5Clara6Detail15BoundFlagLambdaIZNS2_4HelpC4ERbEUlbE_EESaIvELN9__gnu_cxx12_Lock_policyE2EEED2Ev
FNDA:2,_ZNSt15__new_allocatorISt23_Sp_counted_ptr_inplaceIN5Catch5Clara6Detail15BoundManyLambdaIZNS1_21makeCommandLineParserERNS1_10ConfigDataEEUlRKNSt7__cxx1112basic_stringIcSt11char_traitsIcESaIcEEEE6_EESaIvELN9__gnu_cxx12_Lock_policyE2EEED2Ev
FNDA:2,_ZNSt15__new_allocatorISt23_Sp_counted_ptr_inplaceIN5Catch5Clara6Detail15BoundManyLambdaIZNS1_21makeCommandLineParserERNS1_10ConfigDataEEUlRKNSt7__cxx1112basic_stringIcSt11char_traitsIcESaIcEEEE_EESaIvELN9__gnu_cxx12_Lock_policyE2EEED2Ev
FNDA:6,_ZNSt15__new_allocatorISt23_Sp_counted_ptr_inplaceINSt7__cxx1112basic_stringIcSt11char_traitsIcESaIcEEESaIvELN9__gnu_cxx12_Lock_policyE2EEED2Ev
FNDA:0,_ZNSt15__new_allocatorISt23_Sp_counted_ptr_inplaceINSt8__detail4_NFAINSt7__cxx1112regex_traitsIcEEEESaIvELN9__gnu_cxx12_Lock_policyE2EEED2Ev
FNDA:0,_ZNSt15__new_allocatorISt4pairIN9__gnu_cxx17__normal_iteratorIPKcNSt7__cxx1112basic_stringIcSt11char_traitsIcESaIcEEEEEiEED2Ev
FNDA:0,_ZNSt15__new_allocatorISt4pairINSt7__cxx1112basic_stringIcSt11char_traitsIcESaIcEEES6_EED2Ev
FNDA:0,_ZNSt15__new_allocatorISt4pairIccEED2Ev
FNDA:0,_ZNSt15__new_allocatorISt4pairIiN5Catch9StringRefEEED2Ev
FNDA:0,_ZNSt15__new_allocatorISt4pairIlSt6vectorINSt7__cxx119sub_matchIN9__gnu_cxx17__normal_iteratorIPKcNS2_12basic_stringIcSt11char_traitsIcESaIcEEEEEEESaISE_EEEED2Ev
FNDA:1,_ZNSt15__new_allocatorISt4pairImN5Catch14TestCaseHandleEEED2Ev
FNDA:1,_ZNSt15__new_allocatorIZNK5Catch5Clara6Parser5parseERKNSt7__cxx1112basic_stringIcSt11char_traitsIcESaIcEEENS1_6Detail11TokenStreamEE10ParserInfoED2Ev
FNDA:1416,_ZNSt15__new_allocatorIcED2Ev
FNDA:0,_ZNSt15__new_allocatorIdED2Ev
FNDA:0,_ZNSt15__new_allocatorIlED2Ev
FNDA:2,_ZNSt15__new_allocatorImED2Ev
FNDA:0,_ZNSt15__new_allocatorIwED2Ev
FNDA:1,_ZNSt15__new_allocatorIN5Catch10ColumnInfoEE8allocateEmPKv
FNDA:0,_ZNSt15__new_allocatorIN5Catch11MessageInfoEE8allocateEmPKv
FNDA:2,_ZNSt15__new_allocatorIN5Catch11SectionInfoEE8allocateEmPKv
FNDA:0,_ZNSt15__new_allocatorIN5Catch12JsonReporter6WriterEE8allocateEmPKv
FNDA:1,_ZNSt15__new_allocatorIN5Catch12ReporterSpecEE8allocateEmPKv
FNDA:0,_ZNSt15__new_allocatorIN5Catch12_GLOBAL__N_113SummaryColumnEE8allocateEmPKv
FNDA:0,_ZNSt15__new_allocatorIN5Catch13ScopedMessageEE8allocateEmPKv
FNDA:0,_ZNSt15__new_allocatorIN5Catch14SectionEndInfoEE8allocateEmPKv
FNDA:10,_ZNSt15__new_allocatorIN5Catch14TestCaseHandleEE8allocateEmPKv
FNDA:0,_ZNSt15__new_allocatorIN5Catch15JsonArrayWriterEE8allocateEmPKv
FNDA:0,_ZNSt15__new_allocatorIN5Catch16JsonObjectWriterEE8allocateEmPKv
FNDA:0,_ZNSt15__new_allocatorIN5Catch19ListenerDescriptionEE8allocateEmPKv
FNDA:0,_ZNSt15__new_allocatorIN5Catch19ReporterDescriptionEE8allocateEmPKv
FNDA:1,_ZNSt15__new_allocatorIN5Catch21ProcessedReporterSpecEE8allocateEmPKv
FNDA:148,_ZNSt15__new_allocatorIN5Catch3TagEE8allocateEmPKv
FNDA:1,_ZNSt15__new_allocatorIN5Catch5Clara3ArgEE8allocateEmPKv
FNDA:7,_ZNSt15__new_allocatorIN5Catch5Clara3OptEE8allocateEmPKv
FNDA:0,_ZNSt15__new_allocatorIN5Catch5Clara6Detail11HelpColumnsEE8allocateEmPKv
FNDA:0,_ZNSt15__new_allocatorIN5Catch5Clara6Detail5TokenEE8allocateEmPKv
FNDA:0,_ZNSt15__new_allocatorIN5Catch6Detail10unique_ptrIKNS0_20IExceptionTranslatorEEEE8allocateEmPKv
FNDA:9,_ZNSt15__new_allocatorIN5Catch6Detail10unique_ptrINS0_12ITestInvokerEEEE8allocateEmPKv
FNDA:9,_ZNSt15__new_allocatorIN5Catch6Detail10unique_ptrINS0_12TestCaseInfoEEEE8allocateEmPKv
FNDA:0,_ZNSt15__new_allocatorIN5Catch6Detail10unique_ptrINS0_14IEventListenerEEEE8allocateEmPKv
FNDA:179,_ZNSt15__new_allocatorIN5Catch6Detail10unique_ptrINS0_16TestCaseTracking8ITrackerEEEE8allocateEmPKv
FNDA:0,_ZNSt15__new_allocatorIN5Catch6Detail10unique_ptrINS0_20EventListenerFactoryEEEE8allocateEmPKv
FNDA:0,_ZNSt15__new_allocatorIN5Catch6Detail10unique_ptrINS0_22CumulativeReporterBase11SectionNodeEEEE8allocateEmPKv
FNDA:0,_ZNSt15__new_allocatorIN5Catch6Detail10unique_ptrINS0_22CumulativeReporterBase4NodeINS0_13TestCaseStatsENS3_11SectionNodeEEEEEE8allocateEmPKv
FNDA:0,_ZNSt15__new_allocatorIN5Catch6Detail10unique_ptrINS0_8TestSpec7PatternEEEE8allocateEmPKv
FNDA:0,_ZNSt15__new_allocatorIN5Catch6Detail10unique_ptrINS1_8EnumInfoEEEE8allocateEmPKv
FNDA:1,_ZNSt15__new_allocatorIN5Catch6Detail10unique_ptrINSt7__cxx1119basic_ostringstreamIcSt11char_traitsIcESaIcEEEEEE8allocateEmPKv
FNDA:0,_ZNSt15__new_allocatorIN5Catch6Detail26AssertionOrBenchmarkResultEE8allocateEmPKv
FNDA:0,_ZNSt15__new_allocatorIN5Catch7TagInfoEE8allocateEmPKv
FNDA:0,_ZNSt15__new_allocatorIN5Catch8TestSpec11FilterMatchEE8allocateEmPKv
FNDA:0,_ZNSt15__new_allocatorIN5Catch8TestSpec6FilterEE8allocateEmPKv
FNDA:0,_ZNSt15__new_allocatorIN5Catch8TextFlow6Column14const_iteratorEE8allocateEmPKv
FNDA:0,_ZNSt15__new_allocatorIN5Catch8TextFlow6ColumnEE8allocateEmPKv
FNDA:55,_ZNSt15__new_allocatorIN5Catch9StringRefEE8allocateEmPKv
FNDA:0,_ZNSt15__new_allocatorINSt15__exception_ptr13exception_ptrEE8allocateEmPKv
FNDA:0,_ZNSt15__new_allocatorINSt6chrono10time_pointINS0_3_V212steady_clockENS0_8durationIlSt5ratioILl1ELl1000000000EEEEEEE8allocateEmPKv
FNDA:0,_ZNSt15__new_allocatorINSt6chrono8durationIdSt5ratioILl1ELl1000000000EEEEE8allocateEmPKv
FNDA:5,_ZNSt15__new_allocatorINSt7__cxx1112basic_stringIcSt11char_traitsIcESaIcEEEE8allocateEmPKv
FNDA:0,_ZNSt15__new_allocatorINSt7__cxx1112regex_traitsIcE10_RegexMaskEE8allocateEmPKv
FNDA:0,_ZNSt15__new_allocatorINSt7__cxx119sub_matchIN9__gnu_cxx17__normal_iteratorIPKcNS0_12basic_stringIcSt11char_traitsIcESaIcEEEEEEEE8allocateEmPKv
FNDA:0,_ZNSt15__new_allocatorINSt8__detail6_StateIcEEE8allocateEmPKv
FNDA:0,_ZNSt15__new_allocatorINSt8__detail9_StateSeqINSt7__cxx1112regex_traitsIcEEEEE8allocateEmPKv
FNDA:0,_ZNSt15__new_allocatorIPKN5Catch14TestCaseHandleEE8allocateEmPKv
FNDA:0,_ZNSt15__new_allocatorIPKN5Catch22CumulativeReporterBase4NodeINS0_13TestCaseStatsENS1_11SectionNodeEEEE8allocateEmPKv
FNDA:2,_ZNSt15__new_allocatorIPN5Catch10ISingletonEE8allocateEmPKv
FNDA:0,_ZNSt15__new_allocatorIPN5Catch12JsonReporter6WriterEE8allocateEmPKv
FNDA:9,_ZNSt15__new_allocatorIPN5Catch12TestCaseInfoEE8allocateEmPKv
FNDA:0,_ZNSt15__new_allocatorIPN5Catch15JsonArrayWriterEE8allocateEmPKv
FNDA:0,_ZNSt15__new_allocatorIPN5Catch16JsonObjectWriterEE8allocateEmPKv
FNDA:1,_ZNSt15__new_allocatorIPN5Catch16TestCaseTracking8ITrackerEE8allocateEmPKv
FNDA:0,_ZNSt15__new_allocatorIPN5Catch22CumulativeReporterBase11SectionNodeEE8allocateEmPKv
FNDA:5,_ZNSt15__new_allocatorIPN7AvlTree4NodeEE8allocateEmPKv
FNDA:0,_ZNSt15__new_allocatorIPNSt8__detail9_StateSeqINSt7__cxx1112regex_traitsIcEEEEE8allocateEmPKv
FNDA:0,_ZNSt15__new_allocatorIPcE8allocateEmPKv
FNDA:0,_ZNSt15__new_allocatorIPlE8allocateEmPKv
FNDA:0,_ZNSt15__new_allocatorISt13_Rb_tree_nodeIN5Catch9StringRefEEE8allocateEmPKv
FNDA:132,_ZNSt15__new_allocatorISt13_Rb_tree_nodeIPKN5Catch12TestCaseInfoEEE8allocateEmPKv
FNDA:236,_ZNSt15__new_allocatorISt13_Rb_tree_nodeIPKN5Catch14TestCaseHandleEEE8allocateEmPKv
FNDA:0,_ZNSt15__new_allocatorISt13_Rb_tree_nodeISt4pairIKN5Catch9StringRefENS2_7TagInfoEEEE8allocateEmPKv
FNDA:0,_ZNSt15__new_allocatorISt13_Rb_tree_nodeISt4pairIKN5Catch9StringRefESt6vectorIPKNS2_22CumulativeReporterBase4NodeINS2_13TestCaseStatsENS6_11SectionNodeEEESaISC_EEEEE8allocateEmPKv
FNDA:9,_ZNSt15__new_allocatorISt13_Rb_tree_nodeISt4pairIKNSt7__cxx1112basic_stringIcSt11char_traitsIcESaIcEEEN5Catch6Detail10unique_ptrINS9_16IReporterFactoryEEEEEE8allocateEmPKv
FNDA:0,_ZNSt15__new_allocatorISt13_Rb_tree_nodeISt4pairIKNSt7__cxx1112basic_stringIcSt11char_traitsIcESaIcEEEN5Catch8TagAliasEEEE8allocateEmPKv
FNDA:0,_ZNSt15__new_allocatorISt13_Rb_tree_nodeISt4pairIKNSt7__cxx1112basic_stringIcSt11char_traitsIcESaIcEEES7_EEE8allocateEmPKv
FNDA:0,_ZNSt15__new_allocatorISt13_Rb_tree_nodeISt4pairIKllEEE8allocateEmPKv
FNDA:1,_ZNSt15__new_allocatorISt23_Sp_counted_ptr_inplaceIN5Catch5Clara6Detail11BoundLambdaIZNS1_21makeCommandLineParserERNS1_10ConfigDataEEUlRKNSt7__cxx1112basic_stringIcSt11char_traitsIcESaIcEEEE0_EESaIvELN9__gnu_cxx12_Lock_policyE2EEE8allocateEmPKv
FNDA:1,_ZNSt15__new_allocatorISt23_Sp_counted_ptr_inplaceIN5Catch5Clara6Detail11BoundLambdaIZNS1_21makeCommandLineParserERNS1_10ConfigDataEEUlRKNSt7__cxx1112basic_stringIcSt11char_traitsIcESaIcEEEE1_EESaIvELN9__gnu_cxx12_Lock_policyE2EEE8allocateEmPKv
FNDA:1,_ZNSt15__new_allocatorISt23_Sp_counted_ptr_inplaceIN5Catch5Clara6Detail11BoundLambdaIZNS1_21makeCommandLineParserERNS1_10ConfigDataEEUlRKNSt7__cxx1112basic_stringIcSt11char_traitsIcESaIcEEEE2_EESaIvELN9__gnu_cxx12_Lock_policyE2EEE8allocateEmPKv
FNDA:1,_ZNSt15__new_allocatorISt23_Sp_counted_ptr_inplaceIN5Catch5Clara6Detail11BoundLambdaIZNS1_21makeCommandLineParserERNS1_10ConfigDataEEUlRKNSt7__cxx1112basic_stringIcSt11char_traitsIcESaIcEEEE3_EESaIvELN9__gnu_cxx12_Lock_policyE2EEE8allocateEmPKv
FNDA:1,_ZNSt15__new_allocatorISt23_Sp_counted_ptr_inplaceIN5Catch5Clara6Detail11BoundLambdaIZNS1_21makeCommandLineParserERNS1_10ConfigDataEEUlRKNSt7__cxx1112basic_stringIcSt11char_traitsIcESaIcEEEE4_EESaIvELN9__gnu_cxx12_Lock_policyE2EEE8allocateEmPKv
FNDA:1,_ZNSt15__new_allocatorISt23_Sp_counted_ptr_inplaceIN5Catch5Clara6Detail11BoundLambdaIZNS1_21makeCommandLineParserERNS1_10ConfigDataEEUlRKNSt7__cxx1112basic_stringIcSt11char_traitsIcESaIcEEEE5_EESaIvELN9__gnu_cxx12_Lock_policyE2EEE8allocateEmPKv
FNDA:1,_ZNSt15__new_allocatorISt23_Sp_counted_ptr_inplaceIN5Catch5Clara6Detail11BoundLambdaIZNS1_21makeCommandLineParserERNS1_10ConfigDataEEUlRKNSt7__cxx1112basic_stringIcSt11char_traitsIcESaIcEEEE7_EESaIvELN9__gnu_cxx12_Lock_policyE2EEE8allocateEmPKv
FNDA:1,_ZNSt15__new_allocatorISt23_Sp_counted_ptr_inplaceIN5Catch5Clara6Detail11BoundLambdaIZNS1_21makeCommandLineParserERNS1_10ConfigDataEEUlRKNSt7__cxx1112basic_stringIcSt11char_traitsIcESaIcEEEE8_EESaIvELN9__gnu_cxx12_Lock_policyE2EEE8allocateEmPKv
FNDA:1,_ZNSt15__new_allocatorISt23_Sp_counted_ptr_inplaceIN5Catch5Clara6Detail11BoundLambdaIZNS1_21makeCommandLineParserERNS1_10ConfigDataEEUlbE0_EESaIvELN9__gnu_cxx12_Lock_policyE2EEE8allocateEmPKv
FNDA:1,_ZNSt15__new_allocatorISt23_Sp_counted_ptr_inplaceIN5Catch5Clara6Detail11BoundLambdaIZNS1_21makeCommandLineParserERNS1_10ConfigDataEEUliE_EESaIvELN9__gnu_cxx12_Lock_policyE2EEE8allocateEmPKv
FNDA:13,_ZNSt15__new_allocatorISt23_Sp_counted_ptr_inplaceIN5Catch5Clara6Detail12BoundFlagRefESaIvELN9__gnu_cxx12_Lock_policyE2EEE8allocateEmPKv
FNDA:4,_ZNSt15__new_allocatorISt23_Sp_counted_ptr_inplaceIN5Catch5Clara6Detail13BoundValueRefINSt7__cxx1112basic_stringIcSt11char_traitsIcESaIcEEEEESaIvELN9__gnu_cxx12_Lock_policyE2EEE8allocateEmPKv
FNDA:2,_ZNSt15__new_allocatorISt23_Sp_counted_ptr_inplaceIN5Catch5Clara6Detail13BoundValueRefISt6vectorINSt7__cxx1112basic_stringIcSt11char_traitsIcESaIcEEESaISB_EEEESaIvELN9__gnu_cxx12_Lock_policyE2EEE8allocateEmPKv
FNDA:2,_ZNSt15__new_allocatorISt23_Sp_counted_ptr_inplaceIN5Catch5Clara6Detail13BoundValueRefIdEESaIvELN9__gnu_cxx12_Lock_policyE2EEE8allocateEmPKv
FNDA:2,_ZNSt15__new_allocatorISt23_Sp_counted_ptr_inplaceIN5Catch5Clara6Detail13BoundValueRefIjEESaIvELN9__gnu_cxx12_Lock_policyE2EEE8allocateEmPKv
FNDA:1,_ZNSt15__new_allocatorISt23_Sp_counted_ptr_inplaceIN5Catch5Clara6Detail13BoundValueRefIlEESaIvELN9__gnu_cxx12_Lock_policyE2EEE8allocateEmPKv
FNDA:1,_ZNSt15__new_allocatorISt23_Sp_counted_ptr_inplaceIN5Catch5Clara6Detail15BoundFlagLambdaIZNS1_21makeCommandLineParserERNS1_10ConfigDataEEUlbE_EESaIvELN9__gnu_cxx12_Lock_policyE2EEE8allocateEmPKv
FNDA:1,_ZNSt15__new_allocatorISt23_Sp_counted_ptr_inplaceIN5Catch5Clara6Detail15BoundFlagLambdaIZNS2_4HelpC4ERbEUlbE_EESaIvELN9__gnu_cxx12_Lock_policyE2EEE8allocateEmPKv
FNDA:1,_ZNSt15__new_allocatorISt23_Sp_counted_ptr_inplaceIN5Catch5Clara6Detail15BoundManyLambdaIZNS1_21makeCommandLineParserERNS1_10ConfigDataEEUlRKNSt7__cxx1112basic_stringIcSt11char_traitsIcESaIcEEEE6_EESaIvELN9__gnu_cxx12_Lock_policyE2EEE8allocateEmPKv
FNDA:1,_ZNSt15__new_allocatorISt23_Sp_counted_ptr_inplaceIN5Catch5Clara6Detail15BoundManyLambdaIZNS1_21makeCommandLineParserERNS1_10ConfigDataEEUlRKNSt7__cxx1112basic_stringIcSt11char_traitsIcESaIcEEEE_EESaIvELN9__gnu_cxx12_Lock_policyE2EEE8allocateEmPKv
FNDA:3,_ZNSt15__new_allocatorISt23_Sp_counted_ptr_inplaceINSt7__cxx1112basic_stringIcSt11char_traitsIcESaIcEEESaIvELN9__gnu_cxx12_Lock_policyE2EEE8allocateEmPKv
FNDA:0,_ZNSt15__new_allocatorISt23_Sp_counted_ptr_inplaceINSt8__detail4_NFAINSt7__cxx1112regex_traitsIcEEEESaIvELN9__gnu_cxx12_Lock_policyE2EEE8allocateEmPKv
FNDA:0,_ZNSt15__new_allocatorISt4pairIN9__gnu_cxx17__normal_iteratorIPKcNSt7__cxx1112basic_stringIcSt11char_traitsIcESaIcEEEEEiEE8allocateEmPKv
FNDA:0,_ZNSt15__new_allocatorISt4pairINSt7__cxx1112basic_stringIcSt11char_traitsIcESaIcEEES6_EE8allocateEmPKv
FNDA:0,_ZNSt15__new_allocatorISt4pairIccEE8allocateEmPKv
FNDA:0,_ZNSt15__new_allocatorISt4pairIiN5Catch9StringRefEEE8allocateEmPKv
FNDA:0,_ZNSt15__new_allocatorISt4pairIlSt6vectorINSt7__cxx119sub_matchIN9__gnu_cxx17__normal_iteratorIPKcNS2_12basic_stringIcSt11char_traitsIcESaIcEEEEEEESaISE_EEEE8allocateEmPKv
FNDA:1,_ZNSt15__new_allocatorISt4pairImN5Catch14TestCaseHandleEEE8allocateEmPKv
FNDA:1,_ZNSt15__new_allocatorIZNK5Catch5Clara6Parser5parseERKNSt7__cxx1112basic_stringIcSt11char_traitsIcESaIcEEENS1_6Detail11TokenStreamEE10ParserInfoE8allocateEmPKv
FNDA:0,_ZNSt15__new_allocatorIcE8allocateEmPKv
FNDA:0,_ZNSt15__new_allocatorIdE8allocateEmPKv
FNDA:0,_ZNSt15__new_allocatorIlE8allocateEmPKv
FNDA:1,_ZNSt15__new_allocatorImE8allocateEmPKv
FNDA:1,_ZNSt15__new_allocatorIN5Catch10ColumnInfoEE10deallocateEPS1_m
FNDA:0,_ZNSt15__new_allocatorIN5Catch11MessageInfoEE10deallocateEPS1_m
FNDA:2,_ZNSt15__new_allocatorIN5Catch11SectionInfoEE10deallocateEPS1_m
FNDA:0,_ZNSt15__new_allocatorIN5Catch12JsonReporter6WriterEE10deallocateEPS2_m
FNDA:1,_ZNSt15__new_allocatorIN5Catch12ReporterSpecEE10deallocateEPS1_m
FNDA:0,_ZNSt15__new_allocatorIN5Catch12_GLOBAL__N_113SummaryColumnEE10deallocateEPS2_m
FNDA:0,_ZNSt15__new_allocatorIN5Catch13ScopedMessageEE10deallocateEPS1_m
FNDA:0,_ZNSt15__new_allocatorIN5Catch14SectionEndInfoEE10deallocateEPS1_m
FNDA:10,_ZNSt15__new_allocatorIN5Catch14TestCaseHandleEE10deallocateEPS1_m
FNDA:0,_ZNSt15__new_allocatorIN5Catch15JsonArrayWriterEE10deallocateEPS1_m
FNDA:0,_ZNSt15__new_allocatorIN5Catch16JsonObjectWriterEE10deallocateEPS1_m
FNDA:0,_ZNSt15__new_allocatorIN5Catch19ListenerDescriptionEE10deallocateEPS1_m
FNDA:0,_ZNSt15__new_allocatorIN5Catch19ReporterDescriptionEE10deallocateEPS1_m
FNDA:1,_ZNSt15__new_allocatorIN5Catch21ProcessedReporterSpecEE10deallocateEPS1_m
FNDA:148,_ZNSt15__new_allocatorIN5Catch3TagEE10deallocateEPS1_m
FNDA:1,_ZNSt15__new_allocatorIN5Catch5Clara3ArgEE10deallocateEPS2_m
FNDA:7,_ZNSt15__new_allocatorIN5Catch5Clara3OptEE10deallocateEPS2_m
FNDA:0,_ZNSt15__new_allocatorIN5Catch5Clara6Detail11HelpColumnsEE10deallocateEPS3_m
FNDA:0,_ZNSt15__new_allocatorIN5Catch5Clara6Detail5TokenEE10deallocateEPS3_m
FNDA:0,_ZNSt15__new_allocatorIN5Catch6Detail10unique_ptrIKNS0_20IExceptionTranslatorEEEE10deallocateEPS5_m
FNDA:9,_ZNSt15__new_allocatorIN5Catch6Detail10unique_ptrINS0_12ITestInvokerEEEE10deallocateEPS4_m
FNDA:9,_ZNSt15__new_allocatorIN5Catch6Detail10unique_ptrINS0_12TestCaseInfoEEEE10deallocateEPS4_m
FNDA:0,_ZNSt15__new_allocatorIN5Catch6Detail10unique_ptrINS0_14IEventListenerEEEE10deallocateEPS4_m
FNDA:179,_ZNSt15__new_allocatorIN5Catch6Detail10unique_ptrINS0_16TestCaseTracking8ITrackerEEEE10deallocateEPS5_m
FNDA:0,_ZNSt15__new_allocatorIN5Catch6Detail10unique_ptrINS0_20EventListenerFactoryEEEE10deallocateEPS4_m
FNDA:0,_ZNSt15__new_allocatorIN5Catch6Detail10unique_ptrINS0_22CumulativeReporterBase11SectionNodeEEEE10deallocateEPS5_m
FNDA:0,_ZNSt15__new_allocatorIN5Catch6Detail10unique_ptrINS0_22CumulativeReporterBase4NodeINS0_13TestCaseStatsENS3_11SectionNodeEEEEEE10deallocateEPS8_m
FNDA:0,_ZNSt15__new_allocatorIN5Catch6Detail10unique_ptrINS0_8TestSpec7PatternEEEE10deallocateEPS5_m
FNDA:0,_ZNSt15__new_allocatorIN5Catch6Detail10unique_ptrINS1_8EnumInfoEEEE10deallocateEPS4_m
FNDA:1,_ZNSt15__new_allocatorIN5Catch6Detail10unique_ptrINSt7__cxx1119basic_ostringstreamIcSt11char_traitsIcESaIcEEEEEE10deallocateEPS9_m
FNDA:0,_ZNSt15__new_allocatorIN5Catch6Detail26AssertionOrBenchmarkResultEE10deallocateEPS2_m
FNDA:0,_ZNSt15__new_allocatorIN5Catch7TagInfoEE10deallocateEPS1_m
FNDA:0,_ZNSt15__new_allocatorIN5Catch8TestSpec11FilterMatchEE10deallocateEPS2_m
FNDA:0,_ZNSt15__new_allocatorIN5Catch8TestSpec6FilterEE10deallocateEPS2_m
FNDA:0,_ZNSt15__new_allocatorIN5Catch8TextFlow6Column14const_iteratorEE10deallocateEPS3_m
FNDA:0,_ZNSt15__new_allocatorIN5Catch8TextFlow6ColumnEE10deallocateEPS2_m
FNDA:55,_ZNSt15__new_allocatorIN5Catch9StringRefEE10deallocateEPS1_m
FNDA:0,_ZNSt15__new_allocatorINSt15__exception_ptr13exception_ptrEE10deallocateEPS1_m
FNDA:0,_ZNSt15__new_allocatorINSt6chrono10time_pointINS0_3_V212steady_clockENS0_8durationIlSt5ratioILl1ELl1000000000EEEEEEE10deallocateEPS8_m
FNDA:0,_ZNSt15__new_allocatorINSt6chrono8durationIdSt5ratioILl1ELl1000000000EEEEE10deallocateEPS4_m
FNDA:5,_ZNSt15__new_allocatorINSt7__cxx1112basic_stringIcSt11char_traitsIcESaIcEEEE10deallocateEPS5_m
FNDA:0,_ZNSt15__new_allocatorINSt7__cxx1112regex_traitsIcE10_RegexMaskEE10deallocateEPS3_m
FNDA:0,_ZNSt15__new_allocatorINSt7__cxx119sub_matchIN9__gnu_cxx17__normal_iteratorIPKcNS0_12basic_stringIcSt11char_traitsIcESaIcEEEEEEEE10deallocateEPSC_m
FNDA:0,_ZNSt15__new_allocatorINSt8__detail6_StateIcEEE10deallocateEPS2_m
FNDA:0,_ZNSt15__new_allocatorINSt8__detail9_StateSeqINSt7__cxx1112regex_traitsIcEEEEE10deallocateEPS5_m
FNDA:0,_ZNSt15__new_allocatorIPKN5Catch14TestCaseHandleEE10deallocateEPS3_m
FNDA:0,_ZNSt15__new_allocatorIPKN5Catch22CumulativeReporterBase4NodeINS0_13TestCaseStatsENS1_11SectionNodeEEEE10deallocateEPS7_m
FNDA:2,_ZNSt15__new_allocatorIPN5Catch10ISingletonEE10deallocateEPS2_m
FNDA:0,_ZNSt15__new_allocatorIPN5Catch12JsonReporter6WriterEE10deallocateEPS3_m
FNDA:9,_ZNSt15__new_allocatorIPN5Catch12TestCaseInfoEE10deallocateEPS2_m
FNDA:0,_ZNSt15__new_allocatorIPN5Catch15JsonArrayWriterEE10deallocateEPS2_m
FNDA:0,_ZNSt15__new_allocatorIPN5Catch16JsonObjectWriterEE10deallocateEPS2_m
FNDA:1,_ZNSt15__new_allocatorIPN5Catch16TestCaseTracking8ITrackerEE10deallocateEPS3_m
FNDA:0,_ZNSt15__new_allocatorIPN5Catch22CumulativeReporterBase11SectionNodeEE10deallocateEPS3_m
FNDA:5,_ZNSt15__new_allocatorIPN7AvlTree4NodeEE10deallocateEPS2_m
FNDA:0,_ZNSt15__new_allocatorIPNSt8__detail9_StateSeqINSt7__cxx1112regex_traitsIcEEEEE10deallocateEPS6_m
FNDA:0,_ZNSt15__new_allocatorIPcE10deallocateEPS0_m
FNDA:0,_ZNSt15__new_allocatorIPlE10deallocateEPS0_m
FNDA:0,_ZNSt15__new_allocatorISt13_Rb_tree_nodeIN5Catch9StringRefEEE10deallocateEPS3_m
FNDA:132,_ZNSt15__new_allocatorISt13_Rb_tree_nodeIPKN5Catch12TestCaseInfoEEE10deallocateEPS5_m
FNDA:236,_ZNSt15__new_allocatorISt13_Rb_tree_nodeIPKN5Catch14TestCaseHandleEEE10deallocateEPS5_m
FNDA:0,_ZNSt15__new_allocatorISt13_Rb_tree_nodeISt4pairIKN5Catch9StringRefENS2_7TagInfoEEEE10deallocateEPS7_m
FNDA:0,_ZNSt15__new_allocatorISt13_Rb_tree_nodeISt4pairIKN5Catch9StringRefESt6vectorIPKNS2_22CumulativeReporterBase4NodeINS2_13TestCaseStatsENS6_11SectionNodeEEESaISC_EEEEE10deallocateEPSG_m
FNDA:9,_ZNSt15__new_allocatorISt13_Rb_tree_nodeISt4pairIKNSt7__cxx1112basic_stringIcSt11char_traitsIcESaIcEEEN5Catch6Detail10unique_ptrINS9_16IReporterFactoryEEEEEE10deallocateEPSF_m
FNDA:0,_ZNSt15__new_allocatorISt13_Rb_tree_nodeISt4pairIKNSt7__cxx1112basic_stringIcSt11char_traitsIcESaIcEEEN5Catch8TagAliasEEEE10deallocateEPSC_m
FNDA:0,_ZNSt15__new_allocatorISt13_Rb_tree_nodeISt4pairIKNSt7__cxx1112basic_stringIcSt11char_traitsIcESaIcEEES7_EEE10deallocateEPSA_m
FNDA:0,_ZNSt15__new_allocatorISt13_Rb_tree_nodeISt4pairIKllEEE10deallocateEPS4_m
FNDA:1,_ZNSt15__new_allocatorISt23_Sp_counted_ptr_inplaceIN5Catch5Clara6Detail11BoundLambdaIZNS1_21makeCommandLineParserERNS1_10ConfigDataEEUlRKNSt7__cxx1112basic_stringIcSt11char_traitsIcESaIcEEEE0_EESaIvELN9__gnu_cxx12_Lock_policyE2EEE10deallocateEPSK_m
FNDA:1,_ZNSt15__new_allocatorISt23_Sp_counted_ptr_inplaceIN5Catch5Clara6Detail11BoundLambdaIZNS1_21makeCommandLineParserERNS1_10ConfigDataEEUlRKNSt7__cxx1112basic_stringIcSt11char_traitsIcESaIcEEEE1_EESaIvELN9__gnu_cxx12_Lock_policyE2EEE10deallocateEPSK_m
FNDA:1,_ZNSt15__new_allocatorISt23_Sp_counted_ptr_inplaceIN5Catch5Clara6Detail11BoundLambdaIZNS1_21makeCommandLineParserERNS1_10ConfigDataEEUlRKNSt7__cxx1112basic_stringIcSt11char_traitsIcESaIcEEEE2_EESaIvELN9__gnu_cxx12_Lock_policyE2EEE10deallocateEPSK_m
FNDA:1,_ZNSt15__new_allocatorISt23_Sp_counted_ptr_inplaceIN5Catch5Clara6Detail11BoundLambdaIZNS1_21makeCommandLineParserERNS1_10ConfigDataEEUlRKNSt7__cxx1112basic_stringIcSt11char_traitsIcESaIcEEEE3_EESaIvELN9__gnu_cxx12_Lock_policyE2EEE10deallocateEPSK_m
FNDA:1,_ZNSt15__new_allocatorISt23_Sp_counted_ptr_inplaceIN5Catch5Clara6Detail11BoundLambdaIZNS1_21makeCommandLineParserERNS1_10ConfigDataEEUlRKNSt7__cxx1112basic_stringIcSt11char_traitsIcESaIcEEEE4_EESaIvELN9__gnu_cxx12_Lock_policyE2EEE10deallocateEPSK_m
FNDA:1,_ZNSt15__new_allocatorISt23_Sp_counted_ptr_inplaceIN5Catch5Clara6Detail11BoundLambdaIZNS1_21makeCommandLineParserERNS1_10ConfigDataEEUlRKNSt7__cxx1112basic_stringIcSt11char_traitsIcESaIcEEEE5_EESaIvELN9__gnu_cxx12_Lock_policyE2EEE10deallocateEPSK_m
FNDA:1,_ZNSt15__new_allocatorISt23_Sp_counted_ptr_inplaceIN5Catch5Clara6Detail11BoundLambdaIZNS1_21makeCommandLineParserERNS1_10ConfigDataEEUlRKNSt7__cxx1112basic_stringIcSt11char_traitsIcESaIcEEEE7_EESaIvELN9__gnu_cxx12_Lock_policyE2EEE10deallocateEPSK_m
FNDA:1,_ZNSt15__new_allocatorISt23_Sp_counted_ptr_inplaceIN5Catch5Clara6Detail11BoundLambdaIZNS1_21makeCommandLineParserERNS1_10ConfigDataEEUlRKNSt7__cxx1112basic_stringIcSt11char_traitsIcESaIcEEEE8_EESaIvELN9__gnu_cxx12_Lock_policyE2EEE10deallocateEPSK_m
FNDA:1,_ZNSt15__new_allocatorISt23_Sp_counted_ptr_inplaceIN5Catch5Clara6Detail11BoundLambdaIZNS1_21makeCommandLineParserERNS1_10ConfigDataEEUlbE0_EESaIvELN9__gnu_cxx12_Lock_policyE2EEE10deallocateEPSC_m
FNDA:1,_ZNSt15__new_allocatorISt23_Sp_counted_ptr_inplaceIN5Catch5Clara6Detail11BoundLambdaIZNS1_21makeCommandLineParserERNS1_10ConfigDataEEUliE_EESaIvELN9__gnu_cxx12_Lock_policyE2EEE10deallocateEPSC_m
FNDA:13,_ZNSt15__new_allocatorISt23_Sp_counted_ptr_inplaceIN5Catch5Clara6Detail12BoundFlagRefESaIvELN9__gnu_cxx12_Lock_policyE2EEE10deallocateEPS8_m
FNDA:4,_ZNSt15__new_allocatorISt23_Sp_counted_ptr_inplaceIN5Catch5Clara6Detail13BoundValueRefINSt7__cxx1112basic_stringIcSt11char_traitsIcESaIcEEEEESaIvELN9__gnu_cxx12_Lock_policyE2EEE10deallocateEPSF_m
FNDA:2,_ZNSt15__new_allocatorISt23_Sp_counted_ptr_inplaceIN5Catch5Clara6Detail13BoundValueRefISt6vectorINSt7__cxx1112basic_stringIcSt11char_traitsIcESaIcEEESaISB_EEEESaIvELN9__gnu_cxx12_Lock_policyE2EEE10deallocateEPSI_m
FNDA:2,_ZNSt15__new_allocatorISt23_Sp_counted_ptr_inplaceIN5Catch5Clara6Detail13BoundValueRefIdEESaIvELN9__gnu_cxx12_Lock_policyE2EEE10deallocateEPS9_m
FNDA:2,_ZNSt15__new_allocatorISt23_Sp_counted_ptr_inplaceIN5Catch5Clara6Detail13BoundValueRefIjEESaIvELN9__gnu_cxx12_Lock_policyE2EEE10deallocateEPS9_m
FNDA:1,_ZNSt15__new_allocatorISt23_Sp_counted_ptr_inplaceIN5Catch5Clara6Detail13BoundValueRefIlEESaIvELN9__gnu_cxx12_Lock_policyE2EEE10deallocateEPS9_m
FNDA:1,_ZNSt15__new_allocatorISt23_Sp_counted_ptr_inplaceIN5Catch5Clara6Detail15BoundFlagLambdaIZNS1_21makeCommandLineParserERNS1_10ConfigDataEEUlbE_EESaIvELN9__gnu_cxx12_Lock_policyE2EEE10deallocateEPSC_m
FNDA:1,_ZNSt15__new_allocatorISt23_Sp_counted_ptr_inplaceIN5Catch5Clara6Detail15BoundFlagLambdaIZNS2_4HelpC4ERbEUlbE_EESaIvELN9__gnu_cxx12_Lock_policyE2EEE10deallocateEPSC_m
FNDA:1,_ZNSt15__new_allocatorISt23_Sp_counted_ptr_inplaceIN5Catch5Clara6Detail15BoundManyLambdaIZNS1_21makeCommandLineParserERNS1_10ConfigDataEEUlRKNSt7__cxx1112basic_stringIcSt11char_traitsIcESaIcEEEE6_EESaIvELN9__gnu_cxx12_Lock_policyE2EEE10deallocateEPSK_m
FNDA:1,_ZNSt15__new_allocatorISt23_Sp_counted_ptr_inplaceIN5Catch5Clara6Detail15BoundManyLambdaIZNS1_21makeCommandLineParserERNS1_10ConfigDataEEUlRKNSt7__cxx1112basic_stringIcSt11char_traitsIcESaIcEEEE_EESaIvELN9__gnu_cxx12_Lock_policyE2EEE10deallocateEPSK_m
FNDA:3,_ZNSt15__new_allocatorISt23_Sp_counted_ptr_inplaceINSt7__cxx1112basic_stringIcSt11char_traitsIcESaIcEEESaIvELN9__gnu_cxx12_Lock_policyE2EEE10deallocateEPSA_m
FNDA:0,_ZNSt15__new_allocatorISt23_Sp_counted_ptr_inplaceINSt8__detail4_NFAINSt7__cxx1112regex_traitsIcEEEESaIvELN9__gnu_cxx12_Lock_policyE2EEE10deallocateEPSA_m
FNDA:0,_ZNSt15__new_allocatorISt4pairIN9__gnu_cxx17__normal_iteratorIPKcNSt7__cxx1112basic_stringIcSt11char_traitsIcESaIcEEEEEiEE10deallocateEPSC_m
FNDA:0,_ZNSt15__new_allocatorISt4pairINSt7__cxx1112basic_stringIcSt11char_traitsIcESaIcEEES6_EE10deallocateEPS7_m
FNDA:0,_ZNSt15__new_allocatorISt4pairIccEE10deallocateEPS1_m
FNDA:0,_ZNSt15__new_allocatorISt4pairIiN5Catch9StringRefEEE10deallocateEPS3_m
FNDA:0,_ZNSt15__new_allocatorISt4pairIlSt6vectorINSt7__cxx119sub_matchIN9__gnu_cxx17__normal_iteratorIPKcNS2_12basic_stringIcSt11char_traitsIcESaIcEEEEEEESaISE_EEEE10deallocateEPSH_m
FNDA:1,_ZNSt15__new_allocatorISt4pairImN5Catch14TestCaseHandleEEE10deallocateEPS3_m
FNDA:1,_ZNSt15__new_allocatorIZNK5Catch5Clara6Parser5parseERKNSt7__cxx1112basic_stringIcSt11char_traitsIcESaIcEEENS1_6Detail11TokenStreamEE10ParserInfoE10deallocateEPSD_m
FNDA:0,_ZNSt15__new_allocatorIcE10deallocateEPcm
FNDA:0,_ZNSt15__new_allocatorIdE10deallocateEPdm
FNDA:0,_ZNSt15__new_allocatorIlE10deallocateEPlm
FNDA:1,_ZNSt15__new_allocatorImE10deallocateEPmm
FNF:302
FNH:150
DA:88,2335
DA:92,221
DA:104,2557
DA:126,867
DA:134,867
DA:138,0
DA:139,0
DA:140,0
DA:151,867
DA:156,867
DA:172,867
DA:183,893
DA:191,2903
DA:198,1632
DA:233,1760
LF:15
LH:12
end_of_record
TN:
SF:/usr/include/c++/13/bits/predefined_ops.h
FN:108,109,_ZN9__gnu_cxx5__ops15__val_comp_iterENS0_15_Iter_less_iterE
FN:116,117,_ZNK9__gnu_cxx5__ops19_Iter_equal_to_iterclINS_17__normal_iteratorIPN5Catch3TagESt6vectorIS5_SaIS5_EEEESA_EEbT_T0_
FN:116,117,_ZNK9__gnu_cxx5__ops19_Iter_equal_to_iterclINS_17__normal_iteratorIPcSt6vectorIcSaIcEEEES8_EEbT_T0_
FN:122,123,_ZN9__gnu_cxx5__ops20__iter_equal_to_iterEv
FN:150,152,_ZN9__gnu_cxx5__ops15_Iter_comp_iterIZN5Catch15defaultListTagsERSoRKSt6vectorINS2_7TagInfoESaIS5_EEbEUlRKT_RKT0_E_EC2ESG_
FN:150,152,_ZN9__gnu_cxx5__ops15_Iter_comp_iterIZN5Catch20defaultListListenersERSoRKSt6vectorINS2_19ListenerDescriptionESaIS5_EEEUlRKS5_SB_E_EC2ESC_
FN:150,152,_ZN9__gnu_cxx5__ops15_Iter_comp_iterIZN5Catch20defaultListReportersERSoRKSt6vectorINS2_19ReporterDescriptionESaIS5_EENS2_9VerbosityEEUlRKS5_SC_E_EC2ESD_
FN:150,152,_ZN9__gnu_cxx5__ops15_Iter_comp_iterIZN5Catch9sortTestsERKNS2_7IConfigERKSt6vectorINS2_14TestCaseHandleESaIS7_EEEUlRKS7_SD_E_EC2ESE_
FN:150,152,_ZN9__gnu_cxx5__ops15_Iter_comp_iterIZN5Catch9sortTestsERKNS2_7IConfigERKSt6vectorINS2_14TestCaseHandleESaIS7_EEEUlRKSt4pairImS7_ESF_E_EC2ESG_
FN:150,152,_ZN9__gnu_cxx5__ops15_Iter_comp_iterIZNK5Catch6Detail19CaseInsensitiveLessclENS2_9StringRefES5_EUlccE_EC2ES6_
FN:157,158,_ZN9__gnu_cxx5__ops15_Iter_comp_iterIZN5Catch15defaultListTagsERSoRKSt6vectorINS2_7TagInfoESaIS5_EEbEUlRKT_RKT0_E_EclINS_17__normal_iteratorIPKS5_S7_EESM_EEbSA_SD_
FN:157,158,_ZN9__gnu_cxx5__ops15_Iter_comp_iterIZN5Catch20defaultListListenersERSoRKSt6vectorINS2_19ListenerDescriptionESaIS5_EEEUlRKS5_SB_E_EclINS_17__normal_iteratorIPSA_S7_EESH_EEbT_T0_
FN:157,158,_ZN9__gnu_cxx5__ops15_Iter_comp_iterIZN5Catch20defaultListReportersERSoRKSt6vectorINS2_19ReporterDescriptionESaIS5_EENS2_9VerbosityEEUlRKS5_SC_E_EclINS_17__normal_iteratorIPSB_S7_EESI_EEbT_T0_
FN:157,158,_ZN9__gnu_cxx5__ops15_Iter_comp_iterIZN5Catch9sortTestsERKNS2_7IConfigERKSt6vectorINS2_14TestCaseHandleESaIS7_EEEUlRKS7_SD_E_EclINS_17__normal_iteratorIPS7_S9_EESJ_EEbT_T0_
FN:157,158,_ZN9__gnu_cxx5__ops15_Iter_comp_iterIZN5Catch9sortTestsERKNS2_7IConfigERKSt6vectorINS2_14TestCaseHandleESaIS7_EEEUlRKSt4pairImS7_ESF_E_EclINS_17__normal_iteratorIPSD_S6_ISD_SaISD_EEEESN_EEbT_T0_
FN:157,158,_ZN9__gnu_cxx5__ops15_Iter_comp_iterIZNK5Catch6Detail19CaseInsensitiveLessclENS2_9StringRefES5_EUlccE_EclIPKcSA_EEbT_T0_
FN:164,165,_ZN9__gnu_cxx5__ops16__iter_comp_iterIZN5Catch15defaultListTagsERSoRKSt6vectorINS2_7TagInfoESaIS5_EEbEUlRKT_RKT0_E_EENS0_15_Iter_comp_iterISA_EESA_
FN:164,165,_ZN9__gnu_cxx5__ops16__iter_comp_iterIZN5Catch20defaultListListenersERSoRKSt6vectorINS2_19ListenerDescriptionESaIS5_EEEUlRKS5_SB_E_EENS0_15_Iter_comp_iterIT_EESE_
FN:164,165,_ZN9__gnu_cxx5__ops16__iter_comp_iterIZN5Catch20defaultListReportersERSoRKSt6vectorINS2_19ReporterDescriptionESaIS5_EENS2_9VerbosityEEUlRKS5_SC_E_EENS0_15_Iter_comp_iterIT_EESF_
FN:164,165,_ZN9__gnu_cxx5__ops16__iter_comp_iterIZN5Catch9sortTestsERKNS2_7IConfigERKSt6vectorINS2_14TestCaseHandleESaIS7_EEEUlRKS7_SD_E_EENS0_15_Iter_comp_iterIT_EESG_
FN:164,165,_ZN9__gnu_cxx5__ops16__iter_comp_iterIZN5Catch9sortTestsERKNS2_7IConfigERKSt6vectorINS2_14TestCaseHandleESaIS7_EEEUlRKSt4pairImS7_ESF_E_EENS0_15_Iter_comp_iterIT_EESI_
FN:164,165,_ZN9__gnu_cxx5__ops16__iter_comp_iterIZNK5Catch6Detail19CaseInsensitiveLessclENS2_9StringRefES5_EUlccE_EENS0_15_Iter_comp_iterIT_EES8_
FN:187,189,_ZN9__gnu_cxx5__ops14_Iter_comp_valIZN5Catch9sortTestsERKNS2_7IConfigERKSt6vectorINS2_14TestCaseHandleESaIS7_EEEUlRKS7_SD_E_EC2EONS0_15_Iter_comp_iterISE_EE
FN:187,189,_ZN9__gnu_cxx5__ops14_Iter_comp_valIZN5Catch9sortTestsERKNS2_7IConfigERKSt6vectorINS2_14TestCaseHandleESaIS7_EEEUlRKSt4pairImS7_ESF_E_EC2EONS0_15_Iter_comp_iterISG_EE
FN:195,196,_ZN9__gnu_cxx5__ops14_Iter_comp_valIZN5Catch9sortTestsERKNS2_7IConfigERKSt6vectorINS2_14TestCaseHandleESaIS7_EEEUlRKS7_SD_E_EclINS_17__normal_iteratorIPS7_S9_EES7_EEbT_RT0_
FN:195,196,_ZN9__gnu_cxx5__ops14_Iter_comp_valIZN5Catch9sortTestsERKNS2_7IConfigERKSt6vectorINS2_14TestCaseHandleESaIS7_EEEUlRKSt4pairImS7_ESF_E_EclINS_17__normal_iteratorIPSD_S6_ISD_SaISD_EEEESD_EEbT_RT0_
FN:231,233,_ZN9__gnu_cxx5__ops14_Val_comp_iterIZN5Catch9sortTestsERKNS2_7IConfigERKSt6vectorINS2_14TestCaseHandleESaIS7_EEEUlRKS7_SD_E_EC2EONS0_15_Iter_comp_iterISE_EE
FN:231,233,_ZN9__gnu_cxx5__ops14_Val_comp_iterIZN5Catch9sortTestsERKNS2_7IConfigERKSt6vectorINS2_14TestCaseHandleESaIS7_EEEUlRKSt4pairImS7_ESF_E_EC2EONS0_15_Iter_comp_iterISG_EE
FN:239,240,_ZN9__gnu_cxx5__ops14_Val_comp_iterIZN5Catch9sortTestsERKNS2_7IConfigERKSt6vectorINS2_14TestCaseHandleESaIS7_EEEUlRKS7_SD_E_EclIS7_NS_17__normal_iteratorIPS7_S9_EEEEbRT_T0_
FN:239,240,_ZN9__gnu_cxx5__ops14_Val_comp_iterIZN5Catch9sortTestsERKNS2_7IConfigERKSt6vectorINS2_14TestCaseHandleESaIS7_EEEUlRKSt4pairImS7_ESF_E_EclISD_NS_17__normal_iteratorIPSD_S6_ISD_SaISD_EEEEEEbRT_T0_
FN:252,253,_ZN9__gnu_cxx5__ops15__val_comp_iterIZN5Catch9sortTestsERKNS2_7IConfigERKSt6vectorINS2_14TestCaseHandleESaIS7_EEEUlRKS7_SD_E_EENS0_14_Val_comp_iterIT_EENS0_15_Iter_comp_iterISG_EE
FN:252,253,_ZN9__gnu_cxx5__ops15__val_comp_iterIZN5Catch9sortTestsERKNS2_7IConfigERKSt6vectorINS2_14TestCaseHandleESaIS7_EEEUlRKSt4pairImS7_ESF_E_EENS0_14_Val_comp_iterIT_EENS0_15_Iter_comp_iterISI_EE
FN:262,264,_ZN9__gnu_cxx5__ops16_Iter_equals_valIKN5Catch3TagEEC2ERS4_
FN:262,264,_ZN9__gnu_cxx5__ops16_Iter_equals_valIKN5Catch9StringRefEEC2ERS4_
FN:262,264,_ZN9__gnu_cxx5__ops16_Iter_equals_valIKNSt7__cxx1112basic_stringIcSt11char_traitsIcESaIcEEEEC2ERS8_
FN:262,264,_ZN9__gnu_cxx5__ops16_Iter_equals_valIKcEC2ERS2_
FN:269,270,_ZN9__gnu_cxx5__ops16_Iter_equals_valIKN5Catch3TagEEclINS_17__normal_iteratorIPS4_St6vectorIS3_SaIS3_EEEEEEbT_
FN:269,270,_ZN9__gnu_cxx5__ops16_Iter_equals_valIKN5Catch9StringRefEEclINS_17__normal_iteratorIPS4_St6vectorIS3_SaIS3_EEEEEEbT_
FN:269,270,_ZN9__gnu_cxx5__ops16_Iter_equals_valIKNSt7__cxx1112basic_stringIcSt11char_traitsIcESaIcEEEEclINS_17__normal_iteratorIPS8_St6vectorIS7_SaIS7_EEEEEEbT_
FN:269,270,_ZN9__gnu_cxx5__ops16_Iter_equals_valIKcEclIPS2_EEbT_
FN:269,270,_ZN9__gnu_cxx5__ops16_Iter_equals_valIKcEclISt16reverse_iteratorIPS2_EEEbT_
FN:276,277,_ZN9__gnu_cxx5__ops17__iter_equals_valIKN5Catch3TagEEENS0_16_Iter_equals_valIT_EERS6_
FN:276,277,_ZN9__gnu_cxx5__ops17__iter_equals_valIKN5Catch9StringRefEEENS0_16_Iter_equals_valIT_EERS6_
FN:276,277,_ZN9__gnu_cxx5__ops17__iter_equals_valIKNSt7__cxx1112basic_stringIcSt11char_traitsIcESaIcEEEEENS0_16_Iter_equals_valIT_EERSA_
FN:276,277,_ZN9__gnu_cxx5__ops17__iter_equals_valIKcEENS0_16_Iter_equals_valIT_EERS4_
FN:310,312,_ZN9__gnu_cxx5__ops10_Iter_predIN5Catch12_GLOBAL__N_113BySectionInfoEEC2ES4_
FN:310,312,_ZN9__gnu_cxx5__ops10_Iter_predIZN5Catch12_GLOBAL__N_111fileNameTagERKSt6vectorINS2_3TagESaIS5_EEEUlRKS5_E_EC2ESC_
FN:310,312,_ZN9__gnu_cxx5__ops10_Iter_predIZN5Catch14IResultCapture16popScopedMessageEjEUlRKNS2_11MessageInfoEE_EC2ES7_
FN:310,312,_ZN9__gnu_cxx5__ops10_Iter_predIZN5Catch16TestCaseTracking11TrackerBase5closeEvEUlRKNS2_6Detail10unique_ptrINS3_8ITrackerEEEE_EC2ESB_
FN:310,312,_ZN9__gnu_cxx5__ops10_Iter_predIZN5Catch16TestCaseTracking8ITracker9findChildERKNS3_18NameAndLocationRefEEUlRKNS2_6Detail10unique_ptrIS4_EEE_EC2ESD_
FN:310,312,_ZN9__gnu_cxx5__ops10_Iter_predIZN5Catch9Benchmark6Detail9bootstrapEdPdS5_RKSt6vectorIdSaIdEEPFdPKdSC_EEUldE_EC2ESF_
FN:310,312,_ZN9__gnu_cxx5__ops10_Iter_predIZNK5Catch22CumulativeReporterBase11SectionNode16hasAnyAssertionsEvEUlRKNS2_6Detail26AssertionOrBenchmarkResultEE_EC2ES9_
FN:310,312,_ZN9__gnu_cxx5__ops10_Iter_predIZNK5Catch8TestSpec7matchesERKNS2_12TestCaseInfoEEUlRKNS3_6FilterEE_EC2ESA_
FN:310,312,_ZN9__gnu_cxx5__ops10_Iter_predIZZN5Catch10Generators12_GLOBAL__N_116GeneratorTracker5closeEvENKUlvE_clEvEUlRKNS2_6Detail10unique_ptrINS2_16TestCaseTracking8ITrackerEEEE_EC2ESE_
FN:317,318,_ZN9__gnu_cxx5__ops10_Iter_predIN5Catch12_GLOBAL__N_113BySectionInfoEEclINS_17__normal_iteratorIPNS2_6Detail10unique_ptrINS2_22CumulativeReporterBase11SectionNodeEEESt6vectorISC_SaISC_EEEEEEbT_
FN:317,318,_ZN9__gnu_cxx5__ops10_Iter_predIZN5Catch12_GLOBAL__N_111fileNameTagERKSt6vectorINS2_3TagESaIS5_EEEUlRKS5_E_EclINS_17__normal_iteratorIPSA_S7_EEEEbT_
FN:317,318,_ZN9__gnu_cxx5__ops10_Iter_predIZN5Catch14IResultCapture16popScopedMessageEjEUlRKNS2_11MessageInfoEE_EclINS_17__normal_iteratorIPS4_St6vectorIS4_SaIS4_EEEEEEbT_
FN:317,318,_ZN9__gnu_cxx5__ops10_Iter_predIZN5Catch16TestCaseTracking8ITracker9findChildERKNS3_18NameAndLocationRefEEUlRKNS2_6Detail10unique_ptrIS4_EEE_EclINS_17__normal_iteratorIPSA_St6vectorISA_SaISA_EEEEEEbT_
FN:317,318,_ZN9__gnu_cxx5__ops10_Iter_predIZN5Catch9Benchmark6Detail9bootstrapEdPdS5_RKSt6vectorIdSaIdEEPFdPKdSC_EEUldE_EclINS_17__normal_iteratorISC_S8_EEEEbT_
FN:317,318,_ZN9__gnu_cxx5__ops10_Iter_predIZNK5Catch22CumulativeReporterBase11SectionNode16hasAnyAssertionsEvEUlRKNS2_6Detail26AssertionOrBenchmarkResultEE_EclINS_17__normal_iteratorIPS7_St6vectorIS6_SaIS6_EEEEEEbT_
FN:317,318,_ZN9__gnu_cxx5__ops10_Iter_predIZNK5Catch8TestSpec7matchesERKNS2_12TestCaseInfoEEUlRKNS3_6FilterEE_EclINS_17__normal_iteratorIPS8_St6vectorIS7_SaIS7_EEEEEEbT_
FN:317,318,_ZN9__gnu_cxx5__ops10_Iter_predIZZN5Catch10Generators12_GLOBAL__N_116GeneratorTracker5closeEvENKUlvE_clEvEUlRKNS2_6Detail10unique_ptrINS2_16TestCaseTracking8ITrackerEEEE_EclINS_17__normal_iteratorIPSB_St6vectorISB_SaISB_EEEEEEbT_
FN:324,325,_ZN9__gnu_cxx5__ops11__pred_iterIN5Catch12_GLOBAL__N_113BySectionInfoEEENS0_10_Iter_predIT_EES6_
FN:324,325,_ZN9__gnu_cxx5__ops11__pred_iterIZN5Catch12_GLOBAL__N_111fileNameTagERKSt6vectorINS2_3TagESaIS5_EEEUlRKS5_E_EENS0_10_Iter_predIT_EESE_
FN:324,325,_ZN9__gnu_cxx5__ops11__pred_iterIZN5Catch14IResultCapture16popScopedMessageEjEUlRKNS2_11MessageInfoEE_EENS0_10_Iter_predIT_EES9_
FN:324,325,_ZN9__gnu_cxx5__ops11__pred_iterIZN5Catch16TestCaseTracking11TrackerBase5closeEvEUlRKNS2_6Detail10unique_ptrINS3_8ITrackerEEEE_EENS0_10_Iter_predIT_EESD_
FN:324,325,_ZN9__gnu_cxx5__ops11__pred_iterIZN5Catch16TestCaseTracking8ITracker9findChildERKNS3_18NameAndLocationRefEEUlRKNS2_6Detail10unique_ptrIS4_EEE_EENS0_10_Iter_predIT_EESF_
FN:324,325,_ZN9__gnu_cxx5__ops11__pred_iterIZN5Catch9Benchmark6Detail9bootstrapEdPdS5_RKSt6vectorIdSaIdEEPFdPKdSC_EEUldE_EENS0_10_Iter_predIT_EESH_
FN:324,325,_ZN9__gnu_cxx5__ops11__pred_iterIZNK5Catch22CumulativeReporterBase11SectionNode16hasAnyAssertionsEvEUlRKNS2_6Detail26AssertionOrBenchmarkResultEE_EENS0_10_Iter_predIT_EESB_
FN:324,325,_ZN9__gnu_cxx5__ops11__pred_iterIZNK5Catch8TestSpec7matchesERKNS2_12TestCaseInfoEEUlRKNS3_6FilterEE_EENS0_10_Iter_predIT_EESC_
FN:324,325,_ZN9__gnu_cxx5__ops11__pred_iterIZZN5Catch10Generators12_GLOBAL__N_116GeneratorTracker5closeEvENKUlvE_clEvEUlRKNS2_6Detail10unique_ptrINS2_16TestCaseTracking8ITrackerEEEE_EENS0_10_Iter_predIT_EESG_
FN:387,389,_ZN9__gnu_cxx5__ops12_Iter_negateIZN5Catch16TestCaseTracking11TrackerBase5closeEvEUlRKNS2_6Detail10unique_ptrINS3_8ITrackerEEEE_EC2ESB_
FN:394,395,_ZN9__gnu_cxx5__ops12_Iter_negateIZN5Catch16TestCaseTracking11TrackerBase5closeEvEUlRKNS2_6Detail10unique_ptrINS3_8ITrackerEEEE_EclINS_17__normal_iteratorIPS8_St6vectorIS8_SaIS8_EEEEEEbT_
FN:401,402,_ZN9__gnu_cxx5__ops8__negateIZN5Catch16TestCaseTracking11TrackerBase5closeEvEUlRKNS2_6Detail10unique_ptrINS3_8ITrackerEEEE_EENS0_12_Iter_negateIT_EENS0_10_Iter_predISD_EE
FN:44,45,_ZNK9__gnu_cxx5__ops15_Iter_less_iterclINS_17__normal_iteratorIPN5Catch3TagESt6vectorIS5_SaIS5_EEEESA_EEbT_T0_
FN:44,45,_ZNK9__gnu_cxx5__ops15_Iter_less_iterclINS_17__normal_iteratorIPcSt6vectorIcSaIcEEEES8_EEbT_T0_
FN:44,45,_ZNK9__gnu_cxx5__ops15_Iter_less_iterclINS_17__normal_iteratorIPdSt6vectorIdSaIdEEEES8_EEbT_T0_
FN:44,45,_ZNK9__gnu_cxx5__ops15_Iter_less_iterclIPKN5Catch3TagES6_EEbT_T0_
FN:44,45,_ZNK9__gnu_cxx5__ops15_Iter_less_iterclIPdS3_EEbT_T0_
FN:50,51,_ZN9__gnu_cxx5__ops16__iter_less_iterEv
FN:63,63,_ZN9__gnu_cxx5__ops14_Iter_less_valC2ENS0_15_Iter_less_iterE
FN:68,69,_ZNK9__gnu_cxx5__ops14_Iter_less_valclINS_17__normal_iteratorIPKcSt6vectorIcSaIcEEEES4_EEbT_RT0_
FN:68,69,_ZNK9__gnu_cxx5__ops14_Iter_less_valclINS_17__normal_iteratorIPN5Catch3TagESt6vectorIS5_SaIS5_EEEES5_EEbT_RT0_
FN:68,69,_ZNK9__gnu_cxx5__ops14_Iter_less_valclINS_17__normal_iteratorIPcSt6vectorIcSaIcEEEEcEEbT_RT0_
FN:68,69,_ZNK9__gnu_cxx5__ops14_Iter_less_valclINS_17__normal_iteratorIPdSt6vectorIdSaIdEEEEdEEbT_RT0_
FN:68,69,_ZNK9__gnu_cxx5__ops14_Iter_less_valclIPddEEbT_RT0_
FN:74,75,_ZN9__gnu_cxx5__ops15__iter_less_valEv
FN:97,98,_ZNK9__gnu_cxx5__ops14_Val_less_iterclIN5Catch3TagENS_17__normal_iteratorIPS4_St6vectorIS4_SaIS4_EEEEEEbRT_T0_
FN:97,98,_ZNK9__gnu_cxx5__ops14_Val_less_iterclIcNS_17__normal_iteratorIPcSt6vectorIcSaIcEEEEEEbRT_T0_
FN:97,98,_ZNK9__gnu_cxx5__ops14_Val_less_iterclIdNS_17__normal_iteratorIPdSt6vectorIdSaIdEEEEEEbRT_T0_
FN:97,98,_ZNK9__gnu_cxx5__ops14_Val_less_iterclIdPdEEbRT_T0_
FNDA:16,_ZN9__gnu_cxx5__ops15__val_comp_iterENS0_15_Iter_less_iterE
FNDA:16,_ZNK9__gnu_cxx5__ops19_Iter_equal_to_iterclINS_17__normal_iteratorIPN5Catch3TagESt6vectorIS5_SaIS5_EEEESA_EEbT_T0_
FNDA:0,_ZNK9__gnu_cxx5__ops19_Iter_equal_to_iterclINS_17__normal_iteratorIPcSt6vectorIcSaIcEEEES8_EEbT_T0_
FNDA:132,_ZN9__gnu_cxx5__ops20__iter_equal_to_iterEv
FNDA:0,_ZN9__gnu_cxx5__ops15_Iter_comp_iterIZN5Catch15defaultListTagsERSoRKSt6vectorINS2_7TagInfoESaIS5_EEbEUlRKT_RKT0_E_EC2ESG_
FNDA:0,_ZN9__gnu_cxx5__ops15_Iter_comp_iterIZN5Catch20defaultListListenersERSoRKSt6vectorINS2_19ListenerDescriptionESaIS5_EEEUlRKS5_SB_E_EC2ESC_
FNDA:0,_ZN9__gnu_cxx5__ops15_Iter_comp_iterIZN5Catch20defaultListReportersERSoRKSt6vectorINS2_19ReporterDescriptionESaIS5_EENS2_9VerbosityEEUlRKS5_SC_E_EC2ESD_
FNDA:0,_ZN9__gnu_cxx5__ops15_Iter_comp_iterIZN5Catch9sortTestsERKNS2_7IConfigERKSt6vectorINS2_14TestCaseHandleESaIS7_EEEUlRKS7_SD_E_EC2ESE_
FNDA:1,_ZN9__gnu_cxx5__ops15_Iter_comp_iterIZN5Catch9sortTestsERKNS2_7IConfigERKSt6vectorINS2_14TestCaseHandleESaIS7_EEEUlRKSt4pairImS7_ESF_E_EC2ESG_
FNDA:78,_ZN9__gnu_cxx5__ops15_Iter_comp_iterIZNK5Catch6Detail19CaseInsensitiveLessclENS2_9StringRefES5_EUlccE_EC2ES6_
FNDA:0,_ZN9__gnu_cxx5__ops15_Iter_comp_iterIZN5Catch15defaultListTagsERSoRKSt6vectorINS2_7TagInfoESaIS5_EEbEUlRKT_RKT0_E_EclINS_17__normal_iteratorIPKS5_S7_EESM_EEbSA_SD_
FNDA:0,_ZN9__gnu_cxx5__ops15_Iter_comp_iterIZN5Catch20defaultListListenersERSoRKSt6vectorINS2_19ListenerDescriptionESaIS5_EEEUlRKS5_SB_E_EclINS_17__normal_iteratorIPSA_S7_EESH_EEbT_T0_
FNDA:0,_ZN9__gnu_cxx5__ops15_Iter_comp_iterIZN5Catch20defaultListReportersERSoRKSt6vectorINS2_19ReporterDescriptionESaIS5_EENS2_9VerbosityEEUlRKS5_SC_E_EclINS_17__normal_iteratorIPSB_S7_EESI_EEbT_T0_
FNDA:0,_ZN9__gnu_cxx5__ops15_Iter_comp_iterIZN5Catch9sortTestsERKNS2_7IConfigERKSt6vectorINS2_14TestCaseHandleESaIS7_EEEUlRKS7_SD_E_EclINS_17__normal_iteratorIPS7_S9_EESJ_EEbT_T0_
FNDA:650,_ZN9__gnu_cxx5__ops15_Iter_comp_iterIZN5Catch9sortTestsERKNS2_7IConfigERKSt6vectorINS2_14TestCaseHandleESaIS7_EEEUlRKSt4pairImS7_ESF_E_EclINS_17__normal_iteratorIPSD_S6_ISD_SaISD_EEEESN_EEbT_T0_
FNDA:174,_ZN9__gnu_cxx5__ops15_Iter_comp_iterIZNK5Catch6Detail19CaseInsensitiveLessclENS2_9StringRefES5_EUlccE_EclIPKcSA_EEbT_T0_
FNDA:0,_ZN9__gnu_cxx5__ops16__iter_comp_iterIZN5Catch15defaultListTagsERSoRKSt6vectorINS2_7TagInfoESaIS5_EEbEUlRKT_RKT0_E_EENS0_15_Iter_comp_iterISA_EESA_
FNDA:0,_ZN9__gnu_cxx5__ops16__iter_comp_iterIZN5Catch20defaultListListenersERSoRKSt6vectorINS2_19ListenerDescriptionESaIS5_EEEUlRKS5_SB_E_EENS0_15_Iter_comp_iterIT_EESE_
FNDA:0,_ZN9__gnu_cxx5__ops16__iter_comp_iterIZN5Catch20defaultListReportersERSoRKSt6vectorINS2_19ReporterDescriptionESaIS5_EENS2_9VerbosityEEUlRKS5_SC_E_EENS0_15_Iter_comp_iterIT_EESF_
FNDA:0,_ZN9__gnu_cxx5__ops16__iter_comp_iterIZN5Catch9sortTestsERKNS2_7IConfigERKSt6vectorINS2_14TestCaseHandleESaIS7_EEEUlRKS7_SD_E_EENS0_15_Iter_comp_iterIT_EESG_
FNDA:1,_ZN9__gnu_cxx5__ops16__iter_comp_iterIZN5Catch9sortTestsERKNS2_7IConfigERKSt6vectorINS2_14TestCaseHandleESaIS7_EEEUlRKSt4pairImS7_ESF_E_EENS0_15_Iter_comp_iterIT_EESI_
FNDA:78,_ZN9__gnu_cxx5__ops16__iter_comp_iterIZNK5Catch6Detail19CaseInsensitiveLessclENS2_9StringRefES5_EUlccE_EENS0_15_Iter_comp_iterIT_EES8_
FNDA:0,_ZN9__gnu_cxx5__ops14_Iter_comp_valIZN5Catch9sortTestsERKNS2_7IConfigERKSt6vectorINS2_14TestCaseHandleESaIS7_EEEUlRKS7_SD_E_EC2EONS0_15_Iter_comp_iterISE_EE
FNDA:0,_ZN9__gnu_cxx5__ops14_Iter_comp_valIZN5Catch9sortTestsERKNS2_7IConfigERKSt6vectorINS2_14TestCaseHandleESaIS7_EEEUlRKSt4pairImS7_ESF_E_EC2EONS0_15_Iter_comp_iterISG_EE
FNDA:0,_ZN9__gnu_cxx5__ops14_Iter_comp_valIZN5Catch9sortTestsERKNS2_7IConfigERKSt6vectorINS2_14TestCaseHandleESaIS7_EEEUlRKS7_SD_E_EclINS_17__normal_iteratorIPS7_S9_EES7_EEbT_RT0_
FNDA:0,_ZN9__gnu_cxx5__ops14_Iter_comp_valIZN5Catch9sortTestsERKNS2_7IConfigERKSt6vectorINS2_14TestCaseHandleESaIS7_EEEUlRKSt4pairImS7_ESF_E_EclINS_17__normal_iteratorIPSD_S6_ISD_SaISD_EEEESD_EEbT_RT0_
FNDA:0,_ZN9__gnu_cxx5__ops14_Val_comp_iterIZN5Catch9sortTestsERKNS2_7IConfigERKSt6vectorINS2_14TestCaseHandleESaIS7_EEEUlRKS7_SD_E_EC2EONS0_15_Iter_comp_iterISE_EE
FNDA:127,_ZN9__gnu_cxx5__ops14_Val_comp_iterIZN5Catch9sortTestsERKNS2_7IConfigERKSt6vectorINS2_14TestCaseHandleESaIS7_EEEUlRKSt4pairImS7_ESF_E_EC2EONS0_15_Iter_comp_iterISG_EE
FNDA:0,_ZN9__gnu_cxx5__ops14_Val_comp_iterIZN5Catch9sortTestsERKNS2_7IConfigERKSt6vectorINS2_14TestCaseHandleESaIS7_EEEUlRKS7_SD_E_EclIS7_NS_17__normal_iteratorIPS7_S9_EEEEbRT_T0_
FNDA:482,_ZN9__gnu_cxx5__ops14_Val_comp_iterIZN5Catch9sortTestsERKNS2_7IConfigERKSt6vectorINS2_14TestCaseHandleESaIS7_EEEUlRKSt4pairImS7_ESF_E_EclISD_NS_17__normal_iteratorIPSD_S6_ISD_SaISD_EEEEEEbRT_T0_
FNDA:0,_ZN9__gnu_cxx5__ops15__val_comp_iterIZN5Catch9sortTestsERKNS2_7IConfigERKSt6vectorINS2_14TestCaseHandleESaIS7_EEEUlRKS7_SD_E_EENS0_14_Val_comp_iterIT_EENS0_15_Iter_comp_iterISG_EE
FNDA:127,_ZN9__gnu_cxx5__ops15__val_comp_iterIZN5Catch9sortTestsERKNS2_7IConfigERKSt6vectorINS2_14TestCaseHandleESaIS7_EEEUlRKSt4pairImS7_ESF_E_EENS0_14_Val_comp_iterIT_EENS0_15_Iter_comp_iterISI_EE
FNDA:0,_ZN9__gnu_cxx5__ops16_Iter_equals_valIKN5Catch3TagEEC2ERS4_
FNDA:0,_ZN9__gnu_cxx5__ops16_Iter_equals_valIKN5Catch9StringRefEEC2ERS4_
FNDA:0,_ZN9__gnu_cxx5__ops16_Iter_equals_valIKNSt7__cxx1112basic_stringIcSt11char_traitsIcESaIcEEEEC2ERS8_
FNDA:0,_ZN9__gnu_cxx5__ops16_Iter_equals_valIKcEC2ERS2_
FNDA:0,_ZN9__gnu_cxx5__ops16_Iter_equals_valIKN5Catch3TagEEclINS_17__normal_iteratorIPS4_St6vectorIS3_SaIS3_EEEEEEbT_
FNDA:0,_ZN9__gnu_cxx5__ops16_Iter_equals_valIKN5Catch9StringRefEEclINS_17__normal_iteratorIPS4_St6vectorIS3_SaIS3_EEEEEEbT_
FNDA:0,_ZN9__gnu_cxx5__ops16_Iter_equals_valIKNSt7__cxx1112basic_stringIcSt11char_traitsIcESaIcEEEEclINS_17__normal_iteratorIPS8_St6vectorIS7_SaIS7_EEEEEEbT_
FNDA:0,_ZN9__gnu_cxx5__ops16_Iter_equals_valIKcEclIPS2_EEbT_
FNDA:0,_ZN9__gnu_cxx5__ops16_Iter_equals_valIKcEclISt16reverse_iteratorIPS2_EEEbT_
FNDA:0,_ZN9__gnu_cxx5__ops17__iter_equals_valIKN5Catch3TagEEENS0_16_Iter_equals_valIT_EERS6_
FNDA:0,_ZN9__gnu_cxx5__ops17__iter_equals_valIKN5Catch9StringRefEEENS0_16_Iter_equals_valIT_EERS6_
FNDA:0,_ZN9__gnu_cxx5__ops17__iter_equals_valIKNSt7__cxx1112basic_stringIcSt11char_traitsIcESaIcEEEEENS0_16_Iter_equals_valIT_EERSA_
FNDA:0,_ZN9__gnu_cxx5__ops17__iter_equals_valIKcEENS0_16_Iter_equals_valIT_EERS4_
FNDA:0,_ZN9__gnu_cxx5__ops10_Iter_predIN5Catch12_GLOBAL__N_113BySectionInfoEEC2ES4_
FNDA:0,_ZN9__gnu_cxx5__ops10_Iter_predIZN5Catch12_GLOBAL__N_111fileNameTagERKSt6vectorINS2_3TagESaIS5_EEEUlRKS5_E_EC2ESC_
FNDA:0,_ZN9__gnu_cxx5__ops10_Iter_predIZN5Catch14IResultCapture16popScopedMessageEjEUlRKNS2_11MessageInfoEE_EC2ES7_
FNDA:71,_ZN9__gnu_cxx5__ops10_Iter_predIZN5Catch16TestCaseTracking11TrackerBase5closeEvEUlRKNS2_6Detail10unique_ptrINS3_8ITrackerEEEE_EC2ESB_
FNDA:447,_ZN9__gnu_cxx5__ops10_Iter_predIZN5Catch16TestCaseTracking8ITracker9findChildERKNS3_18NameAndLocationRefEEUlRKNS2_6Detail10unique_ptrIS4_EEE_EC2ESD_
FNDA:0,_ZN9__gnu_cxx5__ops10_Iter_predIZN5Catch9Benchmark6Detail9bootstrapEdPdS5_RKSt6vectorIdSaIdEEPFdPKdSC_EEUldE_EC2ESF_
FNDA:0,_ZN9__gnu_cxx5__ops10_Iter_predIZNK5Catch22CumulativeReporterBase11SectionNode16hasAnyAssertionsEvEUlRKNS2_6Detail26AssertionOrBenchmarkResultEE_EC2ES9_
FNDA:0,_ZN9__gnu_cxx5__ops10_Iter_predIZNK5Catch8TestSpec7matchesERKNS2_12TestCaseInfoEEUlRKNS3_6FilterEE_EC2ESA_
FNDA:0,_ZN9__gnu_cxx5__ops10_Iter_predIZZN5Catch10Generators12_GLOBAL__N_116GeneratorTracker5closeEvENKUlvE_clEvEUlRKNS2_6Detail10unique_ptrINS2_16TestCaseTracking8ITrackerEEEE_EC2ESE_
FNDA:0,_ZN9__gnu_cxx5__ops10_Iter_predIN5Catch12_GLOBAL__N_113BySectionInfoEEclINS_17__normal_iteratorIPNS2_6Detail10unique_ptrINS2_22CumulativeReporterBase11SectionNodeEEESt6vectorISC_SaISC_EEEEEEbT_
FNDA:0,_ZN9__gnu_cxx5__ops10_Iter_predIZN5Catch12_GLOBAL__N_111fileNameTagERKSt6vectorINS2_3TagESaIS5_EEEUlRKS5_E_EclINS_17__normal_iteratorIPSA_S7_EEEEbT_
FNDA:0,_ZN9__gnu_cxx5__ops10_Iter_predIZN5Catch14IResultCapture16popScopedMessageEjEUlRKNS2_11MessageInfoEE_EclINS_17__normal_iteratorIPS4_St6vectorIS4_SaIS4_EEEEEEbT_
FNDA:769,_ZN9__gnu_cxx5__ops10_Iter_predIZN5Catch16TestCaseTracking8ITracker9findChildERKNS3_18NameAndLocationRefEEUlRKNS2_6Detail10unique_ptrIS4_EEE_EclINS_17__normal_iteratorIPSA_St6vectorISA_SaISA_EEEEEEbT_
FNDA:0,_ZN9__gnu_cxx5__ops10_Iter_predIZN5Catch9Benchmark6Detail9bootstrapEdPdS5_RKSt6vectorIdSaIdEEPFdPKdSC_EEUldE_EclINS_17__normal_iteratorISC_S8_EEEEbT_
FNDA:0,_ZN9__gnu_cxx5__ops10_Iter_predIZNK5Catch22CumulativeReporterBase11SectionNode16hasAnyAssertionsEvEUlRKNS2_6Detail26AssertionOrBenchmarkResultEE_EclINS_17__normal_iteratorIPS7_St6vectorIS6_SaIS6_EEEEEEbT_
FNDA:0,_ZN9__gnu_cxx5__ops10_Iter_predIZNK5Catch8TestSpec7matchesERKNS2_12TestCaseInfoEEUlRKNS3_6FilterEE_EclINS_17__normal_iteratorIPS8_St6vectorIS7_SaIS7_EEEEEEbT_
FNDA:0,_ZN9__gnu_cxx5__ops10_Iter_predIZZN5Catch10Generators12_GLOBAL__N_116GeneratorTracker5closeEvENKUlvE_clEvEUlRKNS2_6Detail10unique_ptrINS2_16TestCaseTracking8ITrackerEEEE_EclINS_17__normal_iteratorIPSB_St6vectorISB_SaISB_EEEEEEbT_
FNDA:0,_ZN9__gnu_cxx5__ops11__pred_iterIN5Catch12_GLOBAL__N_113BySectionInfoEEENS0_10_Iter_predIT_EES6_
FNDA:0,_ZN9__gnu_cxx5__ops11__pred_iterIZN5Catch12_GLOBAL__N_111fileNameTagERKSt6vectorINS2_3TagESaIS5_EEEUlRKS5_E_EENS0_10_Iter_predIT_EESE_
FNDA:0,_ZN9__gnu_cxx5__ops11__pred_iterIZN5Catch14IResultCapture16popScopedMessageEjEUlRKNS2_11MessageInfoEE_EENS0_10_Iter_predIT_EES9_
FNDA:71,_ZN9__gnu_cxx5__ops11__pred_iterIZN5Catch16TestCaseTracking11TrackerBase5closeEvEUlRKNS2_6Detail10unique_ptrINS3_8ITrackerEEEE_EENS0_10_Iter_predIT_EESD_
FNDA:447,_ZN9__gnu_cxx5__ops11__pred_iterIZN5Catch16TestCaseTracking8ITracker9findChildERKNS3_18NameAndLocationRefEEUlRKNS2_6Detail10unique_ptrIS4_EEE_EENS0_10_Iter_predIT_EESF_
FNDA:0,_ZN9__gnu_cxx5__ops11__pred_iterIZN5Catch9Benchmark6Detail9bootstrapEdPdS5_RKSt6vectorIdSaIdEEPFdPKdSC_EEUldE_EENS0_10_Iter_predIT_EESH_
FNDA:0,_ZN9__gnu_cxx5__ops11__pred_iterIZNK5Catch22CumulativeReporterBase11SectionNode16hasAnyAssertionsEvEUlRKNS2_6Detail26AssertionOrBenchmarkResultEE_EENS0_10_Iter_predIT_EESB_
FNDA:0,_ZN9__gnu_cxx5__ops11__pred_iterIZNK5Catch8TestSpec7matchesERKNS2_12TestCaseInfoEEUlRKNS3_6FilterEE_EENS0_10_Iter_predIT_EESC_
FNDA:0,_ZN9__gnu_cxx5__ops11__pred_iterIZZN5Catch10Generators12_GLOBAL__N_116GeneratorTracker5closeEvENKUlvE_clEvEUlRKNS2_6Detail10unique_ptrINS2_16TestCaseTracking8ITrackerEEEE_EENS0_10_Iter_predIT_EESG_
FNDA:71,_ZN9__gnu_cxx5__ops12_Iter_negateIZN5Catch16TestCaseTracking11TrackerBase5closeEvEUlRKNS2_6Detail10unique_ptrINS3_8ITrackerEEEE_EC2ESB_
FNDA:225,_ZN9__gnu_cxx5__ops12_Iter_negateIZN5Catch16TestCaseTracking11TrackerBase5closeEvEUlRKNS2_6Detail10unique_ptrINS3_8ITrackerEEEE_EclINS_17__normal_iteratorIPS8_St6vectorIS8_SaIS8_EEEEEEbT_
FNDA:71,_ZN9__gnu_cxx5__ops8__negateIZN5Catch16TestCaseTracking11TrackerBase5closeEvEUlRKNS2_6Detail10unique_ptrINS3_8ITrackerEEEE_EENS0_12_Iter_negateIT_EENS0_10_Iter_predISD_EE
FNDA:16,_ZNK9__gnu_cxx5__ops15_Iter_less_iterclINS_17__normal_iteratorIPN5Catch3TagESt6vectorIS5_SaIS5_EEEESA_EEbT_T0_
FNDA:0,_ZNK9__gnu_cxx5__ops15_Iter_less_iterclINS_17__normal_iteratorIPcSt6vectorIcSaIcEEEES8_EEbT_T0_
FNDA:0,_ZNK9__gnu_cxx5__ops15_Iter_less_iterclINS_17__normal_iteratorIPdSt6vectorIdSaIdEEEES8_EEbT_T0_
FNDA:0,_ZNK9__gnu_cxx5__ops15_Iter_less_iterclIPKN5Catch3TagES6_EEbT_T0_
FNDA:0,_ZNK9__gnu_cxx5__ops15_Iter_less_iterclIPdS3_EEbT_T0_
FNDA:132,_ZN9__gnu_cxx5__ops16__iter_less_iterEv
FNDA:0,_ZN9__gnu_cxx5__ops14_Iter_less_valC2ENS0_15_Iter_less_iterE
FNDA:0,_ZNK9__gnu_cxx5__ops14_Iter_less_valclINS_17__normal_iteratorIPKcSt6vectorIcSaIcEEEES4_EEbT_RT0_
FNDA:0,_ZNK9__gnu_cxx5__ops14_Iter_less_valclINS_17__normal_iteratorIPN5Catch3TagESt6vectorIS5_SaIS5_EEEES5_EEbT_RT0_
FNDA:0,_ZNK9__gnu_cxx5__ops14_Iter_less_valclINS_17__normal_iteratorIPcSt6vectorIcSaIcEEEEcEEbT_RT0_
FNDA:0,_ZNK9__gnu_cxx5__ops14_Iter_less_valclINS_17__normal_iteratorIPdSt6vectorIdSaIdEEEEdEEbT_RT0_
FNDA:0,_ZNK9__gnu_cxx5__ops14_Iter_less_valclIPddEEbT_RT0_
FNDA:0,_ZN9__gnu_cxx5__ops15__iter_less_valEv
FNDA:18,_ZNK9__gnu_cxx5__ops14_Val_less_iterclIN5Catch3TagENS_17__normal_iteratorIPS4_St6vectorIS4_SaIS4_EEEEEEbRT_T0_
FNDA:0,_ZNK9__gnu_cxx5__ops14_Val_less_iterclIcNS_17__normal_iteratorIPcSt6vectorIcSaIcEEEEEEbRT_T0_
FNDA:0,_ZNK9__gnu_cxx5__ops14_Val_less_iterclIdNS_17__normal_iteratorIPdSt6vectorIdSaIdEEEEEEbRT_T0_
FNDA:0,_ZNK9__gnu_cxx5__ops14_Val_less_iterclIdPdEEbRT_T0_
FNF:91
FNH:23
DA:44,16
DA:45,16
DA:50,132
DA:51,132
DA:63,0
DA:68,0
DA:69,0
DA:74,0
DA:75,0
DA:97,18
DA:98,18
DA:108,16
DA:109,16
DA:116,16
DA:117,16
DA:122,132
DA:123,132
DA:150,79
DA:151,79
DA:152,79
DA:157,824
DA:158,824
DA:164,79
DA:165,79
DA:187,0
DA:188,0
DA:189,0
DA:195,0
DA:196,0
DA:231,127
DA:232,127
DA:233,127
DA:239,482
DA:240,482
DA:252,127
DA:253,127
DA:262,0
DA:263,0
DA:264,0
DA:269,0
DA:270,0
DA:276,0
DA:277,0
DA:310,518
DA:311,518
DA:312,518
DA:317,769
DA:318,769
DA:324,518
DA:325,518
DA:387,71
DA:388,71
DA:389,71
DA:394,225
DA:395,225
DA:401,71
DA:402,71
LF:57
LH:40
end_of_record
TN:
SF:/usr/include/c++/13/bits/ptr_traits.h
FN:212,216,_ZSt12__to_addressISt23_Sp_counted_ptr_inplaceIN5Catch5Clara6Detail11BoundLambdaIZNS1_21makeCommandLineParserERNS1_10ConfigDataEEUlRKNSt7__cxx1112basic_stringIcSt11char_traitsIcESaIcEEEE0_EESaIvELN9__gnu_cxx12_Lock_policyE2EEEPT_SM_
FN:212,216,_ZSt12__to_addressISt23_Sp_counted_ptr_inplaceIN5Catch5Clara6Detail11BoundLambdaIZNS1_21makeCommandLineParserERNS1_10ConfigDataEEUlRKNSt7__cxx1112basic_stringIcSt11char_traitsIcESaIcEEEE1_EESaIvELN9__gnu_cxx12_Lock_policyE2EEEPT_SM_
FN:212,216,_ZSt12__to_addressISt23_Sp_counted_ptr_inplaceIN5Catch5Clara6Detail11BoundLambdaIZNS1_21makeCommandLineParserERNS1_10ConfigDataEEUlRKNSt7__cxx1112basic_stringIcSt11char_traitsIcESaIcEEEE2_EESaIvELN9__gnu_cxx12_Lock_policyE2EEEPT_SM_
FN:212,216,_ZSt12__to_addressISt23_Sp_counted_ptr_inplaceIN5Catch5Clara6Detail11BoundLambdaIZNS1_21makeCommandLineParserERNS1_10ConfigDataEEUlRKNSt7__cxx1112basic_stringIcSt11char_traitsIcESaIcEEEE3_EESaIvELN9__gnu_cxx12_Lock_policyE2EEEPT_SM_
FN:212,216,_ZSt12__to_addressISt23_Sp_counted_ptr_inplaceIN5Catch5Clara6Detail11BoundLambdaIZNS1_21makeCommandLineParserERNS1_10ConfigDataEEUlRKNSt7__cxx1112basic_stringIcSt11char_traitsIcESaIcEEEE4_EESaIvELN9__gnu_cxx12_Lock_policyE2EEEPT_SM_
FN:212,216,_ZSt12__to_addressISt23_Sp_counted_ptr_inplaceIN5Catch5Clara6Detail11BoundLambdaIZNS1_21makeCommandLineParserERNS1_10ConfigDataEEUlRKNSt7__cxx1112basic_stringIcSt11char_traitsIcESaIcEEEE5_EESaIvELN9__gnu_cxx12_Lock_policyE2EEEPT_SM_
FN:212,216,_ZSt12__to_addressISt23_Sp_counted_ptr_inplaceIN5Catch5Clara6Detail11BoundLambdaIZNS1_21makeCommandLineParserERNS1_10ConfigDataEEUlRKNSt7__cxx1112basic_stringIcSt11char_traitsIcESaIcEEEE7_EESaIvELN9__gnu_cxx12_Lock_policyE2EEEPT_SM_
FN:212,216,_ZSt12__to_addressISt23_Sp_counted_ptr_inplaceIN5Catch5Clara6Detail11BoundLambdaIZNS1_21makeCommandLineParserERNS1_10ConfigDataEEUlRKNSt7__cxx1112basic_stringIcSt11char_traitsIcESaIcEEEE8_EESaIvELN9__gnu_cxx12_Lock_policyE2EEEPT_SM_
FN:212,216,_ZSt12__to_addressISt23_Sp_counted_ptr_inplaceIN5Catch5Clara6Detail11BoundLambdaIZNS1_21makeCommandLineParserERNS1_10ConfigDataEEUlbE0_EESaIvELN9__gnu_cxx12_Lock_policyE2EEEPT_SE_
FN:212,216,_ZSt12__to_addressISt23_Sp_counted_ptr_inplaceIN5Catch5Clara6Detail11BoundLambdaIZNS1_21makeCommandLineParserERNS1_10ConfigDataEEUliE_EESaIvELN9__gnu_cxx12_Lock_policyE2EEEPT_SE_
FN:212,216,_ZSt12__to_addressISt23_Sp_counted_ptr_inplaceIN5Catch5Clara6Detail12BoundFlagRefESaIvELN9__gnu_cxx12_Lock_policyE2EEEPT_SA_
FN:212,216,_ZSt12__to_addressISt23_Sp_counted_ptr_inplaceIN5Catch5Clara6Detail13BoundValueRefINSt7__cxx1112basic_stringIcSt11char_traitsIcESaIcEEEEESaIvELN9__gnu_cxx12_Lock_policyE2EEEPT_SH_
FN:212,216,_ZSt12__to_addressISt23_Sp_counted_ptr_inplaceIN5Catch5Clara6Detail13BoundValueRefISt6vectorINSt7__cxx1112basic_stringIcSt11char_traitsIcESaIcEEESaISB_EEEESaIvELN9__gnu_cxx12_Lock_policyE2EEEPT_SK_
FN:212,216,_ZSt12__to_addressISt23_Sp_counted_ptr_inplaceIN5Catch5Clara6Detail13BoundValueRefIdEESaIvELN9__gnu_cxx12_Lock_policyE2EEEPT_SB_
FN:212,216,_ZSt12__to_addressISt23_Sp_counted_ptr_inplaceIN5Catch5Clara6Detail13BoundValueRefIjEESaIvELN9__gnu_cxx12_Lock_policyE2EEEPT_SB_
FN:212,216,_ZSt12__to_addressISt23_Sp_counted_ptr_inplaceIN5Catch5Clara6Detail13BoundValueRefIlEESaIvELN9__gnu_cxx12_Lock_policyE2EEEPT_SB_
FN:212,216,_ZSt12__to_addressISt23_Sp_counted_ptr_inplaceIN5Catch5Clara6Detail15BoundFlagLambdaIZNS1_21makeCommandLineParserERNS1_10ConfigDataEEUlbE_EESaIvELN9__gnu_cxx12_Lock_policyE2EEEPT_SE_
FN:212,216,_ZSt12__to_addressISt23_Sp_counted_ptr_inplaceIN5Catch5Clara6Detail15BoundFlagLambdaIZNS2_4HelpC4ERbEUlbE_EESaIvELN9__gnu_cxx12_Lock_policyE2EEEPT_SE_
FN:212,216,_ZSt12__to_addressISt23_Sp_counted_ptr_inplaceIN5Catch5Clara6Detail15BoundManyLambdaIZNS1_21makeCommandLineParserERNS1_10ConfigDataEEUlRKNSt7__cxx1112basic_stringIcSt11char_traitsIcESaIcEEEE6_EESaIvELN9__gnu_cxx12_Lock_policyE2EEEPT_SM_
FN:212,216,_ZSt12__to_addressISt23_Sp_counted_ptr_inplaceIN5Catch5Clara6Detail15BoundManyLambdaIZNS1_21makeCommandLineParserERNS1_10ConfigDataEEUlRKNSt7__cxx1112basic_stringIcSt11char_traitsIcESaIcEEEE_EESaIvELN9__gnu_cxx12_Lock_policyE2EEEPT_SM_
FN:212,216,_ZSt12__to_addressISt23_Sp_counted_ptr_inplaceINSt7__cxx1112basic_stringIcSt11char_traitsIcESaIcEEESaIvELN9__gnu_cxx12_Lock_policyE2EEEPT_SC_
FN:212,216,_ZSt12__to_addressISt23_Sp_counted_ptr_inplaceINSt8__detail4_NFAINSt7__cxx1112regex_traitsIcEEEESaIvELN9__gnu_cxx12_Lock_policyE2EEEPT_SC_
FNDA:1,_ZSt12__to_addressISt23_Sp_counted_ptr_inplaceIN5Catch5Clara6Detail11BoundLambdaIZNS1_21makeCommandLineParserERNS1_10ConfigDataEEUlRKNSt7__cxx1112basic_stringIcSt11char_traitsIcESaIcEEEE0_EESaIvELN9__gnu_cxx12_Lock_policyE2EEEPT_SM_
FNDA:1,_ZSt12__to_addressISt23_Sp_counted_ptr_inplaceIN5Catch5Clara6Detail11BoundLambdaIZNS1_21makeCommandLineParserERNS1_10ConfigDataEEUlRKNSt7__cxx1112basic_stringIcSt11char_traitsIcESaIcEEEE1_EESaIvELN9__gnu_cxx12_Lock_policyE2EEEPT_SM_
FNDA:1,_ZSt12__to_addressISt23_Sp_counted_ptr_inplaceIN5Catch5Clara6Detail11BoundLambdaIZNS1_21makeCommandLineParserERNS1_10ConfigDataEEUlRKNSt7__cxx1112basic_stringIcSt11char_traitsIcESaIcEEEE2_EESaIvELN9__gnu_cxx12_Lock_policyE2EEEPT_SM_
FNDA:1,_ZSt12__to_addressISt23_Sp_counted_ptr_inplaceIN5Catch5Clara6Detail11BoundLambdaIZNS1_21makeCommandLineParserERNS1_10ConfigDataEEUlRKNSt7__cxx1112basic_stringIcSt11char_traitsIcESaIcEEEE3_EESaIvELN9__gnu_cxx12_Lock_policyE2EEEPT_SM_
FNDA:1,_ZSt12__to_addressISt23_Sp_counted_ptr_inplaceIN5Catch5Clara6Detail11BoundLambdaIZNS1_21makeCommandLineParserERNS1_10ConfigDataEEUlRKNSt7__cxx1112basic_stringIcSt11char_traitsIcESaIcEEEE4_EESaIvELN9__gnu_cxx12_Lock_policyE2EEEPT_SM_
FNDA:1,_ZSt12__to_addressISt23_Sp_counted_ptr_inplaceIN5Catch5Clara6Detail11BoundLambdaIZNS1_21makeCommandLineParserERNS1_10ConfigDataEEUlRKNSt7__cxx1112basic_stringIcSt11char_traitsIcESaIcEEEE5_EESaIvELN9__gnu_cxx12_Lock_policyE2EEEPT_SM_
FNDA:1,_ZSt12__to_addressISt23_Sp_counted_ptr_inplaceIN5Catch5Clara6Detail11BoundLambdaIZNS1_21makeCommandLineParserERNS1_10ConfigDataEEUlRKNSt7__cxx1112basic_stringIcSt11char_traitsIcESaIcEEEE7_EESaIvELN9__gnu_cxx12_Lock_policyE2EEEPT_SM_
FNDA:1,_ZSt12__to_addressISt23_Sp_counted_ptr_inplaceIN5Catch5Clara6Detail11BoundLambdaIZNS1_21makeCommandLineParserERNS1_10ConfigDataEEUlRKNSt7__cxx1112basic_stringIcSt11char_traitsIcESaIcEEEE8_EESaIvELN9__gnu_cxx12_Lock_policyE2EEEPT_SM_
FNDA:1,_ZSt12__to_addressISt23_Sp_counted_ptr_inplaceIN5Catch5Clara6Detail11BoundLambdaIZNS1_21makeCommandLineParserERNS1_10ConfigDataEEUlbE0_EESaIvELN9__gnu_cxx12_Lock_policyE2EEEPT_SE_
FNDA:1,_ZSt12__to_addressISt23_Sp_counted_ptr_inplaceIN5Catch5Clara6Detail11BoundLambdaIZNS1_21makeCommandLineParserERNS1_10ConfigDataEEUliE_EESaIvELN9__gnu_cxx12_Lock_policyE2EEEPT_SE_
FNDA:13,_ZSt12__to_addressISt23_Sp_counted_ptr_inplaceIN5Catch5Clara6Detail12BoundFlagRefESaIvELN9__gnu_cxx12_Lock_policyE2EEEPT_SA_
FNDA:4,_ZSt12__to_addressISt23_Sp_counted_ptr_inplaceIN5Catch5Clara6Detail13BoundValueRefINSt7__cxx1112basic_stringIcSt11char_traitsIcESaIcEEEEESaIvELN9__gnu_cxx12_Lock_policyE2EEEPT_SH_
FNDA:2,_ZSt12__to_addressISt23_Sp_counted_ptr_inplaceIN5Catch5Clara6Detail13BoundValueRefISt6vectorINSt7__cxx1112basic_stringIcSt11char_traitsIcESaIcEEESaISB_EEEESaIvELN9__gnu_cxx12_Lock_policyE2EEEPT_SK_
FNDA:2,_ZSt12__to_addressISt23_Sp_counted_ptr_inplaceIN5Catch5Clara6Detail13BoundValueRefIdEESaIvELN9__gnu_cxx12_Lock_policyE2EEEPT_SB_
FNDA:2,_ZSt12__to_addressISt23_Sp_counted_ptr_inplaceIN5Catch5Clara6Detail13BoundValueRefIjEESaIvELN9__gnu_cxx12_Lock_policyE2EEEPT_SB_
FNDA:1,_ZSt12__to_addressISt23_Sp_counted_ptr_inplaceIN5Catch5Clara6Detail13BoundValueRefIlEESaIvELN9__gnu_cxx12_Lock_policyE2EEEPT_SB_
FNDA:1,_ZSt12__to_addressISt23_Sp_counted_ptr_inplaceIN5Catch5Clara6Detail15BoundFlagLambdaIZNS1_21makeCommandLineParserERNS1_10ConfigDataEEUlbE_EESaIvELN9__gnu_cxx12_Lock_policyE2EEEPT_SE_
FNDA:1,_ZSt12__to_addressISt23_Sp_counted_ptr_inplaceIN5Catch5Clara6Detail15BoundFlagLambdaIZNS2_4HelpC4ERbEUlbE_EESaIvELN9__gnu_cxx12_Lock_policyE2EEEPT_SE_
FNDA:1,_ZSt12__to_addressISt23_Sp_counted_ptr_inplaceIN5Catch5Clara6Detail15BoundManyLambdaIZNS1_21makeCommandLineParserERNS1_10ConfigDataEEUlRKNSt7__cxx1112basic_stringIcSt11char_traitsIcESaIcEEEE6_EESaIvELN9__gnu_cxx12_Lock_policyE2EEEPT_SM_
FNDA:1,_ZSt12__to_addressISt23_Sp_counted_ptr_inplaceIN5Catch5Clara6Detail15BoundManyLambdaIZNS1_21makeCommandLineParserERNS1_10ConfigDataEEUlRKNSt7__cxx1112basic_stringIcSt11char_traitsIcESaIcEEEE_EESaIvELN9__gnu_cxx12_Lock_policyE2EEEPT_SM_
FNDA:3,_ZSt12__to_addressISt23_Sp_counted_ptr_inplaceINSt7__cxx1112basic_stringIcSt11char_traitsIcESaIcEEESaIvELN9__gnu_cxx12_Lock_policyE2EEEPT_SC_
FNDA:0,_ZSt12__to_addressISt23_Sp_counted_ptr_inplaceINSt8__detail4_NFAINSt7__cxx1112regex_traitsIcEEEESaIvELN9__gnu_cxx12_Lock_policyE2EEEPT_SC_
FNF:22
FNH:21
DA:212,41
DA:215,41
LF:2
LH:2
end_of_record
TN:
SF:/usr/include/c++/13/bits/random.h
FN:1658,1658,_ZNSt13random_deviceC2Ev
FN:1663,1664,_ZNSt13random_deviceD2Ev
FN:1679,1680,_ZNSt13random_deviceclEv
FN:173,174,_ZNSt8__detail8_AdaptorIN5Catch11SimplePcg32EeEC2ERS2_
FN:1796,1800,_ZNSt25uniform_real_distributionIeE10param_typeC2Eee
FN:1803,1804,_ZNKSt25uniform_real_distributionIeE10param_type1aEv
FN:1807,1808,_ZNKSt25uniform_real_distributionIeE10param_type1bEv
FN:1840,1842,_ZNSt25uniform_real_distributionIeEC2Eee
FN:1899,1900,_ZNSt25uniform_real_distributionIeEclIN5Catch11SimplePcg32EEEeRT_
FN:190,195,_ZNSt8__detail8_AdaptorIN5Catch11SimplePcg32EeEclEv
FN:1904,1910,_ZNSt25uniform_real_distributionIeEclIN5Catch11SimplePcg32EEEeRT_RKNS0_10param_typeE
FNDA:1,_ZNSt13random_deviceC2Ev
FNDA:1,_ZNSt13random_deviceD2Ev
FNDA:1,_ZNSt13random_deviceclEv
FNDA:0,_ZNSt8__detail8_AdaptorIN5Catch11SimplePcg32EeEC2ERS2_
FNDA:0,_ZNSt25uniform_real_distributionIeE10param_typeC2Eee
FNDA:0,_ZNKSt25uniform_real_distributionIeE10param_type1aEv
FNDA:0,_ZNKSt25uniform_real_distributionIeE10param_type1bEv
FNDA:0,_ZNSt25uniform_real_distributionIeEC2Eee
FNDA:0,_ZNSt25uniform_real_distributionIeEclIN5Catch11SimplePcg32EEEeRT_
FNDA:0,_ZNSt8__detail8_AdaptorIN5Catch11SimplePcg32EeEclEv
FNDA:0,_ZNSt25uniform_real_distributionIeEclIN5Catch11SimplePcg32EEEeRT_RKNS0_10param_typeE
FNF:11
FNH:3
DA:173,0
DA:174,0
DA:190,0
DA:194,0
DA:1658,3
DA:1663,1
DA:1664,1
DA:1679,1
DA:1680,1
DA:1796,0
DA:1797,0
DA:1799,0
DA:1800,0
DA:1803,0
DA:1804,0
DA:1807,0
DA:1808,0
DA:1840,0
DA:1841,0
DA:1842,0
DA:1899,0
DA:1900,0
DA:1904,0
DA:1908,0
DA:1909,0
LF:25
LH:5
end_of_record
TN:
SF:/usr/include/c++/13/bits/random.tcc
FN:3349,3381,_ZSt18generate_canonicalIeLm64EN5Catch11SimplePcg32EET_RT1_
FNDA:0,_ZSt18generate_canonicalIeLm64EN5Catch11SimplePcg32EET_RT1_
FNF:1
FNH:0
DA:3349,0
DA:3354,0
DA:3357,0
DA:3359,0
DA:3360,0
DA:3361,0
DA:3363,0
DA:3364,0
DA:3365,0
DA:3367,0
DA:3368,0
DA:3370,0
DA:3371,0
DA:3374,0
DA:3380,0
LF:15
LH:0
end_of_record
TN:
SF:/usr/include/c++/13/bits/range_access.h
FNF:0
FNH:0
DA:53,264
DA:64,0
DA:75,396
DA:86,0
LF:4
LH:2
end_of_record
TN:
SF:/usr/include/c++/13/bits/regex.h
FN:112,115,_ZNSt7__cxx1112regex_traitsIcE10_RegexMaskC2Eth
FN:118,122,_ZNKSt7__cxx1112regex_traitsIcE10_RegexMaskanES2_
FN:125,129,_ZNKSt7__cxx1112regex_traitsIcE10_RegexMaskorES2_
FN:147,148,_ZNSt7__cxx1112regex_traitsIcE10_RegexMaskoRES2_
FN:155,160,_ZNKSt7__cxx1112regex_traitsIcE10_RegexMaskeqES2_
FN:164,165,_ZNKSt7__cxx1112regex_traitsIcE10_RegexMaskneES2_
FN:176,176,_ZNSt7__cxx1112regex_traitsIcEC2Ev
FN:1801,1801,_ZNSt7__cxx1113match_resultsIN9__gnu_cxx17__normal_iteratorIPKcNS_12basic_stringIcSt11char_traitsIcESaIcEEEEESaINS_9sub_matchISA_EEEEC2Ev
FN:1808,1810,_ZNSt7__cxx1113match_resultsIN9__gnu_cxx17__normal_iteratorIPKcNS_12basic_stringIcSt11char_traitsIcESaIcEEEEESaINS_9sub_matchISA_EEEEC2ERKSD_
FN:1837,1837,_ZNSt7__cxx1113match_resultsIN9__gnu_cxx17__normal_iteratorIPKcNS_12basic_stringIcSt11char_traitsIcESaIcEEEEESaINS_9sub_matchISA_EEEED2Ev
FN:200,201,_ZNKSt7__cxx1112regex_traitsIcE9translateEc
FN:2128,2129,_ZNSt7__cxx1113match_resultsIN9__gnu_cxx17__normal_iteratorIPKcNS_12basic_stringIcSt11char_traitsIcESaIcEEEEESaINS_9sub_matchISA_EEEE9_M_resizeEj
FN:213,218,_ZNKSt7__cxx1112regex_traitsIcE16translate_nocaseEc
FN:2133,2138,_ZNSt7__cxx1113match_resultsIN9__gnu_cxx17__normal_iteratorIPKcNS_12basic_stringIcSt11char_traitsIcESaIcEEEEESaINS_9sub_matchISA_EEEE25_M_establish_failed_matchESA_
FN:2153,2154,_ZNSt7__cxx1113match_resultsIN9__gnu_cxx17__normal_iteratorIPKcNS_12basic_stringIcSt11char_traitsIcESaIcEEEEESaINS_9sub_matchISA_EEEE9_M_prefixEv
FN:2161,2162,_ZNSt7__cxx1113match_resultsIN9__gnu_cxx17__normal_iteratorIPKcNS_12basic_stringIcSt11char_traitsIcESaIcEEEEESaINS_9sub_matchISA_EEEE9_M_suffixEv
FN:2261,2270,_ZSt11regex_matchIN9__gnu_cxx17__normal_iteratorIPKcNSt7__cxx1112basic_stringIcSt11char_traitsIcESaIcEEEEESaINS4_9sub_matchISA_EEEcNS4_12regex_traitsIcEEEbT_SG_RNS4_13match_resultsISG_T0_EERKNS4_11basic_regexIT1_T2_EENSt15regex_constants15match_flag_typeE
FN:2288,2295,_ZSt11regex_matchIN9__gnu_cxx17__normal_iteratorIPKcNSt7__cxx1112basic_stringIcSt11char_traitsIcESaIcEEEEEcNS4_12regex_traitsIcEEEbT_SD_RKNS4_11basic_regexIT0_T1_EENSt15regex_constants15match_flag_typeE
FN:2395,2399,_ZSt11regex_matchISt11char_traitsIcESaIcEcNSt7__cxx1112regex_traitsIcEEEbRKNS3_12basic_stringIT1_T_T0_EERKNS3_11basic_regexIS7_T2_EENSt15regex_constants15match_flag_typeE
FN:242,248,_ZNKSt7__cxx1112regex_traitsIcE9transformIN9__gnu_cxx17__normal_iteratorIPcNS_12basic_stringIcSt11char_traitsIcESaIcEEEEEEESA_T_SC_
FN:242,248,_ZNKSt7__cxx1112regex_traitsIcE9transformIPcEENS_12basic_stringIcSt11char_traitsIcESaIcEEET_S9_
FN:266,279,_ZNKSt7__cxx1112regex_traitsIcE17transform_primaryIPKcEENS_12basic_stringIcSt11char_traitsIcESaIcEEET_SA_
FN:266,279,_ZNKSt7__cxx1112regex_traitsIcE17transform_primaryIPcEENS_12basic_stringIcSt11char_traitsIcESaIcEEET_S9_
FN:378,382,_ZNSt7__cxx1112regex_traitsIcE5imbueESt6locale
FN:389,390,_ZNKSt7__cxx1112regex_traitsIcE6getlocEv
FN:519,522,_ZNSt7__cxx1111basic_regexIcNS_12regex_traitsIcEEEC2ISt11char_traitsIcESaIcEEERKNS_12basic_stringIcT_T0_EENSt15regex_constants18syntax_option_typeE
FN:556,557,_ZNSt7__cxx1111basic_regexIcNS_12regex_traitsIcEEED2Ev
FN:757,758,_ZNKSt7__cxx1111basic_regexIcNS_12regex_traitsIcEEE5flagsEv
FN:806,812,_ZNSt7__cxx1111basic_regexIcNS_12regex_traitsIcEEE10_M_compileEPKcS5_NSt15regex_constants18syntax_option_typeE
FN:937,937,_ZNSt7__cxx119sub_matchIN9__gnu_cxx17__normal_iteratorIPKcNS_12basic_stringIcSt11char_traitsIcESaIcEEEEEEC2Ev
FNDA:0,_ZNSt7__cxx1112regex_traitsIcE10_RegexMaskC2Eth
FNDA:0,_ZNKSt7__cxx1112regex_traitsIcE10_RegexMaskanES2_
FNDA:0,_ZNKSt7__cxx1112regex_traitsIcE10_RegexMaskorES2_
FNDA:0,_ZNSt7__cxx1112regex_traitsIcE10_RegexMaskoRES2_
FNDA:0,_ZNKSt7__cxx1112regex_traitsIcE10_RegexMaskeqES2_
FNDA:0,_ZNKSt7__cxx1112regex_traitsIcE10_RegexMaskneES2_
FNDA:0,_ZNSt7__cxx1112regex_traitsIcEC2Ev
FNDA:0,_ZNSt7__cxx1113match_resultsIN9__gnu_cxx17__normal_iteratorIPKcNS_12basic_stringIcSt11char_traitsIcESaIcEEEEESaINS_9sub_matchISA_EEEEC2Ev
FNDA:0,_ZNSt7__cxx1113match_resultsIN9__gnu_cxx17__normal_iteratorIPKcNS_12basic_stringIcSt11char_traitsIcESaIcEEEEESaINS_9sub_matchISA_EEEEC2ERKSD_
FNDA:0,_ZNSt7__cxx1113match_resultsIN9__gnu_cxx17__normal_iteratorIPKcNS_12basic_stringIcSt11char_traitsIcESaIcEEEEESaINS_9sub_matchISA_EEEED2Ev
FNDA:0,_ZNKSt7__cxx1112regex_traitsIcE9translateEc
FNDA:0,_ZNSt7__cxx1113match_resultsIN9__gnu_cxx17__normal_iteratorIPKcNS_12basic_stringIcSt11char_traitsIcESaIcEEEEESaINS_9sub_matchISA_EEEE9_M_resizeEj
FNDA:0,_ZNKSt7__cxx1112regex_traitsIcE16translate_nocaseEc
FNDA:0,_ZNSt7__cxx1113match_resultsIN9__gnu_cxx17__normal_iteratorIPKcNS_12basic_stringIcSt11char_traitsIcESaIcEEEEESaINS_9sub_matchISA_EEEE25_M_establish_failed_matchESA_
FNDA:0,_ZNSt7__cxx1113match_resultsIN9__gnu_cxx17__normal_iteratorIPKcNS_12basic_stringIcSt11char_traitsIcESaIcEEEEESaINS_9sub_matchISA_EEEE9_M_prefixEv
FNDA:0,_ZNSt7__cxx1113match_resultsIN9__gnu_cxx17__normal_iteratorIPKcNS_12basic_stringIcSt11char_traitsIcESaIcEEEEESaINS_9sub_matchISA_EEEE9_M_suffixEv
FNDA:0,_ZSt11regex_matchIN9__gnu_cxx17__normal_iteratorIPKcNSt7__cxx1112basic_stringIcSt11char_traitsIcESaIcEEEEESaINS4_9sub_matchISA_EEEcNS4_12regex_traitsIcEEEbT_SG_RNS4_13match_resultsISG_T0_EERKNS4_11basic_regexIT1_T2_EENSt15regex_constants15match_flag_typeE
FNDA:0,_ZSt11regex_matchIN9__gnu_cxx17__normal_iteratorIPKcNSt7__cxx1112basic_stringIcSt11char_traitsIcESaIcEEEEEcNS4_12regex_traitsIcEEEbT_SD_RKNS4_11basic_regexIT0_T1_EENSt15regex_constants15match_flag_typeE
FNDA:0,_ZSt11regex_matchISt11char_traitsIcESaIcEcNSt7__cxx1112regex_traitsIcEEEbRKNS3_12basic_stringIT1_T_T0_EERKNS3_11basic_regexIS7_T2_EENSt15regex_constants15match_flag_typeE
FNDA:0,_ZNKSt7__cxx1112regex_traitsIcE9transformIN9__gnu_cxx17__normal_iteratorIPcNS_12basic_stringIcSt11char_traitsIcESaIcEEEEEEESA_T_SC_
FNDA:0,_ZNKSt7__cxx1112regex_traitsIcE9transformIPcEENS_12basic_stringIcSt11char_traitsIcESaIcEEET_S9_
FNDA:0,_ZNKSt7__cxx1112regex_traitsIcE17transform_primaryIPKcEENS_12basic_stringIcSt11char_traitsIcESaIcEEET_SA_
FNDA:0,_ZNKSt7__cxx1112regex_traitsIcE17transform_primaryIPcEENS_12basic_stringIcSt11char_traitsIcESaIcEEET_S9_
FNDA:0,_ZNSt7__cxx1112regex_traitsIcE5imbueESt6locale
FNDA:0,_ZNKSt7__cxx1112regex_traitsIcE6getlocEv
FNDA:0,_ZNSt7__cxx1111basic_regexIcNS_12regex_traitsIcEEEC2ISt11char_traitsIcESaIcEEERKNS_12basic_stringIcT_T0_EENSt15regex_constants18syntax_option_typeE
FNDA:0,_ZNSt7__cxx1111basic_regexIcNS_12regex_traitsIcEEED2Ev
FNDA:0,_ZNKSt7__cxx1111basic_regexIcNS_12regex_traitsIcEEE5flagsEv
FNDA:0,_ZNSt7__cxx1111basic_regexIcNS_12regex_traitsIcEEE10_M_compileEPKcS5_NSt15regex_constants18syntax_option_typeE
FNDA:0,_ZNSt7__cxx119sub_matchIN9__gnu_cxx17__normal_iteratorIPKcNS_12basic_stringIcSt11char_traitsIcESaIcEEEEEEC2Ev
FNF:30
FNH:0
DA:112,0
DA:114,0
DA:115,0
DA:118,0
DA:120,0
DA:121,0
DA:125,0
DA:127,0
DA:128,0
DA:147,0
DA:148,0
DA:155,0
DA:157,0
DA:158,0
DA:159,0
DA:164,0
DA:165,0
DA:176,0
DA:200,0
DA:201,0
DA:213,0
DA:216,0
DA:217,0
DA:242,0
DA:245,0
DA:246,0
DA:247,0
DA:248,0
DA:266,0
DA:275,0
DA:276,0
DA:277,0
DA:278,0
DA:279,0
DA:378,0
DA:380,0
DA:381,0
DA:389,0
DA:390,0
DA:519,0
DA:522,0
DA:556,0
DA:557,0
DA:757,0
DA:758,0
DA:806,0
DA:809,0
DA:810,0
DA:811,0
DA:812,0
DA:937,0
DA:1801,0
DA:1808,0
DA:1809,0
DA:1810,0
DA:1837,0
DA:2128,0
DA:2129,0
DA:2133,0
DA:2135,0
DA:2136,0
DA:2137,0
DA:2138,0
DA:2153,0
DA:2154,0
DA:2161,0
DA:2162,0
DA:2261,0
DA:2268,0
DA:2269,0
DA:2288,0
DA:2293,0
DA:2294,0
DA:2295,0
DA:2395,0
DA:2399,0
LF:76
LH:0
end_of_record
TN:
SF:/usr/include/c++/13/bits/regex.tcc
FN:122,273,_ZNKSt7__cxx1112regex_traitsIcE18lookup_collatenameIPKcEENS_12basic_stringIcSt11char_traitsIcESaIcEEET_SA_
FN:278,318,_ZNKSt7__cxx1112regex_traitsIcE16lookup_classnameIPKcEENS1_10_RegexMaskET_S6_b
FN:322,332,_ZNKSt7__cxx1112regex_traitsIcE7isctypeEcNS1_10_RegexMaskE
FN:336,347,_ZNKSt7__cxx1112regex_traitsIcE5valueEci
FN:48,115,_ZNSt8__detail17__regex_algo_implIN9__gnu_cxx17__normal_iteratorIPKcNSt7__cxx1112basic_stringIcSt11char_traitsIcESaIcEEEEESaINS5_9sub_matchISB_EEEcNS5_12regex_traitsIcEEEEbT_SH_RNS5_13match_resultsISH_T0_EERKNS5_11basic_regexIT1_T2_EENSt15regex_constants15match_flag_typeENS_20_RegexExecutorPolicyEb
FNDA:0,_ZNKSt7__cxx1112regex_traitsIcE18lookup_collatenameIPKcEENS_12basic_stringIcSt11char_traitsIcESaIcEEET_SA_
FNDA:0,_ZNKSt7__cxx1112regex_traitsIcE16lookup_classnameIPKcEENS1_10_RegexMaskET_S6_b
FNDA:0,_ZNKSt7__cxx1112regex_traitsIcE7isctypeEcNS1_10_RegexMaskE
FNDA:0,_ZNKSt7__cxx1112regex_traitsIcE5valueEci
FNDA:0,_ZNSt8__detail17__regex_algo_implIN9__gnu_cxx17__normal_iteratorIPKcNSt7__cxx1112basic_stringIcSt11char_traitsIcESaIcEEEEESaINS5_9sub_matchISB_EEEcNS5_12regex_traitsIcEEEEbT_SH_RNS5_13match_resultsISH_T0_EERKNS5_11basic_regexIT1_T2_EENSt15regex_constants15match_flag_typeENS_20_RegexExecutorPolicyEb
FNF:5
FNH:0
DA:48,0
DA:56,0
DA:57,0
DA:59,0
DA:60,0
DA:61,0
DA:64,0
DA:65,0
DA:66,0
DA:69,0
DA:70,0
DA:71,0
DA:73,0
DA:74,0
DA:78,0
DA:79,0
DA:80,0
DA:82,0
DA:83,0
DA:84,0
DA:86,0
DA:87,0
DA:88,0
DA:89,0
DA:90,0
DA:91,0
DA:93,0
DA:94,0
DA:95,0
DA:96,0
DA:97,0
DA:98,0
DA:102,0
DA:103,0
DA:104,0
DA:105,0
DA:106,0
DA:107,0
DA:112,0
DA:114,0
DA:122,0
DA:126,0
DA:260,0
DA:261,0
DA:262,0
DA:264,0
DA:265,0
DA:266,0
DA:267,0
DA:272,0
DA:273,0
DA:278,0
DA:282,0
DA:304,0
DA:305,0
DA:306,0
DA:308,0
DA:309,0
DA:311,0
DA:312,0
DA:313,0
DA:314,0
DA:315,0
DA:317,0
DA:318,0
DA:322,0
DA:326,0
DA:328,0
DA:330,0
DA:331,0
DA:336,0
DA:339,0
DA:341,0
DA:342,0
DA:343,0
DA:344,0
DA:345,0
DA:346,0
DA:347,0
LF:79
LH:0
end_of_record
TN:
SF:/usr/include/c++/13/bits/regex_automaton.h
FN:104,109,_ZNKSt8__detail11_State_base10_M_has_altEv
FN:133,137,_ZNSt8__detail6_StateIcEC2ENS_7_OpcodeE
FN:139,144,_ZNSt8__detail6_StateIcEC2ERKS1_
FN:146,151,_ZNSt8__detail6_StateIcEC2EOS1_
FN:156,160,_ZNSt8__detail6_StateIcED2Ev
FN:165,166,_ZNKSt8__detail6_StateIcE9_M_opcodeEv
FN:169,170,_ZNKSt8__detail6_StateIcE10_M_matchesEc
FN:173,174,_ZNSt8__detail6_StateIcE14_M_get_matcherEv
FN:177,181,_ZNKSt8__detail6_StateIcE14_M_get_matcherEv
FN:189,192,_ZNSt8__detail9_NFA_baseC2ENSt15regex_constants18syntax_option_typeE
FN:197,197,_ZNSt8__detail9_NFA_baseD2Ev
FN:201,202,_ZNKSt8__detail9_NFA_base10_M_optionsEv
FN:205,206,_ZNKSt8__detail9_NFA_base8_M_startEv
FN:209,210,_ZNKSt8__detail9_NFA_base12_M_sub_countEv
FN:227,229,_ZNSt8__detail4_NFAINSt7__cxx1112regex_traitsIcEEEC2ERKSt6localeNSt15regex_constants18syntax_option_typeE
FN:236,240,_ZNSt8__detail4_NFAINSt7__cxx1112regex_traitsIcEEE16_M_insert_acceptEv
FN:243,252,_ZNSt8__detail4_NFAINSt7__cxx1112regex_traitsIcEEE13_M_insert_altEllb
FN:255,264,_ZNSt8__detail4_NFAINSt7__cxx1112regex_traitsIcEEE16_M_insert_repeatEllb
FN:267,272,_ZNSt8__detail4_NFAINSt7__cxx1112regex_traitsIcEEE17_M_insert_matcherESt8functionIFbcEE
FN:275,282,_ZNSt8__detail4_NFAINSt7__cxx1112regex_traitsIcEEE23_M_insert_subexpr_beginEv
FN:285,291,_ZNSt8__detail4_NFAINSt7__cxx1112regex_traitsIcEEE21_M_insert_subexpr_endEv
FN:297,298,_ZNSt8__detail4_NFAINSt7__cxx1112regex_traitsIcEEE20_M_insert_line_beginEv
FN:301,302,_ZNSt8__detail4_NFAINSt7__cxx1112regex_traitsIcEEE18_M_insert_line_endEv
FN:305,310,_ZNSt8__detail4_NFAINSt7__cxx1112regex_traitsIcEEE20_M_insert_word_boundEb
FN:313,319,_ZNSt8__detail4_NFAINSt7__cxx1112regex_traitsIcEEE19_M_insert_lookaheadElb
FN:322,323,_ZNSt8__detail4_NFAINSt7__cxx1112regex_traitsIcEEE15_M_insert_dummyEv
FN:326,336,_ZNSt8__detail4_NFAINSt7__cxx1112regex_traitsIcEEE15_M_insert_stateENS_6_StateIcEE
FN:360,362,_ZNSt8__detail9_StateSeqINSt7__cxx1112regex_traitsIcEEEC2ERNS_4_NFAIS3_EEl
FN:364,366,_ZNSt8__detail9_StateSeqINSt7__cxx1112regex_traitsIcEEEC2ERNS_4_NFAIS3_EEll
FN:370,374,_ZNSt8__detail9_StateSeqINSt7__cxx1112regex_traitsIcEEE9_M_appendEl
FN:378,382,_ZNSt8__detail9_StateSeqINSt7__cxx1112regex_traitsIcEEE9_M_appendERKS4_
FN:98,100,_ZNSt8__detail11_State_baseC2ENS_7_OpcodeE
FNDA:0,_ZNKSt8__detail11_State_base10_M_has_altEv
FNDA:0,_ZNSt8__detail6_StateIcEC2ENS_7_OpcodeE
FNDA:0,_ZNSt8__detail6_StateIcEC2ERKS1_
FNDA:0,_ZNSt8__detail6_StateIcEC2EOS1_
FNDA:0,_ZNSt8__detail6_StateIcED2Ev
FNDA:0,_ZNKSt8__detail6_StateIcE9_M_opcodeEv
FNDA:0,_ZNKSt8__detail6_StateIcE10_M_matchesEc
FNDA:0,_ZNSt8__detail6_StateIcE14_M_get_matcherEv
FNDA:0,_ZNKSt8__detail6_StateIcE14_M_get_matcherEv
FNDA:0,_ZNSt8__detail9_NFA_baseC2ENSt15regex_constants18syntax_option_typeE
FNDA:0,_ZNSt8__detail9_NFA_baseD2Ev
FNDA:0,_ZNKSt8__detail9_NFA_base10_M_optionsEv
FNDA:0,_ZNKSt8__detail9_NFA_base8_M_startEv
FNDA:0,_ZNKSt8__detail9_NFA_base12_M_sub_countEv
FNDA:0,_ZNSt8__detail4_NFAINSt7__cxx1112regex_traitsIcEEEC2ERKSt6localeNSt15regex_constants18syntax_option_typeE
FNDA:0,_ZNSt8__detail4_NFAINSt7__cxx1112regex_traitsIcEEE16_M_insert_acceptEv
FNDA:0,_ZNSt8__detail4_NFAINSt7__cxx1112regex_traitsIcEEE13_M_insert_altEllb
FNDA:0,_ZNSt8__detail4_NFAINSt7__cxx1112regex_traitsIcEEE16_M_insert_repeatEllb
FNDA:0,_ZNSt8__detail4_NFAINSt7__cxx1112regex_traitsIcEEE17_M_insert_matcherESt8functionIFbcEE
FNDA:0,_ZNSt8__detail4_NFAINSt7__cxx1112regex_traitsIcEEE23_M_insert_subexpr_beginEv
FNDA:0,_ZNSt8__detail4_NFAINSt7__cxx1112regex_traitsIcEEE21_M_insert_subexpr_endEv
FNDA:0,_ZNSt8__detail4_NFAINSt7__cxx1112regex_traitsIcEEE20_M_insert_line_beginEv
FNDA:0,_ZNSt8__detail4_NFAINSt7__cxx1112regex_traitsIcEEE18_M_insert_line_endEv
FNDA:0,_ZNSt8__detail4_NFAINSt7__cxx1112regex_traitsIcEEE20_M_insert_word_boundEb
FNDA:0,_ZNSt8__detail4_NFAINSt7__cxx1112regex_traitsIcEEE19_M_insert_lookaheadElb
FNDA:0,_ZNSt8__detail4_NFAINSt7__cxx1112regex_traitsIcEEE15_M_insert_dummyEv
FNDA:0,_ZNSt8__detail4_NFAINSt7__cxx1112regex_traitsIcEEE15_M_insert_stateENS_6_StateIcEE
FNDA:0,_ZNSt8__detail9_StateSeqINSt7__cxx1112regex_traitsIcEEEC2ERNS_4_NFAIS3_EEl
FNDA:0,_ZNSt8__detail9_StateSeqINSt7__cxx1112regex_traitsIcEEEC2ERNS_4_NFAIS3_EEll
FNDA:0,_ZNSt8__detail9_StateSeqINSt7__cxx1112regex_traitsIcEEE9_M_appendEl
FNDA:0,_ZNSt8__detail9_StateSeqINSt7__cxx1112regex_traitsIcEEE9_M_appendERKS4_
FNDA:0,_ZNSt8__detail11_State_baseC2ENS_7_OpcodeE
FNF:32
FNH:0
DA:98,0
DA:99,0
DA:100,0
DA:104,0
DA:106,0
DA:107,0
DA:108,0
DA:133,0
DA:135,0
DA:136,0
DA:137,0
DA:139,0
DA:141,0
DA:142,0
DA:143,0
DA:144,0
DA:146,0
DA:148,0
DA:149,0
DA:150,0
DA:151,0
DA:156,0
DA:158,0
DA:159,0
DA:160,0
DA:165,0
DA:166,0
DA:169,0
DA:170,0
DA:173,0
DA:174,0
DA:177,0
DA:180,0
DA:189,0
DA:190,0
DA:191,0
DA:192,0
DA:197,0
DA:201,0
DA:202,0
DA:205,0
DA:206,0
DA:209,0
DA:210,0
DA:227,0
DA:228,0
DA:229,0
DA:236,0
DA:238,0
DA:239,0
DA:243,0
DA:246,0
DA:249,0
DA:250,0
DA:251,0
DA:252,0
DA:255,0
DA:257,0
DA:260,0
DA:261,0
DA:262,0
DA:263,0
DA:264,0
DA:267,0
DA:269,0
DA:270,0
DA:271,0
DA:272,0
DA:275,0
DA:277,0
DA:278,0
DA:279,0
DA:280,0
DA:281,0
DA:282,0
DA:285,0
DA:287,0
DA:288,0
DA:289,0
DA:290,0
DA:291,0
DA:297,0
DA:298,0
DA:301,0
DA:302,0
DA:305,0
DA:307,0
DA:308,0
DA:309,0
DA:310,0
DA:313,0
DA:315,0
DA:316,0
DA:317,0
DA:318,0
DA:319,0
DA:322,0
DA:323,0
DA:326,0
DA:328,0
DA:329,0
DA:330,0
DA:335,0
DA:360,0
DA:361,0
DA:362,0
DA:364,0
DA:365,0
DA:366,0
DA:370,0
DA:372,0
DA:373,0
DA:374,0
DA:378,0
DA:380,0
DA:381,0
DA:382,0
LF:117
LH:0
end_of_record
TN:
SF:/usr/include/c++/13/bits/regex_automaton.tcc
FN:149,174,_ZNSt8__detail4_NFAINSt7__cxx1112regex_traitsIcEEE17_M_insert_backrefEm
FN:178,190,_ZNSt8__detail4_NFAINSt7__cxx1112regex_traitsIcEEE18_M_eliminate_dummyEv
FN:195,228,_ZNSt8__detail9_StateSeqINSt7__cxx1112regex_traitsIcEEE8_M_cloneEv
FNDA:0,_ZNSt8__detail4_NFAINSt7__cxx1112regex_traitsIcEEE17_M_insert_backrefEm
FNDA:0,_ZNSt8__detail4_NFAINSt7__cxx1112regex_traitsIcEEE18_M_eliminate_dummyEv
FNDA:0,_ZNSt8__detail9_StateSeqINSt7__cxx1112regex_traitsIcEEE8_M_cloneEv
FNF:3
FNH:0
DA:149,0
DA:151,0
DA:152,0
DA:161,0
DA:162,0
DA:165,0
DA:166,0
DA:167,0
DA:170,0
DA:171,0
DA:172,0
DA:173,0
DA:174,0
DA:178,0
DA:180,0
DA:182,0
DA:184,0
DA:185,0
DA:186,0
DA:188,0
DA:190,0
DA:195,0
DA:197,0
DA:198,0
DA:199,0
DA:200,0
DA:202,0
DA:203,0
DA:204,0
DA:206,0
DA:207,0
DA:208,0
DA:209,0
DA:210,0
DA:211,0
DA:212,0
DA:213,0
DA:214,0
DA:215,0
DA:216,0
DA:218,0
DA:220,0
DA:221,0
DA:222,0
DA:223,0
DA:224,0
DA:225,0
DA:227,0
DA:228,0
LF:49
LH:0
end_of_record
TN:
SF:/usr/include/c++/13/bits/regex_compiler.h
FN:131,131,_ZNSt8__detail9_CompilerINSt7__cxx1112regex_traitsIcEEE13_BracketState3setEc
FN:134,134,_ZNKSt8__detail9_CompilerINSt7__cxx1112regex_traitsIcEEE13_BracketState3getEv
FN:137,137,_ZNSt8__detail9_CompilerINSt7__cxx1112regex_traitsIcEEE13_BracketState5resetENS5_5_TypeE
FN:144,144,_ZNKSt8__detail9_CompilerINSt7__cxx1112regex_traitsIcEEE13_BracketState10_M_is_charEv
FN:149,149,_ZNKSt8__detail9_CompilerINSt7__cxx1112regex_traitsIcEEE13_BracketState11_M_is_classEv
FN:171,176,_ZNSt8__detail9_CompilerINSt7__cxx1112regex_traitsIcEEE6_M_popEv
FN:179,196,_ZNSt8__detail9_CompilerINSt7__cxx1112regex_traitsIcEEE11_S_validateENSt15regex_constants18syntax_option_typeE
FN:217,219,_ZNSt8__detail20_RegexTranslatorBaseINSt7__cxx1112regex_traitsIcEELb0ELb1EEC2ERKS3_
FN:217,219,_ZNSt8__detail20_RegexTranslatorBaseINSt7__cxx1112regex_traitsIcEELb1ELb0EEC2ERKS3_
FN:217,219,_ZNSt8__detail20_RegexTranslatorBaseINSt7__cxx1112regex_traitsIcEELb1ELb1EEC2ERKS3_
FN:222,230,_ZNKSt8__detail20_RegexTranslatorBaseINSt7__cxx1112regex_traitsIcEELb0ELb1EE12_M_translateEc
FN:222,230,_ZNKSt8__detail20_RegexTranslatorBaseINSt7__cxx1112regex_traitsIcEELb1ELb0EE12_M_translateEc
FN:222,230,_ZNKSt8__detail20_RegexTranslatorBaseINSt7__cxx1112regex_traitsIcEELb1ELb1EE12_M_translateEc
FN:233,237,_ZNKSt8__detail20_RegexTranslatorBaseINSt7__cxx1112regex_traitsIcEELb0ELb1EE12_M_transformEc
FN:233,237,_ZNKSt8__detail20_RegexTranslatorBaseINSt7__cxx1112regex_traitsIcEELb1ELb1EE12_M_transformEc
FN:243,245,_ZNKSt8__detail20_RegexTranslatorBaseINSt7__cxx1112regex_traitsIcEELb0ELb1EE14_M_match_rangeERKNS1_12basic_stringIcSt11char_traitsIcESaIcEEESB_SB_
FN:248,256,_ZNKSt8__detail20_RegexTranslatorBaseINSt7__cxx1112regex_traitsIcEELb1ELb0EE17_M_in_range_icaseEccc
FN:248,256,_ZNKSt8__detail20_RegexTranslatorBaseINSt7__cxx1112regex_traitsIcEELb1ELb1EE17_M_in_range_icaseEccc
FN:282,283,_ZNKSt8__detail16_RegexTranslatorINSt7__cxx1112regex_traitsIcEELb1ELb0EE12_M_transformEc
FN:286,292,_ZNKSt8__detail16_RegexTranslatorINSt7__cxx1112regex_traitsIcEELb1ELb0EE14_M_match_rangeEccc
FN:308,315,_ZNKSt8__detail16_RegexTranslatorINSt7__cxx1112regex_traitsIcEELb1ELb1EE14_M_match_rangeERKNS1_12basic_stringIcSt11char_traitsIcESaIcEEESB_SB_
FN:326,327,_ZNSt8__detail16_RegexTranslatorINSt7__cxx1112regex_traitsIcEELb0ELb0EEC2ERKS3_
FN:330,331,_ZNKSt8__detail16_RegexTranslatorINSt7__cxx1112regex_traitsIcEELb0ELb0EE12_M_translateEc
FN:334,335,_ZNKSt8__detail16_RegexTranslatorINSt7__cxx1112regex_traitsIcEELb0ELb0EE12_M_transformEc
FN:338,339,_ZNKSt8__detail16_RegexTranslatorINSt7__cxx1112regex_traitsIcEELb0ELb0EE14_M_match_rangeEccc
FN:352,354,_ZNSt8__detail11_AnyMatcherINSt7__cxx1112regex_traitsIcEELb0ELb0ELb0EEC2ERKS3_
FN:352,354,_ZNSt8__detail11_AnyMatcherINSt7__cxx1112regex_traitsIcEELb0ELb0ELb1EEC2ERKS3_
FN:352,354,_ZNSt8__detail11_AnyMatcherINSt7__cxx1112regex_traitsIcEELb0ELb1ELb0EEC2ERKS3_
FN:352,354,_ZNSt8__detail11_AnyMatcherINSt7__cxx1112regex_traitsIcEELb0ELb1ELb1EEC2ERKS3_
FN:357,361,_ZNKSt8__detail11_AnyMatcherINSt7__cxx1112regex_traitsIcEELb0ELb0ELb0EEclEc
FN:357,361,_ZNKSt8__detail11_AnyMatcherINSt7__cxx1112regex_traitsIcEELb0ELb0ELb1EEclEc
FN:357,361,_ZNKSt8__detail11_AnyMatcherINSt7__cxx1112regex_traitsIcEELb0ELb1ELb0EEclEc
FN:357,361,_ZNKSt8__detail11_AnyMatcherINSt7__cxx1112regex_traitsIcEELb0ELb1ELb1EEclEc
FN:373,375,_ZNSt8__detail11_AnyMatcherINSt7__cxx1112regex_traitsIcEELb1ELb0ELb0EEC2ERKS3_
FN:373,375,_ZNSt8__detail11_AnyMatcherINSt7__cxx1112regex_traitsIcEELb1ELb0ELb1EEC2ERKS3_
FN:373,375,_ZNSt8__detail11_AnyMatcherINSt7__cxx1112regex_traitsIcEELb1ELb1ELb0EEC2ERKS3_
FN:373,375,_ZNSt8__detail11_AnyMatcherINSt7__cxx1112regex_traitsIcEELb1ELb1ELb1EEC2ERKS3_
FN:378,379,_ZNKSt8__detail11_AnyMatcherINSt7__cxx1112regex_traitsIcEELb1ELb0ELb0EEclEc
FN:378,379,_ZNKSt8__detail11_AnyMatcherINSt7__cxx1112regex_traitsIcEELb1ELb0ELb1EEclEc
FN:378,379,_ZNKSt8__detail11_AnyMatcherINSt7__cxx1112regex_traitsIcEELb1ELb1ELb0EEclEc
FN:378,379,_ZNKSt8__detail11_AnyMatcherINSt7__cxx1112regex_traitsIcEELb1ELb1ELb1EEclEc
FN:382,388,_ZNKSt8__detail11_AnyMatcherINSt7__cxx1112regex_traitsIcEELb1ELb0ELb0EE8_M_applyEcSt17integral_constantIbLb1EE
FN:382,388,_ZNKSt8__detail11_AnyMatcherINSt7__cxx1112regex_traitsIcEELb1ELb0ELb1EE8_M_applyEcSt17integral_constantIbLb1EE
FN:382,388,_ZNKSt8__detail11_AnyMatcherINSt7__cxx1112regex_traitsIcEELb1ELb1ELb0EE8_M_applyEcSt17integral_constantIbLb1EE
FN:382,388,_ZNKSt8__detail11_AnyMatcherINSt7__cxx1112regex_traitsIcEELb1ELb1ELb1EE8_M_applyEcSt17integral_constantIbLb1EE
FN:410,412,_ZNSt8__detail12_CharMatcherINSt7__cxx1112regex_traitsIcEELb0ELb0EEC2EcRKS3_
FN:410,412,_ZNSt8__detail12_CharMatcherINSt7__cxx1112regex_traitsIcEELb0ELb1EEC2EcRKS3_
FN:410,412,_ZNSt8__detail12_CharMatcherINSt7__cxx1112regex_traitsIcEELb1ELb0EEC2EcRKS3_
FN:410,412,_ZNSt8__detail12_CharMatcherINSt7__cxx1112regex_traitsIcEELb1ELb1EEC2EcRKS3_
FN:415,416,_ZNKSt8__detail12_CharMatcherINSt7__cxx1112regex_traitsIcEELb0ELb0EEclEc
FN:415,416,_ZNKSt8__detail12_CharMatcherINSt7__cxx1112regex_traitsIcEELb0ELb1EEclEc
FN:415,416,_ZNKSt8__detail12_CharMatcherINSt7__cxx1112regex_traitsIcEELb1ELb0EEclEc
FN:415,416,_ZNKSt8__detail12_CharMatcherINSt7__cxx1112regex_traitsIcEELb1ELb1EEclEc
FN:434,438,_ZNSt8__detail15_BracketMatcherINSt7__cxx1112regex_traitsIcEELb0ELb0EEC2EbRKS3_
FN:434,438,_ZNSt8__detail15_BracketMatcherINSt7__cxx1112regex_traitsIcEELb0ELb1EEC2EbRKS3_
FN:434,438,_ZNSt8__detail15_BracketMatcherINSt7__cxx1112regex_traitsIcEELb1ELb0EEC2EbRKS3_
FN:434,438,_ZNSt8__detail15_BracketMatcherINSt7__cxx1112regex_traitsIcEELb1ELb1EEC2EbRKS3_
FN:441,445,_ZNKSt8__detail15_BracketMatcherINSt7__cxx1112regex_traitsIcEELb0ELb0EEclEc
FN:441,445,_ZNKSt8__detail15_BracketMatcherINSt7__cxx1112regex_traitsIcEELb0ELb1EEclEc
FN:441,445,_ZNKSt8__detail15_BracketMatcherINSt7__cxx1112regex_traitsIcEELb1ELb0EEclEc
FN:441,445,_ZNKSt8__detail15_BracketMatcherINSt7__cxx1112regex_traitsIcEELb1ELb1EEclEc
FN:448,452,_ZNSt8__detail15_BracketMatcherINSt7__cxx1112regex_traitsIcEELb0ELb0EE11_M_add_charEc
FN:448,452,_ZNSt8__detail15_BracketMatcherINSt7__cxx1112regex_traitsIcEELb0ELb1EE11_M_add_charEc
FN:448,452,_ZNSt8__detail15_BracketMatcherINSt7__cxx1112regex_traitsIcEELb1ELb0EE11_M_add_charEc
FN:448,452,_ZNSt8__detail15_BracketMatcherINSt7__cxx1112regex_traitsIcEELb1ELb1EE11_M_add_charEc
FN:455,465,_ZNSt8__detail15_BracketMatcherINSt7__cxx1112regex_traitsIcEELb0ELb0EE22_M_add_collate_elementERKNS1_12basic_stringIcSt11char_traitsIcESaIcEEE
FN:455,465,_ZNSt8__detail15_BracketMatcherINSt7__cxx1112regex_traitsIcEELb0ELb1EE22_M_add_collate_elementERKNS1_12basic_stringIcSt11char_traitsIcESaIcEEE
FN:455,465,_ZNSt8__detail15_BracketMatcherINSt7__cxx1112regex_traitsIcEELb1ELb0EE22_M_add_collate_elementERKNS1_12basic_stringIcSt11char_traitsIcESaIcEEE
FN:455,465,_ZNSt8__detail15_BracketMatcherINSt7__cxx1112regex_traitsIcEELb1ELb1EE22_M_add_collate_elementERKNS1_12basic_stringIcSt11char_traitsIcESaIcEEE
FN:468,479,_ZNSt8__detail15_BracketMatcherINSt7__cxx1112regex_traitsIcEELb0ELb0EE24_M_add_equivalence_classERKNS1_12basic_stringIcSt11char_traitsIcESaIcEEE
FN:468,479,_ZNSt8__detail15_BracketMatcherINSt7__cxx1112regex_traitsIcEELb0ELb1EE24_M_add_equivalence_classERKNS1_12basic_stringIcSt11char_traitsIcESaIcEEE
FN:468,479,_ZNSt8__detail15_BracketMatcherINSt7__cxx1112regex_traitsIcEELb1ELb0EE24_M_add_equivalence_classERKNS1_12basic_stringIcSt11char_traitsIcESaIcEEE
FN:468,479,_ZNSt8__detail15_BracketMatcherINSt7__cxx1112regex_traitsIcEELb1ELb1EE24_M_add_equivalence_classERKNS1_12basic_stringIcSt11char_traitsIcESaIcEEE
FN:483,496,_ZNSt8__detail15_BracketMatcherINSt7__cxx1112regex_traitsIcEELb0ELb0EE22_M_add_character_classERKNS1_12basic_stringIcSt11char_traitsIcESaIcEEEb
FN:483,496,_ZNSt8__detail15_BracketMatcherINSt7__cxx1112regex_traitsIcEELb0ELb1EE22_M_add_character_classERKNS1_12basic_stringIcSt11char_traitsIcESaIcEEEb
FN:483,496,_ZNSt8__detail15_BracketMatcherINSt7__cxx1112regex_traitsIcEELb1ELb0EE22_M_add_character_classERKNS1_12basic_stringIcSt11char_traitsIcESaIcEEEb
FN:483,496,_ZNSt8__detail15_BracketMatcherINSt7__cxx1112regex_traitsIcEELb1ELb1EE22_M_add_character_classERKNS1_12basic_stringIcSt11char_traitsIcESaIcEEEb
FN:499,507,_ZNSt8__detail15_BracketMatcherINSt7__cxx1112regex_traitsIcEELb0ELb0EE13_M_make_rangeEcc
FN:499,507,_ZNSt8__detail15_BracketMatcherINSt7__cxx1112regex_traitsIcEELb0ELb1EE13_M_make_rangeEcc
FN:499,507,_ZNSt8__detail15_BracketMatcherINSt7__cxx1112regex_traitsIcEELb1ELb0EE13_M_make_rangeEcc
FN:499,507,_ZNSt8__detail15_BracketMatcherINSt7__cxx1112regex_traitsIcEELb1ELb1EE13_M_make_rangeEcc
FN:510,517,_ZNSt8__detail15_BracketMatcherINSt7__cxx1112regex_traitsIcEELb0ELb0EE8_M_readyEv
FN:510,517,_ZNSt8__detail15_BracketMatcherINSt7__cxx1112regex_traitsIcEELb0ELb1EE8_M_readyEv
FN:510,517,_ZNSt8__detail15_BracketMatcherINSt7__cxx1112regex_traitsIcEELb1ELb0EE8_M_readyEv
FN:510,517,_ZNSt8__detail15_BracketMatcherINSt7__cxx1112regex_traitsIcEELb1ELb1EE8_M_readyEv
FN:537,538,_ZNKSt8__detail15_BracketMatcherINSt7__cxx1112regex_traitsIcEELb0ELb0EE8_M_applyEcSt17integral_constantIbLb1EE
FN:537,538,_ZNKSt8__detail15_BracketMatcherINSt7__cxx1112regex_traitsIcEELb0ELb1EE8_M_applyEcSt17integral_constantIbLb1EE
FN:537,538,_ZNKSt8__detail15_BracketMatcherINSt7__cxx1112regex_traitsIcEELb1ELb0EE8_M_applyEcSt17integral_constantIbLb1EE
FN:537,538,_ZNKSt8__detail15_BracketMatcherINSt7__cxx1112regex_traitsIcEELb1ELb1EE8_M_applyEcSt17integral_constantIbLb1EE
FN:541,545,_ZNSt8__detail15_BracketMatcherINSt7__cxx1112regex_traitsIcEELb0ELb0EE13_M_make_cacheESt17integral_constantIbLb1EE
FN:541,545,_ZNSt8__detail15_BracketMatcherINSt7__cxx1112regex_traitsIcEELb0ELb1EE13_M_make_cacheESt17integral_constantIbLb1EE
FN:541,545,_ZNSt8__detail15_BracketMatcherINSt7__cxx1112regex_traitsIcEELb1ELb0EE13_M_make_cacheESt17integral_constantIbLb1EE
FN:541,545,_ZNSt8__detail15_BracketMatcherINSt7__cxx1112regex_traitsIcEELb1ELb1EE13_M_make_cacheESt17integral_constantIbLb1EE
FN:68,69,_ZNSt8__detail9_CompilerINSt7__cxx1112regex_traitsIcEEE10_M_get_nfaEv
FNDA:0,_ZNSt8__detail9_CompilerINSt7__cxx1112regex_traitsIcEEE13_BracketState3setEc
FNDA:0,_ZNKSt8__detail9_CompilerINSt7__cxx1112regex_traitsIcEEE13_BracketState3getEv
FNDA:0,_ZNSt8__detail9_CompilerINSt7__cxx1112regex_traitsIcEEE13_BracketState5resetENS5_5_TypeE
FNDA:0,_ZNKSt8__detail9_CompilerINSt7__cxx1112regex_traitsIcEEE13_BracketState10_M_is_charEv
FNDA:0,_ZNKSt8__detail9_CompilerINSt7__cxx1112regex_traitsIcEEE13_BracketState11_M_is_classEv
FNDA:0,_ZNSt8__detail9_CompilerINSt7__cxx1112regex_traitsIcEEE6_M_popEv
FNDA:0,_ZNSt8__detail9_CompilerINSt7__cxx1112regex_traitsIcEEE11_S_validateENSt15regex_constants18syntax_option_typeE
FNDA:0,_ZNSt8__detail20_RegexTranslatorBaseINSt7__cxx1112regex_traitsIcEELb0ELb1EEC2ERKS3_
FNDA:0,_ZNSt8__detail20_RegexTranslatorBaseINSt7__cxx1112regex_traitsIcEELb1ELb0EEC2ERKS3_
FNDA:0,_ZNSt8__detail20_RegexTranslatorBaseINSt7__cxx1112regex_traitsIcEELb1ELb1EEC2ERKS3_
FNDA:0,_ZNKSt8__detail20_RegexTranslatorBaseINSt7__cxx1112regex_traitsIcEELb0ELb1EE12_M_translateEc
FNDA:0,_ZNKSt8__detail20_RegexTranslatorBaseINSt7__cxx1112regex_traitsIcEELb1ELb0EE12_M_translateEc
FNDA:0,_ZNKSt8__detail20_RegexTranslatorBaseINSt7__cxx1112regex_traitsIcEELb1ELb1EE12_M_translateEc
FNDA:0,_ZNKSt8__detail20_RegexTranslatorBaseINSt7__cxx1112regex_traitsIcEELb0ELb1EE12_M_transformEc
FNDA:0,_ZNKSt8__detail20_RegexTranslatorBaseINSt7__cxx1112regex_traitsIcEELb1ELb1EE12_M_transformEc
FNDA:0,_ZNKSt8__detail20_RegexTranslatorBaseINSt7__cxx1112regex_traitsIcEELb0ELb1EE14_M_match_rangeERKNS1_12basic_stringIcSt11char_traitsIcESaIcEEESB_SB_
FNDA:0,_ZNKSt8__detail20_RegexTranslatorBaseINSt7__cxx1112regex_traitsIcEELb1ELb0EE17_M_in_range_icaseEccc
FNDA:0,_ZNKSt8__detail20_RegexTranslatorBaseINSt7__cxx1112regex_traitsIcEELb1ELb1EE17_M_in_range_icaseEccc
FNDA:0,_ZNKSt8__detail16_RegexTranslatorINSt7__cxx1112regex_traitsIcEELb1ELb0EE12_M_transformEc
FNDA:0,_ZNKSt8__detail16_RegexTranslatorINSt7__cxx1112regex_traitsIcEELb1ELb0EE14_M_match_rangeEccc
FNDA:0,_ZNKSt8__detail16_RegexTranslatorINSt7__cxx1112regex_traitsIcEELb1ELb1EE14_M_match_rangeERKNS1_12basic_stringIcSt11char_traitsIcESaIcEEESB_SB_
FNDA:0,_ZNSt8__detail16_RegexTranslatorINSt7__cxx1112regex_traitsIcEELb0ELb0EEC2ERKS3_
FNDA:0,_ZNKSt8__detail16_RegexTranslatorINSt7__cxx1112regex_traitsIcEELb0ELb0EE12_M_translateEc
FNDA:0,_ZNKSt8__detail16_RegexTranslatorINSt7__cxx1112regex_traitsIcEELb0ELb0EE12_M_transformEc
FNDA:0,_ZNKSt8__detail16_RegexTranslatorINSt7__cxx1112regex_traitsIcEELb0ELb0EE14_M_match_rangeEccc
FNDA:0,_ZNSt8__detail11_AnyMatcherINSt7__cxx1112regex_traitsIcEELb0ELb0ELb0EEC2ERKS3_
FNDA:0,_ZNSt8__detail11_AnyMatcherINSt7__cxx1112regex_traitsIcEELb0ELb0ELb1EEC2ERKS3_
FNDA:0,_ZNSt8__detail11_AnyMatcherINSt7__cxx1112regex_traitsIcEELb0ELb1ELb0EEC2ERKS3_
FNDA:0,_ZNSt8__detail11_AnyMatcherINSt7__cxx1112regex_traitsIcEELb0ELb1ELb1EEC2ERKS3_
FNDA:0,_ZNKSt8__detail11_AnyMatcherINSt7__cxx1112regex_traitsIcEELb0ELb0ELb0EEclEc
FNDA:0,_ZNKSt8__detail11_AnyMatcherINSt7__cxx1112regex_traitsIcEELb0ELb0ELb1EEclEc
FNDA:0,_ZNKSt8__detail11_AnyMatcherINSt7__cxx1112regex_traitsIcEELb0ELb1ELb0EEclEc
FNDA:0,_ZNKSt8__detail11_AnyMatcherINSt7__cxx1112regex_traitsIcEELb0ELb1ELb1EEclEc
FNDA:0,_ZNSt8__detail11_AnyMatcherINSt7__cxx1112regex_traitsIcEELb1ELb0ELb0EEC2ERKS3_
FNDA:0,_ZNSt8__detail11_AnyMatcherINSt7__cxx1112regex_traitsIcEELb1ELb0ELb1EEC2ERKS3_
FNDA:0,_ZNSt8__detail11_AnyMatcherINSt7__cxx1112regex_traitsIcEELb1ELb1ELb0EEC2ERKS3_
FNDA:0,_ZNSt8__detail11_AnyMatcherINSt7__cxx1112regex_traitsIcEELb1ELb1ELb1EEC2ERKS3_
FNDA:0,_ZNKSt8__detail11_AnyMatcherINSt7__cxx1112regex_traitsIcEELb1ELb0ELb0EEclEc
FNDA:0,_ZNKSt8__detail11_AnyMatcherINSt7__cxx1112regex_traitsIcEELb1ELb0ELb1EEclEc
FNDA:0,_ZNKSt8__detail11_AnyMatcherINSt7__cxx1112regex_traitsIcEELb1ELb1ELb0EEclEc
FNDA:0,_ZNKSt8__detail11_AnyMatcherINSt7__cxx1112regex_traitsIcEELb1ELb1ELb1EEclEc
FNDA:0,_ZNKSt8__detail11_AnyMatcherINSt7__cxx1112regex_traitsIcEELb1ELb0ELb0EE8_M_applyEcSt17integral_constantIbLb1EE
FNDA:0,_ZNKSt8__detail11_AnyMatcherINSt7__cxx1112regex_traitsIcEELb1ELb0ELb1EE8_M_applyEcSt17integral_constantIbLb1EE
FNDA:0,_ZNKSt8__detail11_AnyMatcherINSt7__cxx1112regex_traitsIcEELb1ELb1ELb0EE8_M_applyEcSt17integral_constantIbLb1EE
FNDA:0,_ZNKSt8__detail11_AnyMatcherINSt7__cxx1112regex_traitsIcEELb1ELb1ELb1EE8_M_applyEcSt17integral_constantIbLb1EE
FNDA:0,_ZNSt8__detail12_CharMatcherINSt7__cxx1112regex_traitsIcEELb0ELb0EEC2EcRKS3_
FNDA:0,_ZNSt8__detail12_CharMatcherINSt7__cxx1112regex_traitsIcEELb0ELb1EEC2EcRKS3_
FNDA:0,_ZNSt8__detail12_CharMatcherINSt7__cxx1112regex_traitsIcEELb1ELb0EEC2EcRKS3_
FNDA:0,_ZNSt8__detail12_CharMatcherINSt7__cxx1112regex_traitsIcEELb1ELb1EEC2EcRKS3_
FNDA:0,_ZNKSt8__detail12_CharMatcherINSt7__cxx1112regex_traitsIcEELb0ELb0EEclEc
FNDA:0,_ZNKSt8__detail12_CharMatcherINSt7__cxx1112regex_traitsIcEELb0ELb1EEclEc
FNDA:0,_ZNKSt8__detail12_CharMatcherINSt7__cxx1112regex_traitsIcEELb1ELb0EEclEc
FNDA:0,_ZNKSt8__detail12_CharMatcherINSt7__cxx1112regex_traitsIcEELb1ELb1EEclEc
FNDA:0,_ZNSt8__detail15_BracketMatcherINSt7__cxx1112regex_traitsIcEELb0ELb0EEC2EbRKS3_
FNDA:0,_ZNSt8__detail15_BracketMatcherINSt7__cxx1112regex_traitsIcEELb0ELb1EEC2EbRKS3_
FNDA:0,_ZNSt8__detail15_BracketMatcherINSt7__cxx1112regex_traitsIcEELb1ELb0EEC2EbRKS3_
FNDA:0,_ZNSt8__detail15_BracketMatcherINSt7__cxx1112regex_traitsIcEELb1ELb1EEC2EbRKS3_
FNDA:0,_ZNKSt8__detail15_BracketMatcherINSt7__cxx1112regex_traitsIcEELb0ELb0EEclEc
FNDA:0,_ZNKSt8__detail15_BracketMatcherINSt7__cxx1112regex_traitsIcEELb0ELb1EEclEc
FNDA:0,_ZNKSt8__detail15_BracketMatcherINSt7__cxx1112regex_traitsIcEELb1ELb0EEclEc
FNDA:0,_ZNKSt8__detail15_BracketMatcherINSt7__cxx1112regex_traitsIcEELb1ELb1EEclEc
FNDA:0,_ZNSt8__detail15_BracketMatcherINSt7__cxx1112regex_traitsIcEELb0ELb0EE11_M_add_charEc
FNDA:0,_ZNSt8__detail15_BracketMatcherINSt7__cxx1112regex_traitsIcEELb0ELb1EE11_M_add_charEc
FNDA:0,_ZNSt8__detail15_BracketMatcherINSt7__cxx1112regex_traitsIcEELb1ELb0EE11_M_add_charEc
FNDA:0,_ZNSt8__detail15_BracketMatcherINSt7__cxx1112regex_traitsIcEELb1ELb1EE11_M_add_charEc
FNDA:0,_ZNSt8__detail15_BracketMatcherINSt7__cxx1112regex_traitsIcEELb0ELb0EE22_M_add_collate_elementERKNS1_12basic_stringIcSt11char_traitsIcESaIcEEE
FNDA:0,_ZNSt8__detail15_BracketMatcherINSt7__cxx1112regex_traitsIcEELb0ELb1EE22_M_add_collate_elementERKNS1_12basic_stringIcSt11char_traitsIcESaIcEEE
FNDA:0,_ZNSt8__detail15_BracketMatcherINSt7__cxx1112regex_traitsIcEELb1ELb0EE22_M_add_collate_elementERKNS1_12basic_stringIcSt11char_traitsIcESaIcEEE
FNDA:0,_ZNSt8__detail15_BracketMatcherINSt7__cxx1112regex_traitsIcEELb1ELb1EE22_M_add_collate_elementERKNS1_12basic_stringIcSt11char_traitsIcESaIcEEE
FNDA:0,_ZNSt8__detail15_BracketMatcherINSt7__cxx1112regex_traitsIcEELb0ELb0EE24_M_add_equivalence_classERKNS1_12basic_stringIcSt11char_traitsIcESaIcEEE
FNDA:0,_ZNSt8__detail15_BracketMatcherINSt7__cxx1112regex_traitsIcEELb0ELb1EE24_M_add_equivalence_classERKNS1_12basic_stringIcSt11char_traitsIcESaIcEEE
FNDA:0,_ZNSt8__detail15_BracketMatcherINSt7__cxx1112regex_traitsIcEELb1ELb0EE24_M_add_equivalence_classERKNS1_12basic_stringIcSt11char_traitsIcESaIcEEE
FNDA:0,_ZNSt8__detail15_BracketMatcherINSt7__cxx1112regex_traitsIcEELb1ELb1EE24_M_add_equivalence_classERKNS1_12basic_stringIcSt11char_traitsIcESaIcEEE
FNDA:0,_ZNSt8__detail15_BracketMatcherINSt7__cxx1112regex_traitsIcEELb0ELb0EE22_M_add_character_classERKNS1_12basic_stringIcSt11char_traitsIcESaIcEEEb
FNDA:0,_ZNSt8__detail15_BracketMatcherINSt7__cxx1112regex_traitsIcEELb0ELb1EE22_M_add_character_classERKNS1_12basic_stringIcSt11char_traitsIcESaIcEEEb
FNDA:0,_ZNSt8__detail15_BracketMatcherINSt7__cxx1112regex_traitsIcEELb1ELb0EE22_M_add_character_classERKNS1_12basic_stringIcSt11char_traitsIcESaIcEEEb
FNDA:0,_ZNSt8__detail15_BracketMatcherINSt7__cxx1112regex_traitsIcEELb1ELb1EE22_M_add_character_classERKNS1_12basic_stringIcSt11char_traitsIcESaIcEEEb
FNDA:0,_ZNSt8__detail15_BracketMatcherINSt7__cxx1112regex_traitsIcEELb0ELb0EE13_M_make_rangeEcc
FNDA:0,_ZNSt8__detail15_BracketMatcherINSt7__cxx1112regex_traitsIcEELb0ELb1EE13_M_make_rangeEcc
FNDA:0,_ZNSt8__detail15_BracketMatcherINSt7__cxx1112regex_traitsIcEELb1ELb0EE13_M_make_rangeEcc
FNDA:0,_ZNSt8__detail15_BracketMatcherINSt7__cxx1112regex_traitsIcEELb1ELb1EE13_M_make_rangeEcc
FNDA:0,_ZNSt8__detail15_BracketMatcherINSt7__cxx1112regex_traitsIcEELb0ELb0EE8_M_readyEv
FNDA:0,_ZNSt8__detail15_BracketMatcherINSt7__cxx1112regex_traitsIcEELb0ELb1EE8_M_readyEv
FNDA:0,_ZNSt8__detail15_BracketMatcherINSt7__cxx1112regex_traitsIcEELb1ELb0EE8_M_readyEv
FNDA:0,_ZNSt8__detail15_BracketMatcherINSt7__cxx1112regex_traitsIcEELb1ELb1EE8_M_readyEv
FNDA:0,_ZNKSt8__detail15_BracketMatcherINSt7__cxx1112regex_traitsIcEELb0ELb0EE8_M_applyEcSt17integral_constantIbLb1EE
FNDA:0,_ZNKSt8__detail15_BracketMatcherINSt7__cxx1112regex_traitsIcEELb0ELb1EE8_M_applyEcSt17integral_constantIbLb1EE
FNDA:0,_ZNKSt8__detail15_BracketMatcherINSt7__cxx1112regex_traitsIcEELb1ELb0EE8_M_applyEcSt17integral_constantIbLb1EE
FNDA:0,_ZNKSt8__detail15_BracketMatcherINSt7__cxx1112regex_traitsIcEELb1ELb1EE8_M_applyEcSt17integral_constantIbLb1EE
FNDA:0,_ZNSt8__detail15_BracketMatcherINSt7__cxx1112regex_traitsIcEELb0ELb0EE13_M_make_cacheESt17integral_constantIbLb1EE
FNDA:0,_ZNSt8__detail15_BracketMatcherINSt7__cxx1112regex_traitsIcEELb0ELb1EE13_M_make_cacheESt17integral_constantIbLb1EE
FNDA:0,_ZNSt8__detail15_BracketMatcherINSt7__cxx1112regex_traitsIcEELb1ELb0EE13_M_make_cacheESt17integral_constantIbLb1EE
FNDA:0,_ZNSt8__detail15_BracketMatcherINSt7__cxx1112regex_traitsIcEELb1ELb1EE13_M_make_cacheESt17integral_constantIbLb1EE
FNDA:0,_ZNSt8__detail9_CompilerINSt7__cxx1112regex_traitsIcEEE10_M_get_nfaEv
FNF:94
FNH:0
DA:68,0
DA:69,0
DA:131,0
DA:134,0
DA:137,0
DA:144,0
DA:149,0
DA:171,0
DA:173,0
DA:174,0
DA:175,0
DA:179,0
DA:182,0
DA:184,0
DA:190,0
DA:191,0
DA:192,0
DA:193,0
DA:194,0
DA:217,0
DA:218,0
DA:219,0
DA:222,0
DA:225,0
DA:227,0
DA:233,0
DA:235,0
DA:236,0
DA:237,0
DA:243,0
DA:245,0
DA:248,0
DA:251,0
DA:252,0
DA:253,0
DA:254,0
DA:255,0
DA:282,0
DA:283,0
DA:286,0
DA:291,0
DA:308,0
DA:311,0
DA:312,0
DA:313,0
DA:314,0
DA:326,0
DA:327,0
DA:330,0
DA:331,0
DA:334,0
DA:335,0
DA:338,0
DA:339,0
DA:352,0
DA:353,0
DA:354,0
DA:357,0
DA:359,0
DA:360,0
DA:373,0
DA:374,0
DA:375,0
DA:378,0
DA:379,0
DA:382,0
DA:384,0
DA:385,0
DA:386,0
DA:387,0
DA:410,0
DA:411,0
DA:412,0
DA:415,0
DA:416,0
DA:434,0
DA:436,0
DA:437,0
DA:438,0
DA:441,0
DA:444,0
DA:448,0
DA:450,0
DA:452,0
DA:455,0
DA:457,0
DA:458,0
DA:459,0
DA:460,0
DA:462,0
DA:464,0
DA:465,0
DA:468,0
DA:470,0
DA:471,0
DA:472,0
DA:473,0
DA:475,0
DA:476,0
DA:477,0
DA:479,0
DA:483,0
DA:485,0
DA:486,0
DA:488,0
DA:489,0
DA:491,0
DA:492,0
DA:494,0
DA:496,0
DA:499,0
DA:501,0
DA:502,0
DA:504,0
DA:505,0
DA:507,0
DA:510,0
DA:512,0
DA:513,0
DA:514,0
DA:515,0
DA:517,0
DA:537,0
DA:538,0
DA:541,0
DA:543,0
DA:544,0
DA:545,0
LF:128
LH:0
end_of_record
TN:
SF:/usr/include/c++/13/bits/regex_compiler.tcc
FN:112,124,_ZNSt8__detail9_CompilerINSt7__cxx1112regex_traitsIcEEE14_M_alternativeEv
FN:128,140,_ZNSt8__detail9_CompilerINSt7__cxx1112regex_traitsIcEEE7_M_termEv
FN:144,171,_ZNSt8__detail9_CompilerINSt7__cxx1112regex_traitsIcEEE12_M_assertionEv
FN:175,282,_ZNSt8__detail9_CompilerINSt7__cxx1112regex_traitsIcEEE13_M_quantifierEv
FN:179,179,_ZZNSt8__detail9_CompilerINSt7__cxx1112regex_traitsIcEEE13_M_quantifierEvENKUlvE_clEv
FN:300,339,_ZNSt8__detail9_CompilerINSt7__cxx1112regex_traitsIcEEE7_M_atomEv
FN:343,352,_ZNSt8__detail9_CompilerINSt7__cxx1112regex_traitsIcEEE21_M_bracket_expressionEv
FN:358,365,_ZNSt8__detail9_CompilerINSt7__cxx1112regex_traitsIcEEE26_M_insert_any_matcher_ecmaILb0ELb0EEEvv
FN:358,365,_ZNSt8__detail9_CompilerINSt7__cxx1112regex_traitsIcEEE26_M_insert_any_matcher_ecmaILb0ELb1EEEvv
FN:358,365,_ZNSt8__detail9_CompilerINSt7__cxx1112regex_traitsIcEEE26_M_insert_any_matcher_ecmaILb1ELb0EEEvv
FN:358,365,_ZNSt8__detail9_CompilerINSt7__cxx1112regex_traitsIcEEE26_M_insert_any_matcher_ecmaILb1ELb1EEEvv
FN:370,377,_ZNSt8__detail9_CompilerINSt7__cxx1112regex_traitsIcEEE27_M_insert_any_matcher_posixILb0ELb0EEEvv
FN:370,377,_ZNSt8__detail9_CompilerINSt7__cxx1112regex_traitsIcEEE27_M_insert_any_matcher_posixILb0ELb1EEEvv
FN:370,377,_ZNSt8__detail9_CompilerINSt7__cxx1112regex_traitsIcEEE27_M_insert_any_matcher_posixILb1ELb0EEEvv
FN:370,377,_ZNSt8__detail9_CompilerINSt7__cxx1112regex_traitsIcEEE27_M_insert_any_matcher_posixILb1ELb1EEEvv
FN:382,389,_ZNSt8__detail9_CompilerINSt7__cxx1112regex_traitsIcEEE22_M_insert_char_matcherILb0ELb0EEEvv
FN:382,389,_ZNSt8__detail9_CompilerINSt7__cxx1112regex_traitsIcEEE22_M_insert_char_matcherILb0ELb1EEEvv
FN:382,389,_ZNSt8__detail9_CompilerINSt7__cxx1112regex_traitsIcEEE22_M_insert_char_matcherILb1ELb0EEEvv
FN:382,389,_ZNSt8__detail9_CompilerINSt7__cxx1112regex_traitsIcEEE22_M_insert_char_matcherILb1ELb1EEEvv
FN:394,404,_ZNSt8__detail9_CompilerINSt7__cxx1112regex_traitsIcEEE33_M_insert_character_class_matcherILb0ELb0EEEvv
FN:394,404,_ZNSt8__detail9_CompilerINSt7__cxx1112regex_traitsIcEEE33_M_insert_character_class_matcherILb0ELb1EEEvv
FN:394,404,_ZNSt8__detail9_CompilerINSt7__cxx1112regex_traitsIcEEE33_M_insert_character_class_matcherILb1ELb0EEEvv
FN:394,404,_ZNSt8__detail9_CompilerINSt7__cxx1112regex_traitsIcEEE33_M_insert_character_class_matcherILb1ELb1EEEvv
FN:409,427,_ZNSt8__detail9_CompilerINSt7__cxx1112regex_traitsIcEEE25_M_insert_bracket_matcherILb0ELb0EEEvb
FN:409,427,_ZNSt8__detail9_CompilerINSt7__cxx1112regex_traitsIcEEE25_M_insert_bracket_matcherILb0ELb1EEEvb
FN:409,427,_ZNSt8__detail9_CompilerINSt7__cxx1112regex_traitsIcEEE25_M_insert_bracket_matcherILb1ELb0EEEvb
FN:409,427,_ZNSt8__detail9_CompilerINSt7__cxx1112regex_traitsIcEEE25_M_insert_bracket_matcherILb1ELb1EEEvb
FN:432,544,_ZNSt8__detail9_CompilerINSt7__cxx1112regex_traitsIcEEE18_M_expression_termILb0ELb0EEEbRNS4_13_BracketStateERNS_15_BracketMatcherIS3_XT_EXT0_EEE
FN:432,544,_ZNSt8__detail9_CompilerINSt7__cxx1112regex_traitsIcEEE18_M_expression_termILb0ELb1EEEbRNS4_13_BracketStateERNS_15_BracketMatcherIS3_XT_EXT0_EEE
FN:432,544,_ZNSt8__detail9_CompilerINSt7__cxx1112regex_traitsIcEEE18_M_expression_termILb1ELb0EEEbRNS4_13_BracketStateERNS_15_BracketMatcherIS3_XT_EXT0_EEE
FN:432,544,_ZNSt8__detail9_CompilerINSt7__cxx1112regex_traitsIcEEE18_M_expression_termILb1ELb1EEEbRNS4_13_BracketStateERNS_15_BracketMatcherIS3_XT_EXT0_EEE
FN:440,440,_ZZNSt8__detail9_CompilerINSt7__cxx1112regex_traitsIcEEE18_M_expression_termILb0ELb0EEEbRNS4_13_BracketStateERNS_15_BracketMatcherIS3_XT_EXT0_EEEENKUlcE_clEc
FN:440,440,_ZZNSt8__detail9_CompilerINSt7__cxx1112regex_traitsIcEEE18_M_expression_termILb0ELb1EEEbRNS4_13_BracketStateERNS_15_BracketMatcherIS3_XT_EXT0_EEEENKUlcE_clEc
FN:440,440,_ZZNSt8__detail9_CompilerINSt7__cxx1112regex_traitsIcEEE18_M_expression_termILb1ELb0EEEbRNS4_13_BracketStateERNS_15_BracketMatcherIS3_XT_EXT0_EEEENKUlcE_clEc
FN:440,440,_ZZNSt8__detail9_CompilerINSt7__cxx1112regex_traitsIcEEE18_M_expression_termILb1ELb1EEEbRNS4_13_BracketStateERNS_15_BracketMatcherIS3_XT_EXT0_EEEENKUlcE_clEc
FN:447,447,_ZZNSt8__detail9_CompilerINSt7__cxx1112regex_traitsIcEEE18_M_expression_termILb0ELb0EEEbRNS4_13_BracketStateERNS_15_BracketMatcherIS3_XT_EXT0_EEEENKUlvE_clEv
FN:447,447,_ZZNSt8__detail9_CompilerINSt7__cxx1112regex_traitsIcEEE18_M_expression_termILb0ELb1EEEbRNS4_13_BracketStateERNS_15_BracketMatcherIS3_XT_EXT0_EEEENKUlvE_clEv
FN:447,447,_ZZNSt8__detail9_CompilerINSt7__cxx1112regex_traitsIcEEE18_M_expression_termILb1ELb0EEEbRNS4_13_BracketStateERNS_15_BracketMatcherIS3_XT_EXT0_EEEENKUlvE_clEv
FN:447,447,_ZZNSt8__detail9_CompilerINSt7__cxx1112regex_traitsIcEEE18_M_expression_termILb1ELb1EEEbRNS4_13_BracketStateERNS_15_BracketMatcherIS3_XT_EXT0_EEEENKUlvE_clEv
FN:548,565,_ZNSt8__detail9_CompilerINSt7__cxx1112regex_traitsIcEEE11_M_try_charEv
FN:569,579,_ZNSt8__detail9_CompilerINSt7__cxx1112regex_traitsIcEEE14_M_match_tokenENS_12_ScannerBase7_TokenTE
FN:583,593,_ZNSt8__detail9_CompilerINSt7__cxx1112regex_traitsIcEEE16_M_cur_int_valueEi
FN:597,620,_ZNKSt8__detail15_BracketMatcherINSt7__cxx1112regex_traitsIcEELb0ELb0EE8_M_applyEcSt17integral_constantIbLb0EE
FN:597,620,_ZNKSt8__detail15_BracketMatcherINSt7__cxx1112regex_traitsIcEELb0ELb1EE8_M_applyEcSt17integral_constantIbLb0EE
FN:597,620,_ZNKSt8__detail15_BracketMatcherINSt7__cxx1112regex_traitsIcEELb1ELb0EE8_M_applyEcSt17integral_constantIbLb0EE
FN:597,620,_ZNKSt8__detail15_BracketMatcherINSt7__cxx1112regex_traitsIcEELb1ELb1EE8_M_applyEcSt17integral_constantIbLb0EE
FN:600,600,_ZZNKSt8__detail15_BracketMatcherINSt7__cxx1112regex_traitsIcEELb0ELb0EE8_M_applyEcSt17integral_constantIbLb0EEENKUlvE_clEv
FN:600,600,_ZZNKSt8__detail15_BracketMatcherINSt7__cxx1112regex_traitsIcEELb0ELb1EE8_M_applyEcSt17integral_constantIbLb0EEENKUlvE_clEv
FN:600,600,_ZZNKSt8__detail15_BracketMatcherINSt7__cxx1112regex_traitsIcEELb1ELb0EE8_M_applyEcSt17integral_constantIbLb0EEENKUlvE_clEv
FN:600,600,_ZZNKSt8__detail15_BracketMatcherINSt7__cxx1112regex_traitsIcEELb1ELb1EE8_M_applyEcSt17integral_constantIbLb0EEENKUlvE_clEv
FN:65,84,_ZNSt8__detail9_CompilerINSt7__cxx1112regex_traitsIcEEEC2EPKcS6_RKSt6localeNSt15regex_constants18syntax_option_typeE
FN:88,108,_ZNSt8__detail9_CompilerINSt7__cxx1112regex_traitsIcEEE14_M_disjunctionEv
FNDA:0,_ZNSt8__detail9_CompilerINSt7__cxx1112regex_traitsIcEEE14_M_alternativeEv
FNDA:0,_ZNSt8__detail9_CompilerINSt7__cxx1112regex_traitsIcEEE7_M_termEv
FNDA:0,_ZNSt8__detail9_CompilerINSt7__cxx1112regex_traitsIcEEE12_M_assertionEv
FNDA:0,_ZNSt8__detail9_CompilerINSt7__cxx1112regex_traitsIcEEE13_M_quantifierEv
FNDA:0,_ZZNSt8__detail9_CompilerINSt7__cxx1112regex_traitsIcEEE13_M_quantifierEvENKUlvE_clEv
FNDA:0,_ZNSt8__detail9_CompilerINSt7__cxx1112regex_traitsIcEEE7_M_atomEv
FNDA:0,_ZNSt8__detail9_CompilerINSt7__cxx1112regex_traitsIcEEE21_M_bracket_expressionEv
FNDA:0,_ZNSt8__detail9_CompilerINSt7__cxx1112regex_traitsIcEEE26_M_insert_any_matcher_ecmaILb0ELb0EEEvv
FNDA:0,_ZNSt8__detail9_CompilerINSt7__cxx1112regex_traitsIcEEE26_M_insert_any_matcher_ecmaILb0ELb1EEEvv
FNDA:0,_ZNSt8__detail9_CompilerINSt7__cxx1112regex_traitsIcEEE26_M_insert_any_matcher_ecmaILb1ELb0EEEvv
FNDA:0,_ZNSt8__detail9_CompilerINSt7__cxx1112regex_traitsIcEEE26_M_insert_any_matcher_ecmaILb1ELb1EEEvv
FNDA:0,_ZNSt8__detail9_CompilerINSt7__cxx1112regex_traitsIcEEE27_M_insert_any_matcher_posixILb0ELb0EEEvv
FNDA:0,_ZNSt8__detail9_CompilerINSt7__cxx1112regex_traitsIcEEE27_M_insert_any_matcher_posixILb0ELb1EEEvv
FNDA:0,_ZNSt8__detail9_CompilerINSt7__cxx1112regex_traitsIcEEE27_M_insert_any_matcher_posixILb1ELb0EEEvv
FNDA:0,_ZNSt8__detail9_CompilerINSt7__cxx1112regex_traitsIcEEE27_M_insert_any_matcher_posixILb1ELb1EEEvv
FNDA:0,_ZNSt8__detail9_CompilerINSt7__cxx1112regex_traitsIcEEE22_M_insert_char_matcherILb0ELb0EEEvv
FNDA:0,_ZNSt8__detail9_CompilerINSt7__cxx1112regex_traitsIcEEE22_M_insert_char_matcherILb0ELb1EEEvv
FNDA:0,_ZNSt8__detail9_CompilerINSt7__cxx1112regex_traitsIcEEE22_M_insert_char_matcherILb1ELb0EEEvv
FNDA:0,_ZNSt8__detail9_CompilerINSt7__cxx1112regex_traitsIcEEE22_M_insert_char_matcherILb1ELb1EEEvv
FNDA:0,_ZNSt8__detail9_CompilerINSt7__cxx1112regex_traitsIcEEE33_M_insert_character_class_matcherILb0ELb0EEEvv
FNDA:0,_ZNSt8__detail9_CompilerINSt7__cxx1112regex_traitsIcEEE33_M_insert_character_class_matcherILb0ELb1EEEvv
FNDA:0,_ZNSt8__detail9_CompilerINSt7__cxx1112regex_traitsIcEEE33_M_insert_character_class_matcherILb1ELb0EEEvv
FNDA:0,_ZNSt8__detail9_CompilerINSt7__cxx1112regex_traitsIcEEE33_M_insert_character_class_matcherILb1ELb1EEEvv
FNDA:0,_ZNSt8__detail9_CompilerINSt7__cxx1112regex_traitsIcEEE25_M_insert_bracket_matcherILb0ELb0EEEvb
FNDA:0,_ZNSt8__detail9_CompilerINSt7__cxx1112regex_traitsIcEEE25_M_insert_bracket_matcherILb0ELb1EEEvb
FNDA:0,_ZNSt8__detail9_CompilerINSt7__cxx1112regex_traitsIcEEE25_M_insert_bracket_matcherILb1ELb0EEEvb
FNDA:0,_ZNSt8__detail9_CompilerINSt7__cxx1112regex_traitsIcEEE25_M_insert_bracket_matcherILb1ELb1EEEvb
FNDA:0,_ZNSt8__detail9_CompilerINSt7__cxx1112regex_traitsIcEEE18_M_expression_termILb0ELb0EEEbRNS4_13_BracketStateERNS_15_BracketMatcherIS3_XT_EXT0_EEE
FNDA:0,_ZNSt8__detail9_CompilerINSt7__cxx1112regex_traitsIcEEE18_M_expression_termILb0ELb1EEEbRNS4_13_BracketStateERNS_15_BracketMatcherIS3_XT_EXT0_EEE
FNDA:0,_ZNSt8__detail9_CompilerINSt7__cxx1112regex_traitsIcEEE18_M_expression_termILb1ELb0EEEbRNS4_13_BracketStateERNS_15_BracketMatcherIS3_XT_EXT0_EEE
FNDA:0,_ZNSt8__detail9_CompilerINSt7__cxx1112regex_traitsIcEEE18_M_expression_termILb1ELb1EEEbRNS4_13_BracketStateERNS_15_BracketMatcherIS3_XT_EXT0_EEE
FNDA:0,_ZZNSt8__detail9_CompilerINSt7__cxx1112regex_traitsIcEEE18_M_expression_termILb0ELb0EEEbRNS4_13_BracketStateERNS_15_BracketMatcherIS3_XT_EXT0_EEEENKUlcE_clEc
FNDA:0,_ZZNSt8__detail9_CompilerINSt7__cxx1112regex_traitsIcEEE18_M_expression_termILb0ELb1EEEbRNS4_13_BracketStateERNS_15_BracketMatcherIS3_XT_EXT0_EEEENKUlcE_clEc
FNDA:0,_ZZNSt8__detail9_CompilerINSt7__cxx1112regex_traitsIcEEE18_M_expression_termILb1ELb0EEEbRNS4_13_BracketStateERNS_15_BracketMatcherIS3_XT_EXT0_EEEENKUlcE_clEc
FNDA:0,_ZZNSt8__detail9_CompilerINSt7__cxx1112regex_traitsIcEEE18_M_expression_termILb1ELb1EEEbRNS4_13_BracketStateERNS_15_BracketMatcherIS3_XT_EXT0_EEEENKUlcE_clEc
FNDA:0,_ZZNSt8__detail9_CompilerINSt7__cxx1112regex_traitsIcEEE18_M_expression_termILb0ELb0EEEbRNS4_13_BracketStateERNS_15_BracketMatcherIS3_XT_EXT0_EEEENKUlvE_clEv
FNDA:0,_ZZNSt8__detail9_CompilerINSt7__cxx1112regex_traitsIcEEE18_M_expression_termILb0ELb1EEEbRNS4_13_BracketStateERNS_15_BracketMatcherIS3_XT_EXT0_EEEENKUlvE_clEv
FNDA:0,_ZZNSt8__detail9_CompilerINSt7__cxx1112regex_traitsIcEEE18_M_expression_termILb1ELb0EEEbRNS4_13_BracketStateERNS_15_BracketMatcherIS3_XT_EXT0_EEEENKUlvE_clEv
FNDA:0,_ZZNSt8__detail9_CompilerINSt7__cxx1112regex_traitsIcEEE18_M_expression_termILb1ELb1EEEbRNS4_13_BracketStateERNS_15_BracketMatcherIS3_XT_EXT0_EEEENKUlvE_clEv
FNDA:0,_ZNSt8__detail9_CompilerINSt7__cxx1112regex_traitsIcEEE11_M_try_charEv
FNDA:0,_ZNSt8__detail9_CompilerINSt7__cxx1112regex_traitsIcEEE14_M_match_tokenENS_12_ScannerBase7_TokenTE
FNDA:0,_ZNSt8__detail9_CompilerINSt7__cxx1112regex_traitsIcEEE16_M_cur_int_valueEi
FNDA:0,_ZNKSt8__detail15_BracketMatcherINSt7__cxx1112regex_traitsIcEELb0ELb0EE8_M_applyEcSt17integral_constantIbLb0EE
FNDA:0,_ZNKSt8__detail15_BracketMatcherINSt7__cxx1112regex_traitsIcEELb0ELb1EE8_M_applyEcSt17integral_constantIbLb0EE
FNDA:0,_ZNKSt8__detail15_BracketMatcherINSt7__cxx1112regex_traitsIcEELb1ELb0EE8_M_applyEcSt17integral_constantIbLb0EE
FNDA:0,_ZNKSt8__detail15_BracketMatcherINSt7__cxx1112regex_traitsIcEELb1ELb1EE8_M_applyEcSt17integral_constantIbLb0EE
FNDA:0,_ZZNKSt8__detail15_BracketMatcherINSt7__cxx1112regex_traitsIcEELb0ELb0EE8_M_applyEcSt17integral_constantIbLb0EEENKUlvE_clEv
FNDA:0,_ZZNKSt8__detail15_BracketMatcherINSt7__cxx1112regex_traitsIcEELb0ELb1EE8_M_applyEcSt17integral_constantIbLb0EEENKUlvE_clEv
FNDA:0,_ZZNKSt8__detail15_BracketMatcherINSt7__cxx1112regex_traitsIcEELb1ELb0EE8_M_applyEcSt17integral_constantIbLb0EEENKUlvE_clEv
FNDA:0,_ZZNKSt8__detail15_BracketMatcherINSt7__cxx1112regex_traitsIcEELb1ELb1EE8_M_applyEcSt17integral_constantIbLb0EEENKUlvE_clEv
FNDA:0,_ZNSt8__detail9_CompilerINSt7__cxx1112regex_traitsIcEEEC2EPKcS6_RKSt6localeNSt15regex_constants18syntax_option_typeE
FNDA:0,_ZNSt8__detail9_CompilerINSt7__cxx1112regex_traitsIcEEE14_M_disjunctionEv
FNF:52
FNH:0
DA:65,0
DA:68,0
DA:69,0
DA:70,0
DA:71,0
DA:72,0
DA:74,0
DA:75,0
DA:76,0
DA:77,0
DA:78,0
DA:79,0
DA:80,0
DA:81,0
DA:82,0
DA:83,0
DA:84,0
DA:88,0
DA:91,0
DA:92,0
DA:94,0
DA:95,0
DA:96,0
DA:97,0
DA:98,0
DA:99,0
DA:103,0
DA:104,0
DA:108,0
DA:112,0
DA:115,0
DA:117,0
DA:118,0
DA:119,0
DA:120,0
DA:123,0
DA:124,0
DA:128,0
DA:131,0
DA:132,0
DA:133,0
DA:135,0
DA:137,0
DA:139,0
DA:144,0
DA:147,0
DA:148,0
DA:149,0
DA:150,0
DA:151,0
DA:153,0
DA:154,0
DA:155,0
DA:157,0
DA:158,0
DA:159,0
DA:160,0
DA:161,0
DA:162,0
DA:163,0
DA:164,0
DA:165,0
DA:166,0
DA:169,0
DA:170,0
DA:175,0
DA:178,0
DA:179,0
DA:181,0
DA:182,0
DA:183,0
DA:185,0
DA:187,0
DA:188,0
DA:189,0
DA:190,0
DA:192,0
DA:193,0
DA:195,0
DA:197,0
DA:198,0
DA:199,0
DA:201,0
DA:203,0
DA:205,0
DA:206,0
DA:207,0
DA:208,0
DA:209,0
DA:211,0
DA:212,0
DA:213,0
DA:215,0
DA:217,0
DA:218,0
DA:219,0
DA:220,0
DA:221,0
DA:222,0
DA:223,0
DA:224,0
DA:225,0
DA:228,0
DA:230,0
DA:231,0
DA:233,0
DA:235,0
DA:236,0
DA:238,0
DA:240,0
DA:241,0
DA:243,0
DA:245,0
DA:246,0
DA:247,0
DA:249,0
DA:250,0
DA:254,0
DA:255,0
DA:256,0
DA:260,0
DA:261,0
DA:263,0
DA:264,0
DA:266,0
DA:267,0
DA:269,0
DA:270,0
DA:272,0
DA:273,0
DA:274,0
DA:276,0
DA:277,0
DA:280,0
DA:281,0
DA:300,0
DA:303,0
DA:305,0
DA:306,0
DA:308,0
DA:310,0
DA:311,0
DA:312,0
DA:313,0
DA:314,0
DA:315,0
DA:316,0
DA:317,0
DA:319,0
DA:320,0
DA:321,0
DA:322,0
DA:323,0
DA:324,0
DA:326,0
DA:328,0
DA:329,0
DA:330,0
DA:331,0
DA:332,0
DA:333,0
DA:334,0
DA:336,0
DA:337,0
DA:338,0
DA:343,0
DA:347,0
DA:348,0
DA:349,0
DA:350,0
DA:351,0
DA:358,0
DA:361,0
DA:362,0
DA:363,0
DA:365,0
DA:370,0
DA:373,0
DA:374,0
DA:375,0
DA:377,0
DA:382,0
DA:385,0
DA:386,0
DA:387,0
DA:388,0
DA:389,0
DA:394,0
DA:397,0
DA:398,0
DA:399,0
DA:400,0
DA:401,0
DA:402,0
DA:403,0
DA:404,0
DA:409,0
DA:412,0
DA:413,0
DA:414,0
DA:415,0
DA:416,0
DA:418,0
DA:419,0
DA:421,0
DA:422,0
DA:423,0
DA:424,0
DA:425,0
DA:426,0
DA:427,0
DA:432,0
DA:436,0
DA:437,0
DA:440,0
DA:442,0
DA:443,0
DA:444,0
DA:447,0
DA:449,0
DA:450,0
DA:453,0
DA:456,0
DA:458,0
DA:459,0
DA:460,0
DA:462,0
DA:463,0
DA:464,0
DA:466,0
DA:467,0
DA:469,0
DA:471,0
DA:472,0
DA:474,0
DA:475,0
DA:486,0
DA:488,0
DA:491,0
DA:492,0
DA:494,0
DA:497,0
DA:501,0
DA:503,0
DA:506,0
DA:507,0
DA:509,0
DA:512,0
DA:513,0
DA:516,0
DA:520,0
DA:525,0
DA:528,0
DA:532,0
DA:534,0
DA:535,0
DA:536,0
DA:537,0
DA:540,0
DA:543,0
DA:548,0
DA:551,0
DA:552,0
DA:554,0
DA:555,0
DA:557,0
DA:559,0
DA:560,0
DA:562,0
DA:563,0
DA:564,0
DA:569,0
DA:572,0
DA:574,0
DA:575,0
DA:576,0
DA:578,0
DA:583,0
DA:586,0
DA:587,0
DA:588,0
DA:589,0
DA:590,0
DA:592,0
DA:597,0
DA:600,0
DA:602,0
DA:603,0
DA:604,0
DA:605,0
DA:606,0
DA:607,0
DA:608,0
DA:609,0
DA:610,0
DA:611,0
DA:612,0
DA:613,0
DA:614,0
DA:615,0
DA:616,0
DA:617,0
DA:618,0
DA:619,0
LF:304
LH:0
end_of_record
TN:
SF:/usr/include/c++/13/bits/regex_constants.h
FN:190,194,_ZNSt15regex_constantsanENS_18syntax_option_typeES0_
FN:197,201,_ZNSt15regex_constantsorENS_18syntax_option_typeES0_
FN:221,222,_ZNSt15regex_constantsoRERNS_18syntax_option_typeES0_
FN:371,375,_ZNSt15regex_constantsanENS_15match_flag_typeES0_
FN:378,382,_ZNSt15regex_constantsorENS_15match_flag_typeES0_
FN:392,393,_ZNSt15regex_constantscoENS_15match_flag_typeE
FN:397,398,_ZNSt15regex_constantsaNERNS_15match_flag_typeES0_
FN:402,403,_ZNSt15regex_constantsoRERNS_15match_flag_typeES0_
FNDA:0,_ZNSt15regex_constantsanENS_18syntax_option_typeES0_
FNDA:0,_ZNSt15regex_constantsorENS_18syntax_option_typeES0_
FNDA:0,_ZNSt15regex_constantsoRERNS_18syntax_option_typeES0_
FNDA:0,_ZNSt15regex_constantsanENS_15match_flag_typeES0_
FNDA:0,_ZNSt15regex_constantsorENS_15match_flag_typeES0_
FNDA:0,_ZNSt15regex_constantscoENS_15match_flag_typeE
FNDA:0,_ZNSt15regex_constantsaNERNS_15match_flag_typeES0_
FNDA:0,_ZNSt15regex_constantsoRERNS_15match_flag_typeES0_
FNF:8
FNH:0
DA:190,0
DA:193,0
DA:197,0
DA:200,0
DA:221,0
DA:222,0
DA:371,0
DA:374,0
DA:378,0
DA:381,0
DA:392,0
DA:393,0
DA:397,0
DA:398,0
DA:402,0
DA:403,0
LF:16
LH:0
end_of_record
TN:
SF:/usr/include/c++/13/bits/regex_error.h
FN:165,167,_ZNSt11regex_errorC2ENSt15regex_constants10error_typeEPKc
FN:171,173,_ZSt19__throw_regex_errorNSt15regex_constants10error_typeEPKc
FNDA:0,_ZNSt11regex_errorC2ENSt15regex_constants10error_typeEPKc
FNDA:0,_ZSt19__throw_regex_errorNSt15regex_constants10error_typeEPKc
FNF:2
FNH:0
DA:165,0
DA:166,0
DA:167,0
DA:171,0
DA:173,0
LF:5
LH:0
end_of_record
TN:
SF:/usr/include/c++/13/bits/regex_executor.h
FN:149,150,_ZNSt8__detail9_ExecutorIN9__gnu_cxx17__normal_iteratorIPKcNSt7__cxx1112basic_stringIcSt11char_traitsIcESaIcEEEEESaINS5_9sub_matchISB_EEENS5_12regex_traitsIcEELb0EE7_M_mainENSH_11_Match_modeE
FN:149,150,_ZNSt8__detail9_ExecutorIN9__gnu_cxx17__normal_iteratorIPKcNSt7__cxx1112basic_stringIcSt11char_traitsIcESaIcEEEEESaINS5_9sub_matchISB_EEENS5_12regex_traitsIcEELb1EE7_M_mainENSH_11_Match_modeE
FN:159,164,_ZNKSt8__detail9_ExecutorIN9__gnu_cxx17__normal_iteratorIPKcNSt7__cxx1112basic_stringIcSt11char_traitsIcESaIcEEEEESaINS5_9sub_matchISB_EEENS5_12regex_traitsIcEELb0EE10_M_is_wordEc
FN:159,164,_ZNKSt8__detail9_ExecutorIN9__gnu_cxx17__normal_iteratorIPKcNSt7__cxx1112basic_stringIcSt11char_traitsIcESaIcEEEEESaINS5_9sub_matchISB_EEENS5_12regex_traitsIcEELb1EE10_M_is_wordEc
FN:167,191,_ZNKSt8__detail9_ExecutorIN9__gnu_cxx17__normal_iteratorIPKcNSt7__cxx1112basic_stringIcSt11char_traitsIcESaIcEEEEESaINS5_9sub_matchISB_EEENS5_12regex_traitsIcEELb0EE11_M_at_beginEv
FN:167,191,_ZNKSt8__detail9_ExecutorIN9__gnu_cxx17__normal_iteratorIPKcNSt7__cxx1112basic_stringIcSt11char_traitsIcESaIcEEEEESaINS5_9sub_matchISB_EEENS5_12regex_traitsIcEELb1EE11_M_at_beginEv
FN:194,202,_ZNKSt8__detail9_ExecutorIN9__gnu_cxx17__normal_iteratorIPKcNSt7__cxx1112basic_stringIcSt11char_traitsIcESaIcEEEEESaINS5_9sub_matchISB_EEENS5_12regex_traitsIcEELb0EE9_M_at_endEv
FN:194,202,_ZNKSt8__detail9_ExecutorIN9__gnu_cxx17__normal_iteratorIPKcNSt7__cxx1112basic_stringIcSt11char_traitsIcESaIcEEEEESaINS5_9sub_matchISB_EEENS5_12regex_traitsIcEELb1EE9_M_at_endEv
FN:211,225,_ZNKSt8__detail9_ExecutorIN9__gnu_cxx17__normal_iteratorIPKcNSt7__cxx1112basic_stringIcSt11char_traitsIcESaIcEEEEESaINS5_9sub_matchISB_EEENS5_12regex_traitsIcEELb0EE21_M_is_line_terminatorEc
FN:211,225,_ZNKSt8__detail9_ExecutorIN9__gnu_cxx17__normal_iteratorIPKcNSt7__cxx1112basic_stringIcSt11char_traitsIcESaIcEEEEESaINS5_9sub_matchISB_EEENS5_12regex_traitsIcEELb1EE21_M_is_line_terminatorEc
FN:228,233,_ZNKSt8__detail9_ExecutorIN9__gnu_cxx17__normal_iteratorIPKcNSt7__cxx1112basic_stringIcSt11char_traitsIcESaIcEEEEESaINS5_9sub_matchISB_EEENS5_12regex_traitsIcEELb0EE18_M_match_multilineEv
FN:228,233,_ZNKSt8__detail9_ExecutorIN9__gnu_cxx17__normal_iteratorIPKcNSt7__cxx1112basic_stringIcSt11char_traitsIcESaIcEEEEESaINS5_9sub_matchISB_EEENS5_12regex_traitsIcEELb1EE18_M_match_multilineEv
FN:243,245,_ZNSt8__detail9_ExecutorIN9__gnu_cxx17__normal_iteratorIPKcNSt7__cxx1112basic_stringIcSt11char_traitsIcESaIcEEEEESaINS5_9sub_matchISB_EEENS5_12regex_traitsIcEELb0EE11_State_infoISt17integral_constantIbLb0EESt6vectorISD_SE_EEC2Elm
FN:247,247,_ZNSt8__detail9_ExecutorIN9__gnu_cxx17__normal_iteratorIPKcNSt7__cxx1112basic_stringIcSt11char_traitsIcESaIcEEEEESaINS5_9sub_matchISB_EEENS5_12regex_traitsIcEELb0EE11_State_infoISt17integral_constantIbLb0EESt6vectorISD_SE_EED2Ev
FN:252,258,_ZNSt8__detail9_ExecutorIN9__gnu_cxx17__normal_iteratorIPKcNSt7__cxx1112basic_stringIcSt11char_traitsIcESaIcEEEEESaINS5_9sub_matchISB_EEENS5_12regex_traitsIcEELb0EE11_State_infoISt17integral_constantIbLb0EESt6vectorISD_SE_EE10_M_visitedEl
FN:260,261,_ZNSt8__detail9_ExecutorIN9__gnu_cxx17__normal_iteratorIPKcNSt7__cxx1112basic_stringIcSt11char_traitsIcESaIcEEEEESaINS5_9sub_matchISB_EEENS5_12regex_traitsIcEELb0EE11_State_infoISt17integral_constantIbLb0EESt6vectorISD_SE_EE8_M_queueElRKSM_
FN:278,279,_ZNSt8__detail9_ExecutorIN9__gnu_cxx17__normal_iteratorIPKcNSt7__cxx1112basic_stringIcSt11char_traitsIcESaIcEEEEESaINS5_9sub_matchISB_EEENS5_12regex_traitsIcEELb1EE11_State_infoISt17integral_constantIbLb1EESt6vectorISD_SE_EEC2Elm
FN:282,282,_ZNKSt8__detail9_ExecutorIN9__gnu_cxx17__normal_iteratorIPKcNSt7__cxx1112basic_stringIcSt11char_traitsIcESaIcEEEEESaINS5_9sub_matchISB_EEENS5_12regex_traitsIcEELb1EE11_State_infoISt17integral_constantIbLb1EESt6vectorISD_SE_EE10_M_visitedEl
FN:285,285,_ZNSt8__detail9_ExecutorIN9__gnu_cxx17__normal_iteratorIPKcNSt7__cxx1112basic_stringIcSt11char_traitsIcESaIcEEEEESaINS5_9sub_matchISB_EEENS5_12regex_traitsIcEELb1EE11_State_infoISt17integral_constantIbLb1EESt6vectorISD_SE_EE14_M_get_sol_posEv
FN:69,87,_ZNSt8__detail9_ExecutorIN9__gnu_cxx17__normal_iteratorIPKcNSt7__cxx1112basic_stringIcSt11char_traitsIcESaIcEEEEESaINS5_9sub_matchISB_EEENS5_12regex_traitsIcEELb0EEC2ESB_SB_RSt6vectorISD_SE_ERKNS5_11basic_regexIcSG_EENSt15regex_constants15match_flag_typeE
FN:69,87,_ZNSt8__detail9_ExecutorIN9__gnu_cxx17__normal_iteratorIPKcNSt7__cxx1112basic_stringIcSt11char_traitsIcESaIcEEEEESaINS5_9sub_matchISB_EEENS5_12regex_traitsIcEELb1EEC2ESB_SB_RSt6vectorISD_SE_ERKNS5_11basic_regexIcSG_EENSt15regex_constants15match_flag_typeE
FN:91,95,_ZNSt8__detail9_ExecutorIN9__gnu_cxx17__normal_iteratorIPKcNSt7__cxx1112basic_stringIcSt11char_traitsIcESaIcEEEEESaINS5_9sub_matchISB_EEENS5_12regex_traitsIcEELb0EE8_M_matchEv
FN:91,95,_ZNSt8__detail9_ExecutorIN9__gnu_cxx17__normal_iteratorIPKcNSt7__cxx1112basic_stringIcSt11char_traitsIcESaIcEEEEESaINS5_9sub_matchISB_EEENS5_12regex_traitsIcEELb1EE8_M_matchEv
FN:99,103,_ZNSt8__detail9_ExecutorIN9__gnu_cxx17__normal_iteratorIPKcNSt7__cxx1112basic_stringIcSt11char_traitsIcESaIcEEEEESaINS5_9sub_matchISB_EEENS5_12regex_traitsIcEELb0EE20_M_search_from_firstEv
FN:99,103,_ZNSt8__detail9_ExecutorIN9__gnu_cxx17__normal_iteratorIPKcNSt7__cxx1112basic_stringIcSt11char_traitsIcESaIcEEEEESaINS5_9sub_matchISB_EEENS5_12regex_traitsIcEELb1EE20_M_search_from_firstEv
FNDA:0,_ZNSt8__detail9_ExecutorIN9__gnu_cxx17__normal_iteratorIPKcNSt7__cxx1112basic_stringIcSt11char_traitsIcESaIcEEEEESaINS5_9sub_matchISB_EEENS5_12regex_traitsIcEELb0EE7_M_mainENSH_11_Match_modeE
FNDA:0,_ZNSt8__detail9_ExecutorIN9__gnu_cxx17__normal_iteratorIPKcNSt7__cxx1112basic_stringIcSt11char_traitsIcESaIcEEEEESaINS5_9sub_matchISB_EEENS5_12regex_traitsIcEELb1EE7_M_mainENSH_11_Match_modeE
FNDA:0,_ZNKSt8__detail9_ExecutorIN9__gnu_cxx17__normal_iteratorIPKcNSt7__cxx1112basic_stringIcSt11char_traitsIcESaIcEEEEESaINS5_9sub_matchISB_EEENS5_12regex_traitsIcEELb0EE10_M_is_wordEc
FNDA:0,_ZNKSt8__detail9_ExecutorIN9__gnu_cxx17__normal_iteratorIPKcNSt7__cxx1112basic_stringIcSt11char_traitsIcESaIcEEEEESaINS5_9sub_matchISB_EEENS5_12regex_traitsIcEELb1EE10_M_is_wordEc
FNDA:0,_ZNKSt8__detail9_ExecutorIN9__gnu_cxx17__normal_iteratorIPKcNSt7__cxx1112basic_stringIcSt11char_traitsIcESaIcEEEEESaINS5_9sub_matchISB_EEENS5_12regex_traitsIcEELb0EE11_M_at_beginEv
FNDA:0,_ZNKSt8__detail9_ExecutorIN9__gnu_cxx17__normal_iteratorIPKcNSt7__cxx1112basic_stringIcSt11char_traitsIcESaIcEEEEESaINS5_9sub_matchISB_EEENS5_12regex_traitsIcEELb1EE11_M_at_beginEv
FNDA:0,_ZNKSt8__detail9_ExecutorIN9__gnu_cxx17__normal_iteratorIPKcNSt7__cxx1112basic_stringIcSt11char_traitsIcESaIcEEEEESaINS5_9sub_matchISB_EEENS5_12regex_traitsIcEELb0EE9_M_at_endEv
FNDA:0,_ZNKSt8__detail9_ExecutorIN9__gnu_cxx17__normal_iteratorIPKcNSt7__cxx1112basic_stringIcSt11char_traitsIcESaIcEEEEESaINS5_9sub_matchISB_EEENS5_12regex_traitsIcEELb1EE9_M_at_endEv
FNDA:0,_ZNKSt8__detail9_ExecutorIN9__gnu_cxx17__normal_iteratorIPKcNSt7__cxx1112basic_stringIcSt11char_traitsIcESaIcEEEEESaINS5_9sub_matchISB_EEENS5_12regex_traitsIcEELb0EE21_M_is_line_terminatorEc
FNDA:0,_ZNKSt8__detail9_ExecutorIN9__gnu_cxx17__normal_iteratorIPKcNSt7__cxx1112basic_stringIcSt11char_traitsIcESaIcEEEEESaINS5_9sub_matchISB_EEENS5_12regex_traitsIcEELb1EE21_M_is_line_terminatorEc
FNDA:0,_ZNKSt8__detail9_ExecutorIN9__gnu_cxx17__normal_iteratorIPKcNSt7__cxx1112basic_stringIcSt11char_traitsIcESaIcEEEEESaINS5_9sub_matchISB_EEENS5_12regex_traitsIcEELb0EE18_M_match_multilineEv
FNDA:0,_ZNKSt8__detail9_ExecutorIN9__gnu_cxx17__normal_iteratorIPKcNSt7__cxx1112basic_stringIcSt11char_traitsIcESaIcEEEEESaINS5_9sub_matchISB_EEENS5_12regex_traitsIcEELb1EE18_M_match_multilineEv
FNDA:0,_ZNSt8__detail9_ExecutorIN9__gnu_cxx17__normal_iteratorIPKcNSt7__cxx1112basic_stringIcSt11char_traitsIcESaIcEEEEESaINS5_9sub_matchISB_EEENS5_12regex_traitsIcEELb0EE11_State_infoISt17integral_constantIbLb0EESt6vectorISD_SE_EEC2Elm
FNDA:0,_ZNSt8__detail9_ExecutorIN9__gnu_cxx17__normal_iteratorIPKcNSt7__cxx1112basic_stringIcSt11char_traitsIcESaIcEEEEESaINS5_9sub_matchISB_EEENS5_12regex_traitsIcEELb0EE11_State_infoISt17integral_constantIbLb0EESt6vectorISD_SE_EED2Ev
FNDA:0,_ZNSt8__detail9_ExecutorIN9__gnu_cxx17__normal_iteratorIPKcNSt7__cxx1112basic_stringIcSt11char_traitsIcESaIcEEEEESaINS5_9sub_matchISB_EEENS5_12regex_traitsIcEELb0EE11_State_infoISt17integral_constantIbLb0EESt6vectorISD_SE_EE10_M_visitedEl
FNDA:0,_ZNSt8__detail9_ExecutorIN9__gnu_cxx17__normal_iteratorIPKcNSt7__cxx1112basic_stringIcSt11char_traitsIcESaIcEEEEESaINS5_9sub_matchISB_EEENS5_12regex_traitsIcEELb0EE11_State_infoISt17integral_constantIbLb0EESt6vectorISD_SE_EE8_M_queueElRKSM_
FNDA:0,_ZNSt8__detail9_ExecutorIN9__gnu_cxx17__normal_iteratorIPKcNSt7__cxx1112basic_stringIcSt11char_traitsIcESaIcEEEEESaINS5_9sub_matchISB_EEENS5_12regex_traitsIcEELb1EE11_State_infoISt17integral_constantIbLb1EESt6vectorISD_SE_EEC2Elm
FNDA:0,_ZNKSt8__detail9_ExecutorIN9__gnu_cxx17__normal_iteratorIPKcNSt7__cxx1112basic_stringIcSt11char_traitsIcESaIcEEEEESaINS5_9sub_matchISB_EEENS5_12regex_traitsIcEELb1EE11_State_infoISt17integral_constantIbLb1EESt6vectorISD_SE_EE10_M_visitedEl
FNDA:0,_ZNSt8__detail9_ExecutorIN9__gnu_cxx17__normal_iteratorIPKcNSt7__cxx1112basic_stringIcSt11char_traitsIcESaIcEEEEESaINS5_9sub_matchISB_EEENS5_12regex_traitsIcEELb1EE11_State_infoISt17integral_constantIbLb1EESt6vectorISD_SE_EE14_M_get_sol_posEv
FNDA:0,_ZNSt8__detail9_ExecutorIN9__gnu_cxx17__normal_iteratorIPKcNSt7__cxx1112basic_stringIcSt11char_traitsIcESaIcEEEEESaINS5_9sub_matchISB_EEENS5_12regex_traitsIcEELb0EEC2ESB_SB_RSt6vectorISD_SE_ERKNS5_11basic_regexIcSG_EENSt15regex_constants15match_flag_typeE
FNDA:0,_ZNSt8__detail9_ExecutorIN9__gnu_cxx17__normal_iteratorIPKcNSt7__cxx1112basic_stringIcSt11char_traitsIcESaIcEEEEESaINS5_9sub_matchISB_EEENS5_12regex_traitsIcEELb1EEC2ESB_SB_RSt6vectorISD_SE_ERKNS5_11basic_regexIcSG_EENSt15regex_constants15match_flag_typeE
FNDA:0,_ZNSt8__detail9_ExecutorIN9__gnu_cxx17__normal_iteratorIPKcNSt7__cxx1112basic_stringIcSt11char_traitsIcESaIcEEEEESaINS5_9sub_matchISB_EEENS5_12regex_traitsIcEELb0EE8_M_matchEv
FNDA:0,_ZNSt8__detail9_ExecutorIN9__gnu_cxx17__normal_iteratorIPKcNSt7__cxx1112basic_stringIcSt11char_traitsIcESaIcEEEEESaINS5_9sub_matchISB_EEENS5_12regex_traitsIcEELb1EE8_M_matchEv
FNDA:0,_ZNSt8__detail9_ExecutorIN9__gnu_cxx17__normal_iteratorIPKcNSt7__cxx1112basic_stringIcSt11char_traitsIcESaIcEEEEESaINS5_9sub_matchISB_EEENS5_12regex_traitsIcEELb0EE20_M_search_from_firstEv
FNDA:0,_ZNSt8__detail9_ExecutorIN9__gnu_cxx17__normal_iteratorIPKcNSt7__cxx1112basic_stringIcSt11char_traitsIcESaIcEEEEESaINS5_9sub_matchISB_EEENS5_12regex_traitsIcEELb1EE20_M_search_from_firstEv
FNF:25
FNH:0
DA:69,0
DA:74,0
DA:75,0
DA:76,0
DA:77,0
DA:78,0
DA:79,0
DA:80,0
DA:81,0
DA:82,0
DA:85,0
DA:86,0
DA:87,0
DA:91,0
DA:93,0
DA:94,0
DA:99,0
DA:101,0
DA:102,0
DA:149,0
DA:150,0
DA:159,0
DA:162,0
DA:163,0
DA:167,0
DA:169,0
DA:172,0
DA:173,0
DA:175,0
DA:179,0
DA:180,0
DA:182,0
DA:185,0
DA:187,0
DA:188,0
DA:190,0
DA:194,0
DA:196,0
DA:197,0
DA:198,0
DA:199,0
DA:201,0
DA:211,0
DA:213,0
DA:214,0
DA:215,0
DA:216,0
DA:217,0
DA:218,0
DA:220,0
DA:221,0
DA:224,0
DA:228,0
DA:230,0
DA:232,0
DA:243,0
DA:244,0
DA:245,0
DA:247,0
DA:252,0
DA:254,0
DA:255,0
DA:256,0
DA:257,0
DA:260,0
DA:261,0
DA:278,0
DA:279,0
DA:282,0
DA:285,0
LF:70
LH:0
end_of_record
TN:
SF:/usr/include/c++/13/bits/regex_executor.tcc
FN:115,143,_ZNSt8__detail9_ExecutorIN9__gnu_cxx17__normal_iteratorIPKcNSt7__cxx1112basic_stringIcSt11char_traitsIcESaIcEEEEESaINS5_9sub_matchISB_EEENS5_12regex_traitsIcEELb0EE16_M_main_dispatchENSH_11_Match_modeESt17integral_constantIbLb0EE
FN:148,165,_ZNSt8__detail9_ExecutorIN9__gnu_cxx17__normal_iteratorIPKcNSt7__cxx1112basic_stringIcSt11char_traitsIcESaIcEEEEESaINS5_9sub_matchISB_EEENS5_12regex_traitsIcEELb0EE12_M_lookaheadEl
FN:148,165,_ZNSt8__detail9_ExecutorIN9__gnu_cxx17__normal_iteratorIPKcNSt7__cxx1112basic_stringIcSt11char_traitsIcESaIcEEEEESaINS5_9sub_matchISB_EEENS5_12regex_traitsIcEELb1EE12_M_lookaheadEl
FN:175,197,_ZNSt8__detail9_ExecutorIN9__gnu_cxx17__normal_iteratorIPKcNSt7__cxx1112basic_stringIcSt11char_traitsIcESaIcEEEEESaINS5_9sub_matchISB_EEENS5_12regex_traitsIcEELb0EE16_M_rep_once_moreENSH_11_Match_modeEl
FN:175,197,_ZNSt8__detail9_ExecutorIN9__gnu_cxx17__normal_iteratorIPKcNSt7__cxx1112basic_stringIcSt11char_traitsIcESaIcEEEEESaINS5_9sub_matchISB_EEENS5_12regex_traitsIcEELb1EE16_M_rep_once_moreENSH_11_Match_modeEl
FN:205,243,_ZNSt8__detail9_ExecutorIN9__gnu_cxx17__normal_iteratorIPKcNSt7__cxx1112basic_stringIcSt11char_traitsIcESaIcEEEEESaINS5_9sub_matchISB_EEENS5_12regex_traitsIcEELb0EE16_M_handle_repeatENSH_11_Match_modeEl
FN:205,243,_ZNSt8__detail9_ExecutorIN9__gnu_cxx17__normal_iteratorIPKcNSt7__cxx1112basic_stringIcSt11char_traitsIcESaIcEEEEESaINS5_9sub_matchISB_EEENS5_12regex_traitsIcEELb1EE16_M_handle_repeatENSH_11_Match_modeEl
FN:247,257,_ZNSt8__detail9_ExecutorIN9__gnu_cxx17__normal_iteratorIPKcNSt7__cxx1112basic_stringIcSt11char_traitsIcESaIcEEEEESaINS5_9sub_matchISB_EEENS5_12regex_traitsIcEELb0EE23_M_handle_subexpr_beginENSH_11_Match_modeEl
FN:247,257,_ZNSt8__detail9_ExecutorIN9__gnu_cxx17__normal_iteratorIPKcNSt7__cxx1112basic_stringIcSt11char_traitsIcESaIcEEEEESaINS5_9sub_matchISB_EEENS5_12regex_traitsIcEELb1EE23_M_handle_subexpr_beginENSH_11_Match_modeEl
FN:261,272,_ZNSt8__detail9_ExecutorIN9__gnu_cxx17__normal_iteratorIPKcNSt7__cxx1112basic_stringIcSt11char_traitsIcESaIcEEEEESaINS5_9sub_matchISB_EEENS5_12regex_traitsIcEELb0EE21_M_handle_subexpr_endENSH_11_Match_modeEl
FN:261,272,_ZNSt8__detail9_ExecutorIN9__gnu_cxx17__normal_iteratorIPKcNSt7__cxx1112basic_stringIcSt11char_traitsIcESaIcEEEEESaINS5_9sub_matchISB_EEENS5_12regex_traitsIcEELb1EE21_M_handle_subexpr_endENSH_11_Match_modeEl
FN:276,282,_ZNSt8__detail9_ExecutorIN9__gnu_cxx17__normal_iteratorIPKcNSt7__cxx1112basic_stringIcSt11char_traitsIcESaIcEEEEESaINS5_9sub_matchISB_EEENS5_12regex_traitsIcEELb0EE30_M_handle_line_begin_assertionENSH_11_Match_modeEl
FN:276,282,_ZNSt8__detail9_ExecutorIN9__gnu_cxx17__normal_iteratorIPKcNSt7__cxx1112basic_stringIcSt11char_traitsIcESaIcEEEEESaINS5_9sub_matchISB_EEENS5_12regex_traitsIcEELb1EE30_M_handle_line_begin_assertionENSH_11_Match_modeEl
FN:286,292,_ZNSt8__detail9_ExecutorIN9__gnu_cxx17__normal_iteratorIPKcNSt7__cxx1112basic_stringIcSt11char_traitsIcESaIcEEEEESaINS5_9sub_matchISB_EEENS5_12regex_traitsIcEELb0EE28_M_handle_line_end_assertionENSH_11_Match_modeEl
FN:286,292,_ZNSt8__detail9_ExecutorIN9__gnu_cxx17__normal_iteratorIPKcNSt7__cxx1112basic_stringIcSt11char_traitsIcESaIcEEEEESaINS5_9sub_matchISB_EEENS5_12regex_traitsIcEELb1EE28_M_handle_line_end_assertionENSH_11_Match_modeEl
FN:296,302,_ZNSt8__detail9_ExecutorIN9__gnu_cxx17__normal_iteratorIPKcNSt7__cxx1112basic_stringIcSt11char_traitsIcESaIcEEEEESaINS5_9sub_matchISB_EEENS5_12regex_traitsIcEELb0EE23_M_handle_word_boundaryENSH_11_Match_modeEl
FN:296,302,_ZNSt8__detail9_ExecutorIN9__gnu_cxx17__normal_iteratorIPKcNSt7__cxx1112basic_stringIcSt11char_traitsIcESaIcEEEEESaINS5_9sub_matchISB_EEENS5_12regex_traitsIcEELb1EE23_M_handle_word_boundaryENSH_11_Match_modeEl
FN:308,314,_ZNSt8__detail9_ExecutorIN9__gnu_cxx17__normal_iteratorIPKcNSt7__cxx1112basic_stringIcSt11char_traitsIcESaIcEEEEESaINS5_9sub_matchISB_EEENS5_12regex_traitsIcEELb0EE27_M_handle_subexpr_lookaheadENSH_11_Match_modeEl
FN:308,314,_ZNSt8__detail9_ExecutorIN9__gnu_cxx17__normal_iteratorIPKcNSt7__cxx1112basic_stringIcSt11char_traitsIcESaIcEEEEESaINS5_9sub_matchISB_EEENS5_12regex_traitsIcEELb1EE27_M_handle_subexpr_lookaheadENSH_11_Match_modeEl
FN:318,337,_ZNSt8__detail9_ExecutorIN9__gnu_cxx17__normal_iteratorIPKcNSt7__cxx1112basic_stringIcSt11char_traitsIcESaIcEEEEESaINS5_9sub_matchISB_EEENS5_12regex_traitsIcEELb0EE15_M_handle_matchENSH_11_Match_modeEl
FN:318,337,_ZNSt8__detail9_ExecutorIN9__gnu_cxx17__normal_iteratorIPKcNSt7__cxx1112basic_stringIcSt11char_traitsIcESaIcEEEEESaINS5_9sub_matchISB_EEENS5_12regex_traitsIcEELb1EE15_M_handle_matchENSH_11_Match_modeEl
FN:361,362,_ZNSt8__detail16_Backref_matcherIN9__gnu_cxx17__normal_iteratorIPKcNSt7__cxx1112basic_stringIcSt11char_traitsIcESaIcEEEEENS5_12regex_traitsIcEEEC2EbRKSD_
FN:365,381,_ZNSt8__detail16_Backref_matcherIN9__gnu_cxx17__normal_iteratorIPKcNSt7__cxx1112basic_stringIcSt11char_traitsIcESaIcEEEEENS5_12regex_traitsIcEEE8_M_applyESB_SB_SB_SB_
FN:376,376,_ZZNSt8__detail16_Backref_matcherIN9__gnu_cxx17__normal_iteratorIPKcNSt7__cxx1112basic_stringIcSt11char_traitsIcESaIcEEEEENS5_12regex_traitsIcEEE8_M_applyESB_SB_SB_SB_ENKUlccE_clEcc
FN:39,54,_ZNSt8__detail9_ExecutorIN9__gnu_cxx17__normal_iteratorIPKcNSt7__cxx1112basic_stringIcSt11char_traitsIcESaIcEEEEESaINS5_9sub_matchISB_EEENS5_12regex_traitsIcEELb0EE9_M_searchEv
FN:39,54,_ZNSt8__detail9_ExecutorIN9__gnu_cxx17__normal_iteratorIPKcNSt7__cxx1112basic_stringIcSt11char_traitsIcESaIcEEEEESaINS5_9sub_matchISB_EEENS5_12regex_traitsIcEELb1EE9_M_searchEv
FN:393,422,_ZNSt8__detail9_ExecutorIN9__gnu_cxx17__normal_iteratorIPKcNSt7__cxx1112basic_stringIcSt11char_traitsIcESaIcEEEEESaINS5_9sub_matchISB_EEENS5_12regex_traitsIcEELb0EE17_M_handle_backrefENSH_11_Match_modeEl
FN:393,422,_ZNSt8__detail9_ExecutorIN9__gnu_cxx17__normal_iteratorIPKcNSt7__cxx1112basic_stringIcSt11char_traitsIcESaIcEEEEESaINS5_9sub_matchISB_EEENS5_12regex_traitsIcEELb1EE17_M_handle_backrefENSH_11_Match_modeEl
FN:426,476,_ZNSt8__detail9_ExecutorIN9__gnu_cxx17__normal_iteratorIPKcNSt7__cxx1112basic_stringIcSt11char_traitsIcESaIcEEEEESaINS5_9sub_matchISB_EEENS5_12regex_traitsIcEELb0EE16_M_handle_acceptENSH_11_Match_modeEl
FN:426,476,_ZNSt8__detail9_ExecutorIN9__gnu_cxx17__normal_iteratorIPKcNSt7__cxx1112basic_stringIcSt11char_traitsIcESaIcEEEEESaINS5_9sub_matchISB_EEENS5_12regex_traitsIcEELb1EE16_M_handle_acceptENSH_11_Match_modeEl
FN:480,503,_ZNSt8__detail9_ExecutorIN9__gnu_cxx17__normal_iteratorIPKcNSt7__cxx1112basic_stringIcSt11char_traitsIcESaIcEEEEESaINS5_9sub_matchISB_EEENS5_12regex_traitsIcEELb0EE21_M_handle_alternativeENSH_11_Match_modeEl
FN:480,503,_ZNSt8__detail9_ExecutorIN9__gnu_cxx17__normal_iteratorIPKcNSt7__cxx1112basic_stringIcSt11char_traitsIcESaIcEEEEESaINS5_9sub_matchISB_EEENS5_12regex_traitsIcEELb1EE21_M_handle_alternativeENSH_11_Match_modeEl
FN:507,540,_ZNSt8__detail9_ExecutorIN9__gnu_cxx17__normal_iteratorIPKcNSt7__cxx1112basic_stringIcSt11char_traitsIcESaIcEEEEESaINS5_9sub_matchISB_EEENS5_12regex_traitsIcEELb0EE6_M_dfsENSH_11_Match_modeEl
FN:507,540,_ZNSt8__detail9_ExecutorIN9__gnu_cxx17__normal_iteratorIPKcNSt7__cxx1112basic_stringIcSt11char_traitsIcESaIcEEEEESaINS5_9sub_matchISB_EEENS5_12regex_traitsIcEELb1EE6_M_dfsENSH_11_Match_modeEl
FN:545,565,_ZNKSt8__detail9_ExecutorIN9__gnu_cxx17__normal_iteratorIPKcNSt7__cxx1112basic_stringIcSt11char_traitsIcESaIcEEEEESaINS5_9sub_matchISB_EEENS5_12regex_traitsIcEELb0EE16_M_word_boundaryEv
FN:545,565,_ZNKSt8__detail9_ExecutorIN9__gnu_cxx17__normal_iteratorIPKcNSt7__cxx1112basic_stringIcSt11char_traitsIcESaIcEEEEESaINS5_9sub_matchISB_EEENS5_12regex_traitsIcEELb1EE16_M_word_boundaryEv
FN:81,89,_ZNSt8__detail9_ExecutorIN9__gnu_cxx17__normal_iteratorIPKcNSt7__cxx1112basic_stringIcSt11char_traitsIcESaIcEEEEESaINS5_9sub_matchISB_EEENS5_12regex_traitsIcEELb1EE16_M_main_dispatchENSH_11_Match_modeESt17integral_constantIbLb1EE
FNDA:0,_ZNSt8__detail9_ExecutorIN9__gnu_cxx17__normal_iteratorIPKcNSt7__cxx1112basic_stringIcSt11char_traitsIcESaIcEEEEESaINS5_9sub_matchISB_EEENS5_12regex_traitsIcEELb0EE16_M_main_dispatchENSH_11_Match_modeESt17integral_constantIbLb0EE
FNDA:0,_ZNSt8__detail9_ExecutorIN9__gnu_cxx17__normal_iteratorIPKcNSt7__cxx1112basic_stringIcSt11char_traitsIcESaIcEEEEESaINS5_9sub_matchISB_EEENS5_12regex_traitsIcEELb0EE12_M_lookaheadEl
FNDA:0,_ZNSt8__detail9_ExecutorIN9__gnu_cxx17__normal_iteratorIPKcNSt7__cxx1112basic_stringIcSt11char_traitsIcESaIcEEEEESaINS5_9sub_matchISB_EEENS5_12regex_traitsIcEELb1EE12_M_lookaheadEl
FNDA:0,_ZNSt8__detail9_ExecutorIN9__gnu_cxx17__normal_iteratorIPKcNSt7__cxx1112basic_stringIcSt11char_traitsIcESaIcEEEEESaINS5_9sub_matchISB_EEENS5_12regex_traitsIcEELb0EE16_M_rep_once_moreENSH_11_Match_modeEl
FNDA:0,_ZNSt8__detail9_ExecutorIN9__gnu_cxx17__normal_iteratorIPKcNSt7__cxx1112basic_stringIcSt11char_traitsIcESaIcEEEEESaINS5_9sub_matchISB_EEENS5_12regex_traitsIcEELb1EE16_M_rep_once_moreENSH_11_Match_modeEl
FNDA:0,_ZNSt8__detail9_ExecutorIN9__gnu_cxx17__normal_iteratorIPKcNSt7__cxx1112basic_stringIcSt11char_traitsIcESaIcEEEEESaINS5_9sub_matchISB_EEENS5_12regex_traitsIcEELb0EE16_M_handle_repeatENSH_11_Match_modeEl
FNDA:0,_ZNSt8__detail9_ExecutorIN9__gnu_cxx17__normal_iteratorIPKcNSt7__cxx1112basic_stringIcSt11char_traitsIcESaIcEEEEESaINS5_9sub_matchISB_EEENS5_12regex_traitsIcEELb1EE16_M_handle_repeatENSH_11_Match_modeEl
FNDA:0,_ZNSt8__detail9_ExecutorIN9__gnu_cxx17__normal_iteratorIPKcNSt7__cxx1112basic_stringIcSt11char_traitsIcESaIcEEEEESaINS5_9sub_matchISB_EEENS5_12regex_traitsIcEELb0EE23_M_handle_subexpr_beginENSH_11_Match_modeEl
FNDA:0,_ZNSt8__detail9_ExecutorIN9__gnu_cxx17__normal_iteratorIPKcNSt7__cxx1112basic_stringIcSt11char_traitsIcESaIcEEEEESaINS5_9sub_matchISB_EEENS5_12regex_traitsIcEELb1EE23_M_handle_subexpr_beginENSH_11_Match_modeEl
FNDA:0,_ZNSt8__detail9_ExecutorIN9__gnu_cxx17__normal_iteratorIPKcNSt7__cxx1112basic_stringIcSt11char_traitsIcESaIcEEEEESaINS5_9sub_matchISB_EEENS5_12regex_traitsIcEELb0EE21_M_handle_subexpr_endENSH_11_Match_modeEl
FNDA:0,_ZNSt8__detail9_ExecutorIN9__gnu_cxx17__normal_iteratorIPKcNSt7__cxx1112basic_stringIcSt11char_traitsIcESaIcEEEEESaINS5_9sub_matchISB_EEENS5_12regex_traitsIcEELb1EE21_M_handle_subexpr_endENSH_11_Match_modeEl
FNDA:0,_ZNSt8__detail9_ExecutorIN9__gnu_cxx17__normal_iteratorIPKcNSt7__cxx1112basic_stringIcSt11char_traitsIcESaIcEEEEESaINS5_9sub_matchISB_EEENS5_12regex_traitsIcEELb0EE30_M_handle_line_begin_assertionENSH_11_Match_modeEl
FNDA:0,_ZNSt8__detail9_ExecutorIN9__gnu_cxx17__normal_iteratorIPKcNSt7__cxx1112basic_stringIcSt11char_traitsIcESaIcEEEEESaINS5_9sub_matchISB_EEENS5_12regex_traitsIcEELb1EE30_M_handle_line_begin_assertionENSH_11_Match_modeEl
FNDA:0,_ZNSt8__detail9_ExecutorIN9__gnu_cxx17__normal_iteratorIPKcNSt7__cxx1112basic_stringIcSt11char_traitsIcESaIcEEEEESaINS5_9sub_matchISB_EEENS5_12regex_traitsIcEELb0EE28_M_handle_line_end_assertionENSH_11_Match_modeEl
FNDA:0,_ZNSt8__detail9_ExecutorIN9__gnu_cxx17__normal_iteratorIPKcNSt7__cxx1112basic_stringIcSt11char_traitsIcESaIcEEEEESaINS5_9sub_matchISB_EEENS5_12regex_traitsIcEELb1EE28_M_handle_line_end_assertionENSH_11_Match_modeEl
FNDA:0,_ZNSt8__detail9_ExecutorIN9__gnu_cxx17__normal_iteratorIPKcNSt7__cxx1112basic_stringIcSt11char_traitsIcESaIcEEEEESaINS5_9sub_matchISB_EEENS5_12regex_traitsIcEELb0EE23_M_handle_word_boundaryENSH_11_Match_modeEl
FNDA:0,_ZNSt8__detail9_ExecutorIN9__gnu_cxx17__normal_iteratorIPKcNSt7__cxx1112basic_stringIcSt11char_traitsIcESaIcEEEEESaINS5_9sub_matchISB_EEENS5_12regex_traitsIcEELb1EE23_M_handle_word_boundaryENSH_11_Match_modeEl
FNDA:0,_ZNSt8__detail9_ExecutorIN9__gnu_cxx17__normal_iteratorIPKcNSt7__cxx1112basic_stringIcSt11char_traitsIcESaIcEEEEESaINS5_9sub_matchISB_EEENS5_12regex_traitsIcEELb0EE27_M_handle_subexpr_lookaheadENSH_11_Match_modeEl
FNDA:0,_ZNSt8__detail9_ExecutorIN9__gnu_cxx17__normal_iteratorIPKcNSt7__cxx1112basic_stringIcSt11char_traitsIcESaIcEEEEESaINS5_9sub_matchISB_EEENS5_12regex_traitsIcEELb1EE27_M_handle_subexpr_lookaheadENSH_11_Match_modeEl
FNDA:0,_ZNSt8__detail9_ExecutorIN9__gnu_cxx17__normal_iteratorIPKcNSt7__cxx1112basic_stringIcSt11char_traitsIcESaIcEEEEESaINS5_9sub_matchISB_EEENS5_12regex_traitsIcEELb0EE15_M_handle_matchENSH_11_Match_modeEl
FNDA:0,_ZNSt8__detail9_ExecutorIN9__gnu_cxx17__normal_iteratorIPKcNSt7__cxx1112basic_stringIcSt11char_traitsIcESaIcEEEEESaINS5_9sub_matchISB_EEENS5_12regex_traitsIcEELb1EE15_M_handle_matchENSH_11_Match_modeEl
FNDA:0,_ZNSt8__detail16_Backref_matcherIN9__gnu_cxx17__normal_iteratorIPKcNSt7__cxx1112basic_stringIcSt11char_traitsIcESaIcEEEEENS5_12regex_traitsIcEEEC2EbRKSD_
FNDA:0,_ZNSt8__detail16_Backref_matcherIN9__gnu_cxx17__normal_iteratorIPKcNSt7__cxx1112basic_stringIcSt11char_traitsIcESaIcEEEEENS5_12regex_traitsIcEEE8_M_applyESB_SB_SB_SB_
FNDA:0,_ZZNSt8__detail16_Backref_matcherIN9__gnu_cxx17__normal_iteratorIPKcNSt7__cxx1112basic_stringIcSt11char_traitsIcESaIcEEEEENS5_12regex_traitsIcEEE8_M_applyESB_SB_SB_SB_ENKUlccE_clEcc
FNDA:0,_ZNSt8__detail9_ExecutorIN9__gnu_cxx17__normal_iteratorIPKcNSt7__cxx1112basic_stringIcSt11char_traitsIcESaIcEEEEESaINS5_9sub_matchISB_EEENS5_12regex_traitsIcEELb0EE9_M_searchEv
FNDA:0,_ZNSt8__detail9_ExecutorIN9__gnu_cxx17__normal_iteratorIPKcNSt7__cxx1112basic_stringIcSt11char_traitsIcESaIcEEEEESaINS5_9sub_matchISB_EEENS5_12regex_traitsIcEELb1EE9_M_searchEv
FNDA:0,_ZNSt8__detail9_ExecutorIN9__gnu_cxx17__normal_iteratorIPKcNSt7__cxx1112basic_stringIcSt11char_traitsIcESaIcEEEEESaINS5_9sub_matchISB_EEENS5_12regex_traitsIcEELb0EE17_M_handle_backrefENSH_11_Match_modeEl
FNDA:0,_ZNSt8__detail9_ExecutorIN9__gnu_cxx17__normal_iteratorIPKcNSt7__cxx1112basic_stringIcSt11char_traitsIcESaIcEEEEESaINS5_9sub_matchISB_EEENS5_12regex_traitsIcEELb1EE17_M_handle_backrefENSH_11_Match_modeEl
FNDA:0,_ZNSt8__detail9_ExecutorIN9__gnu_cxx17__normal_iteratorIPKcNSt7__cxx1112basic_stringIcSt11char_traitsIcESaIcEEEEESaINS5_9sub_matchISB_EEENS5_12regex_traitsIcEELb0EE16_M_handle_acceptENSH_11_Match_modeEl
FNDA:0,_ZNSt8__detail9_ExecutorIN9__gnu_cxx17__normal_iteratorIPKcNSt7__cxx1112basic_stringIcSt11char_traitsIcESaIcEEEEESaINS5_9sub_matchISB_EEENS5_12regex_traitsIcEELb1EE16_M_handle_acceptENSH_11_Match_modeEl
FNDA:0,_ZNSt8__detail9_ExecutorIN9__gnu_cxx17__normal_iteratorIPKcNSt7__cxx1112basic_stringIcSt11char_traitsIcESaIcEEEEESaINS5_9sub_matchISB_EEENS5_12regex_traitsIcEELb0EE21_M_handle_alternativeENSH_11_Match_modeEl
FNDA:0,_ZNSt8__detail9_ExecutorIN9__gnu_cxx17__normal_iteratorIPKcNSt7__cxx1112basic_stringIcSt11char_traitsIcESaIcEEEEESaINS5_9sub_matchISB_EEENS5_12regex_traitsIcEELb1EE21_M_handle_alternativeENSH_11_Match_modeEl
FNDA:0,_ZNSt8__detail9_ExecutorIN9__gnu_cxx17__normal_iteratorIPKcNSt7__cxx1112basic_stringIcSt11char_traitsIcESaIcEEEEESaINS5_9sub_matchISB_EEENS5_12regex_traitsIcEELb0EE6_M_dfsENSH_11_Match_modeEl
FNDA:0,_ZNSt8__detail9_ExecutorIN9__gnu_cxx17__normal_iteratorIPKcNSt7__cxx1112basic_stringIcSt11char_traitsIcESaIcEEEEESaINS5_9sub_matchISB_EEENS5_12regex_traitsIcEELb1EE6_M_dfsENSH_11_Match_modeEl
FNDA:0,_ZNKSt8__detail9_ExecutorIN9__gnu_cxx17__normal_iteratorIPKcNSt7__cxx1112basic_stringIcSt11char_traitsIcESaIcEEEEESaINS5_9sub_matchISB_EEENS5_12regex_traitsIcEELb0EE16_M_word_boundaryEv
FNDA:0,_ZNKSt8__detail9_ExecutorIN9__gnu_cxx17__normal_iteratorIPKcNSt7__cxx1112basic_stringIcSt11char_traitsIcESaIcEEEEESaINS5_9sub_matchISB_EEENS5_12regex_traitsIcEELb1EE16_M_word_boundaryEv
FNDA:0,_ZNSt8__detail9_ExecutorIN9__gnu_cxx17__normal_iteratorIPKcNSt7__cxx1112basic_stringIcSt11char_traitsIcESaIcEEEEESaINS5_9sub_matchISB_EEENS5_12regex_traitsIcEELb1EE16_M_main_dispatchENSH_11_Match_modeESt17integral_constantIbLb1EE
FNF:37
FNH:0
DA:39,0
DA:42,0
DA:43,0
DA:44,0
DA:45,0
DA:46,0
DA:47,0
DA:49,0
DA:50,0
DA:51,0
DA:53,0
DA:81,0
DA:84,0
DA:85,0
DA:86,0
DA:87,0
DA:88,0
DA:115,0
DA:118,0
DA:119,0
DA:120,0
DA:122,0
DA:123,0
DA:124,0
DA:125,0
DA:126,0
DA:127,0
DA:128,0
DA:130,0
DA:131,0
DA:133,0
DA:134,0
DA:135,0
DA:136,0
DA:137,0
DA:139,0
DA:140,0
DA:141,0
DA:142,0
DA:148,0
DA:154,0
DA:155,0
DA:156,0
DA:157,0
DA:159,0
DA:160,0
DA:161,0
DA:162,0
DA:164,0
DA:165,0
DA:175,0
DA:178,0
DA:179,0
DA:180,0
DA:182,0
DA:183,0
DA:184,0
DA:185,0
DA:186,0
DA:190,0
DA:192,0
DA:193,0
DA:194,0
DA:197,0
DA:205,0
DA:208,0
DA:211,0
DA:213,0
DA:215,0
DA:216,0
DA:223,0
DA:224,0
DA:225,0
DA:232,0
DA:234,0
DA:238,0
DA:239,0
DA:243,0
DA:247,0
DA:250,0
DA:252,0
DA:253,0
DA:254,0
DA:255,0
DA:256,0
DA:257,0
DA:261,0
DA:264,0
DA:266,0
DA:267,0
DA:268,0
DA:269,0
DA:270,0
DA:271,0
DA:272,0
DA:276,0
DA:279,0
DA:280,0
DA:281,0
DA:282,0
DA:286,0
DA:289,0
DA:290,0
DA:291,0
DA:292,0
DA:296,0
DA:299,0
DA:300,0
DA:301,0
DA:302,0
DA:308,0
DA:311,0
DA:312,0
DA:313,0
DA:314,0
DA:318,0
DA:321,0
DA:323,0
DA:324,0
DA:327,0
DA:329,0
DA:330,0
DA:331,0
DA:335,0
DA:336,0
DA:361,0
DA:362,0
DA:365,0
DA:369,0
DA:370,0
DA:371,0
DA:373,0
DA:374,0
DA:376,0
DA:378,0
DA:379,0
DA:380,0
DA:393,0
DA:396,0
DA:398,0
DA:399,0
DA:400,0
DA:401,0
DA:402,0
DA:403,0
DA:404,0
DA:405,0
DA:406,0
DA:407,0
DA:408,0
DA:409,0
DA:412,0
DA:414,0
DA:415,0
DA:416,0
DA:417,0
DA:420,0
DA:426,0
DA:431,0
DA:432,0
DA:433,0
DA:435,0
DA:436,0
DA:437,0
DA:438,0
DA:439,0
DA:441,0
DA:442,0
DA:445,0
DA:453,0
DA:454,0
DA:455,0
DA:456,0
DA:458,0
DA:459,0
DA:466,0
DA:467,0
DA:468,0
DA:469,0
DA:470,0
DA:472,0
DA:473,0
DA:476,0
DA:480,0
DA:483,0
DA:485,0
DA:488,0
DA:490,0
DA:491,0
DA:497,0
DA:498,0
DA:499,0
DA:500,0
DA:501,0
DA:503,0
DA:507,0
DA:510,0
DA:511,0
DA:513,0
DA:515,0
DA:516,0
DA:517,0
DA:518,0
DA:519,0
DA:520,0
DA:521,0
DA:522,0
DA:523,0
DA:524,0
DA:525,0
DA:526,0
DA:527,0
DA:528,0
DA:529,0
DA:530,0
DA:531,0
DA:532,0
DA:533,0
DA:534,0
DA:535,0
DA:536,0
DA:537,0
DA:538,0
DA:545,0
DA:548,0
DA:549,0
DA:550,0
DA:551,0
DA:553,0
DA:554,0
DA:555,0
DA:557,0
DA:558,0
DA:559,0
DA:561,0
DA:562,0
DA:564,0
LF:237
LH:0
end_of_record
TN:
SF:/usr/include/c++/13/bits/regex_scanner.h
FN:115,122,_ZNSt8__detail12_ScannerBase14_M_find_escapeEc
FN:125,126,_ZNKSt8__detail12_ScannerBase10_M_is_ecmaEv
FN:129,130,_ZNKSt8__detail12_ScannerBase11_M_is_basicEv
FN:145,146,_ZNKSt8__detail12_ScannerBase9_M_is_awkEv
FN:225,226,_ZNKSt8__detail8_ScannerIcE12_M_get_tokenEv
FN:229,230,_ZNKSt8__detail8_ScannerIcE12_M_get_valueB5cxx11Ev
FN:91,111,_ZNSt8__detail12_ScannerBaseC2ENSt15regex_constants18syntax_option_typeE
FNDA:0,_ZNSt8__detail12_ScannerBase14_M_find_escapeEc
FNDA:0,_ZNKSt8__detail12_ScannerBase10_M_is_ecmaEv
FNDA:0,_ZNKSt8__detail12_ScannerBase11_M_is_basicEv
FNDA:0,_ZNKSt8__detail12_ScannerBase9_M_is_awkEv
FNDA:0,_ZNKSt8__detail8_ScannerIcE12_M_get_tokenEv
FNDA:0,_ZNKSt8__detail8_ScannerIcE12_M_get_valueB5cxx11Ev
FNDA:0,_ZNSt8__detail12_ScannerBaseC2ENSt15regex_constants18syntax_option_typeE
FNF:7
FNH:0
DA:91,0
DA:92,0
DA:93,0
DA:94,0
DA:95,0
DA:97,0
DA:98,0
DA:99,0
DA:100,0
DA:101,0
DA:102,0
DA:103,0
DA:104,0
DA:105,0
DA:106,0
DA:107,0
DA:108,0
DA:110,0
DA:111,0
DA:115,0
DA:117,0
DA:118,0
DA:119,0
DA:120,0
DA:121,0
DA:125,0
DA:126,0
DA:129,0
DA:130,0
DA:145,0
DA:146,0
DA:225,0
DA:226,0
DA:229,0
DA:230,0
LF:35
LH:0
end_of_record
TN:
SF:/usr/include/c++/13/bits/regex_scanner.tcc
FN:207,262,_ZNSt8__detail8_ScannerIcE18_M_scan_in_bracketEv
FN:268,305,_ZNSt8__detail8_ScannerIcE16_M_scan_in_braceEv
FN:309,385,_ZNSt8__detail8_ScannerIcE18_M_eat_escape_ecmaEv
FN:391,427,_ZNSt8__detail8_ScannerIcE19_M_eat_escape_posixEv
FN:431,461,_ZNSt8__detail8_ScannerIcE17_M_eat_escape_awkEv
FN:468,481,_ZNSt8__detail8_ScannerIcE12_M_eat_classEc
FN:56,65,_ZNSt8__detail8_ScannerIcEC2EPKcS3_NSt15regex_constants18syntax_option_typeESt6locale
FN:69,88,_ZNSt8__detail8_ScannerIcE10_M_advanceEv
FN:95,200,_ZNSt8__detail8_ScannerIcE14_M_scan_normalEv
FNDA:0,_ZNSt8__detail8_ScannerIcE18_M_scan_in_bracketEv
FNDA:0,_ZNSt8__detail8_ScannerIcE16_M_scan_in_braceEv
FNDA:0,_ZNSt8__detail8_ScannerIcE18_M_eat_escape_ecmaEv
FNDA:0,_ZNSt8__detail8_ScannerIcE19_M_eat_escape_posixEv
FNDA:0,_ZNSt8__detail8_ScannerIcE17_M_eat_escape_awkEv
FNDA:0,_ZNSt8__detail8_ScannerIcE12_M_eat_classEc
FNDA:0,_ZNSt8__detail8_ScannerIcEC2EPKcS3_NSt15regex_constants18syntax_option_typeESt6locale
FNDA:0,_ZNSt8__detail8_ScannerIcE10_M_advanceEv
FNDA:0,_ZNSt8__detail8_ScannerIcE14_M_scan_normalEv
FNF:9
FNH:0
DA:56,0
DA:60,0
DA:61,0
DA:62,0
DA:63,0
DA:64,0
DA:65,0
DA:69,0
DA:72,0
DA:74,0
DA:75,0
DA:78,0
DA:79,0
DA:80,0
DA:81,0
DA:82,0
DA:83,0
DA:86,0
DA:95,0
DA:98,0
DA:100,0
DA:102,0
DA:103,0
DA:104,0
DA:106,0
DA:108,0
DA:109,0
DA:113,0
DA:114,0
DA:115,0
DA:116,0
DA:118,0
DA:119,0
DA:121,0
DA:123,0
DA:125,0
DA:127,0
DA:128,0
DA:130,0
DA:132,0
DA:133,0
DA:135,0
DA:137,0
DA:138,0
DA:139,0
DA:141,0
DA:143,0
DA:144,0
DA:145,0
DA:148,0
DA:152,0
DA:153,0
DA:155,0
DA:157,0
DA:158,0
DA:159,0
DA:161,0
DA:162,0
DA:163,0
DA:165,0
DA:166,0
DA:169,0
DA:171,0
DA:173,0
DA:174,0
DA:176,0
DA:178,0
DA:179,0
DA:180,0
DA:181,0
DA:183,0
DA:185,0
DA:186,0
DA:187,0
DA:188,0
DA:190,0
DA:191,0
DA:193,0
DA:194,0
DA:197,0
DA:198,0
DA:207,0
DA:210,0
DA:211,0
DA:213,0
DA:215,0
DA:216,0
DA:217,0
DA:219,0
DA:220,0
DA:224,0
DA:226,0
DA:227,0
DA:229,0
DA:231,0
DA:232,0
DA:234,0
DA:236,0
DA:237,0
DA:241,0
DA:242,0
DA:248,0
DA:250,0
DA:251,0
DA:254,0
DA:255,0
DA:258,0
DA:259,0
DA:261,0
DA:262,0
DA:268,0
DA:271,0
DA:272,0
DA:274,0
DA:276,0
DA:278,0
DA:279,0
DA:280,0
DA:281,0
DA:282,0
DA:284,0
DA:285,0
DA:287,0
DA:289,0
DA:291,0
DA:292,0
DA:293,0
DA:296,0
DA:298,0
DA:300,0
DA:301,0
DA:304,0
DA:305,0
DA:309,0
DA:312,0
DA:313,0
DA:315,0
DA:316,0
DA:318,0
DA:320,0
DA:321,0
DA:323,0
DA:325,0
DA:326,0
DA:328,0
DA:330,0
DA:331,0
DA:334,0
DA:335,0
DA:336,0
DA:337,0
DA:338,0
DA:339,0
DA:341,0
DA:342,0
DA:344,0
DA:346,0
DA:347,0
DA:350,0
DA:351,0
DA:353,0
DA:355,0
DA:356,0
DA:357,0
DA:359,0
DA:360,0
DA:361,0
DA:367,0
DA:369,0
DA:370,0
DA:372,0
DA:374,0
DA:375,0
DA:376,0
DA:377,0
DA:378,0
DA:382,0
DA:383,0
DA:385,0
DA:391,0
DA:394,0
DA:395,0
DA:397,0
DA:398,0
DA:400,0
DA:402,0
DA:403,0
DA:406,0
DA:408,0
DA:409,0
DA:411,0
DA:413,0
DA:414,0
DA:420,0
DA:426,0
DA:431,0
DA:434,0
DA:435,0
DA:437,0
DA:439,0
DA:440,0
DA:443,0
DA:444,0
DA:445,0
DA:447,0
DA:448,0
DA:450,0
DA:451,0
DA:452,0
DA:453,0
DA:455,0
DA:456,0
DA:457,0
DA:460,0
DA:468,0
DA:471,0
DA:472,0
DA:473,0
DA:474,0
DA:475,0
DA:476,0
DA:478,0
DA:481,0
LF:223
LH:0
end_of_record
TN:
SF:/usr/include/c++/13/bits/shared_ptr.h
FN:1005,1011,_ZSt11make_sharedIN5Catch5Clara6Detail11BoundLambdaIZNS0_21makeCommandLineParserERNS0_10ConfigDataEEUlRKNSt7__cxx1112basic_stringIcSt11char_traitsIcESaIcEEEE0_EEJRKSE_EESt10shared_ptrINSt9enable_ifIXntsrSt8is_arrayIT_E5valueESL_E4typeEEDpOT0_
FN:1005,1011,_ZSt11make_sharedIN5Catch5Clara6Detail11BoundLambdaIZNS0_21makeCommandLineParserERNS0_10ConfigDataEEUlRKNSt7__cxx1112basic_stringIcSt11char_traitsIcESaIcEEEE1_EEJRKSE_EESt10shared_ptrINSt9enable_ifIXntsrSt8is_arrayIT_E5valueESL_E4typeEEDpOT0_
FN:1005,1011,_ZSt11make_sharedIN5Catch5Clara6Detail11BoundLambdaIZNS0_21makeCommandLineParserERNS0_10ConfigDataEEUlRKNSt7__cxx1112basic_stringIcSt11char_traitsIcESaIcEEEE2_EEJRKSE_EESt10shared_ptrINSt9enable_ifIXntsrSt8is_arrayIT_E5valueESL_E4typeEEDpOT0_
FN:1005,1011,_ZSt11make_sharedIN5Catch5Clara6Detail11BoundLambdaIZNS0_21makeCommandLineParserERNS0_10ConfigDataEEUlRKNSt7__cxx1112basic_stringIcSt11char_traitsIcESaIcEEEE3_EEJRKSE_EESt10shared_ptrINSt9enable_ifIXntsrSt8is_arrayIT_E5valueESL_E4typeEEDpOT0_
FN:1005,1011,_ZSt11make_sharedIN5Catch5Clara6Detail11BoundLambdaIZNS0_21makeCommandLineParserERNS0_10ConfigDataEEUlRKNSt7__cxx1112basic_stringIcSt11char_traitsIcESaIcEEEE4_EEJRKSE_EESt10shared_ptrINSt9enable_ifIXntsrSt8is_arrayIT_E5valueESL_E4typeEEDpOT0_
FN:1005,1011,_ZSt11make_sharedIN5Catch5Clara6Detail11BoundLambdaIZNS0_21makeCommandLineParserERNS0_10ConfigDataEEUlRKNSt7__cxx1112basic_stringIcSt11char_traitsIcESaIcEEEE5_EEJRKSE_EESt10shared_ptrINSt9enable_ifIXntsrSt8is_arrayIT_E5valueESL_E4typeEEDpOT0_
FN:1005,1011,_ZSt11make_sharedIN5Catch5Clara6Detail11BoundLambdaIZNS0_21makeCommandLineParserERNS0_10ConfigDataEEUlRKNSt7__cxx1112basic_stringIcSt11char_traitsIcESaIcEEEE7_EEJRKSE_EESt10shared_ptrINSt9enable_ifIXntsrSt8is_arrayIT_E5valueESL_E4typeEEDpOT0_
FN:1005,1011,_ZSt11make_sharedIN5Catch5Clara6Detail11BoundLambdaIZNS0_21makeCommandLineParserERNS0_10ConfigDataEEUlRKNSt7__cxx1112basic_stringIcSt11char_traitsIcESaIcEEEE8_EEJRKSE_EESt10shared_ptrINSt9enable_ifIXntsrSt8is_arrayIT_E5valueESL_E4typeEEDpOT0_
FN:1005,1011,_ZSt11make_sharedIN5Catch5Clara6Detail11BoundLambdaIZNS0_21makeCommandLineParserERNS0_10ConfigDataEEUlbE0_EEJRKS6_EESt10shared_ptrINSt9enable_ifIXntsrSt8is_arrayIT_E5valueESD_E4typeEEDpOT0_
FN:1005,1011,_ZSt11make_sharedIN5Catch5Clara6Detail11BoundLambdaIZNS0_21makeCommandLineParserERNS0_10ConfigDataEEUliE_EEJRKS6_EESt10shared_ptrINSt9enable_ifIXntsrSt8is_arrayIT_E5valueESD_E4typeEEDpOT0_
FN:1005,1011,_ZSt11make_sharedIN5Catch5Clara6Detail12BoundFlagRefEJRbEESt10shared_ptrINSt9enable_ifIXntsrSt8is_arrayIT_E5valueES8_E4typeEEDpOT0_
FN:1005,1011,_ZSt11make_sharedIN5Catch5Clara6Detail13BoundValueRefINSt7__cxx1112basic_stringIcSt11char_traitsIcESaIcEEEEEJRS9_EESt10shared_ptrINSt9enable_ifIXntsrSt8is_arrayIT_E5valueESF_E4typeEEDpOT0_
FN:1005,1011,_ZSt11make_sharedIN5Catch5Clara6Detail13BoundValueRefISt6vectorINSt7__cxx1112basic_stringIcSt11char_traitsIcESaIcEEESaISA_EEEEJRSC_EESt10shared_ptrINSt9enable_ifIXntsrSt8is_arrayIT_E5valueESI_E4typeEEDpOT0_
FN:1005,1011,_ZSt11make_sharedIN5Catch5Clara6Detail13BoundValueRefIdEEJRdEESt10shared_ptrINSt9enable_ifIXntsrSt8is_arrayIT_E5valueES9_E4typeEEDpOT0_
FN:1005,1011,_ZSt11make_sharedIN5Catch5Clara6Detail13BoundValueRefIjEEJRjEESt10shared_ptrINSt9enable_ifIXntsrSt8is_arrayIT_E5valueES9_E4typeEEDpOT0_
FN:1005,1011,_ZSt11make_sharedIN5Catch5Clara6Detail13BoundValueRefIlEEJRlEESt10shared_ptrINSt9enable_ifIXntsrSt8is_arrayIT_E5valueES9_E4typeEEDpOT0_
FN:1005,1011,_ZSt11make_sharedIN5Catch5Clara6Detail15BoundFlagLambdaIZNS0_21makeCommandLineParserERNS0_10ConfigDataEEUlbE_EEJRKS6_EESt10shared_ptrINSt9enable_ifIXntsrSt8is_arrayIT_E5valueESD_E4typeEEDpOT0_
FN:1005,1011,_ZSt11make_sharedIN5Catch5Clara6Detail15BoundFlagLambdaIZNS1_4HelpC4ERbEUlbE_EEJRKS6_EESt10shared_ptrINSt9enable_ifIXntsrSt8is_arrayIT_E5valueESD_E4typeEEDpOT0_
FN:1005,1011,_ZSt11make_sharedIN5Catch5Clara6Detail15BoundManyLambdaIZNS0_21makeCommandLineParserERNS0_10ConfigDataEEUlRKNSt7__cxx1112basic_stringIcSt11char_traitsIcESaIcEEEE6_EEJRKSE_EESt10shared_ptrINSt9enable_ifIXntsrSt8is_arrayIT_E5valueESL_E4typeEEDpOT0_
FN:1005,1011,_ZSt11make_sharedIN5Catch5Clara6Detail15BoundManyLambdaIZNS0_21makeCommandLineParserERNS0_10ConfigDataEEUlRKNSt7__cxx1112basic_stringIcSt11char_traitsIcESaIcEEEE_EEJRKSE_EESt10shared_ptrINSt9enable_ifIXntsrSt8is_arrayIT_E5valueESL_E4typeEEDpOT0_
FN:1005,1011,_ZSt11make_sharedINSt7__cxx1112basic_stringIcSt11char_traitsIcESaIcEEEJRA13_KcEESt10shared_ptrINSt9enable_ifIXntsrSt8is_arrayIT_E5valueESC_E4typeEEDpOT0_
FN:1005,1011,_ZSt11make_sharedINSt8__detail4_NFAINSt7__cxx1112regex_traitsIcEEEEJRKSt6localeRNSt15regex_constants18syntax_option_typeEEESt10shared_ptrINSt9enable_ifIXntsrSt8is_arrayIT_E5valueESF_E4typeEEDpOT0_
FN:202,202,_ZNSt10shared_ptrIKNSt8__detail4_NFAINSt7__cxx1112regex_traitsIcEEEEEC2Ev
FN:202,202,_ZNSt10shared_ptrIN5Catch5Clara6Detail17BoundValueRefBaseEEC2Ev
FN:204,204,_ZNSt10shared_ptrIN5Catch5Clara6Detail8BoundRefEEC2ERKS4_
FN:359,360,_ZNSt10shared_ptrIN5Catch5Clara6Detail17BoundValueRefBaseEEC2EOS4_
FN:359,360,_ZNSt10shared_ptrIN5Catch5Clara6Detail8BoundRefEEC2EOS4_
FN:359,360,_ZNSt10shared_ptrINSt7__cxx1112basic_stringIcSt11char_traitsIcESaIcEEEEC2EOS6_
FN:368,369,_ZNSt10shared_ptrIKNSt8__detail4_NFAINSt7__cxx1112regex_traitsIcEEEEEC2IS5_vEEOS_IT_E
FN:368,369,_ZNSt10shared_ptrIN5Catch5Clara6Detail8BoundRefEEC2INS2_11BoundLambdaIZNS0_21makeCommandLineParserERNS0_10ConfigDataEEUlRKNSt7__cxx1112basic_stringIcSt11char_traitsIcESaIcEEEE0_EEvEEOS_IT_E
FN:368,369,_ZNSt10shared_ptrIN5Catch5Clara6Detail8BoundRefEEC2INS2_11BoundLambdaIZNS0_21makeCommandLineParserERNS0_10ConfigDataEEUlRKNSt7__cxx1112basic_stringIcSt11char_traitsIcESaIcEEEE1_EEvEEOS_IT_E
FN:368,369,_ZNSt10shared_ptrIN5Catch5Clara6Detail8BoundRefEEC2INS2_11BoundLambdaIZNS0_21makeCommandLineParserERNS0_10ConfigDataEEUlRKNSt7__cxx1112basic_stringIcSt11char_traitsIcESaIcEEEE2_EEvEEOS_IT_E
FN:368,369,_ZNSt10shared_ptrIN5Catch5Clara6Detail8BoundRefEEC2INS2_11BoundLambdaIZNS0_21makeCommandLineParserERNS0_10ConfigDataEEUlRKNSt7__cxx1112basic_stringIcSt11char_traitsIcESaIcEEEE3_EEvEEOS_IT_E
FN:368,369,_ZNSt10shared_ptrIN5Catch5Clara6Detail8BoundRefEEC2INS2_11BoundLambdaIZNS0_21makeCommandLineParserERNS0_10ConfigDataEEUlRKNSt7__cxx1112basic_stringIcSt11char_traitsIcESaIcEEEE4_EEvEEOS_IT_E
FN:368,369,_ZNSt10shared_ptrIN5Catch5Clara6Detail8BoundRefEEC2INS2_11BoundLambdaIZNS0_21makeCommandLineParserERNS0_10ConfigDataEEUlRKNSt7__cxx1112basic_stringIcSt11char_traitsIcESaIcEEEE5_EEvEEOS_IT_E
FN:368,369,_ZNSt10shared_ptrIN5Catch5Clara6Detail8BoundRefEEC2INS2_11BoundLambdaIZNS0_21makeCommandLineParserERNS0_10ConfigDataEEUlRKNSt7__cxx1112basic_stringIcSt11char_traitsIcESaIcEEEE7_EEvEEOS_IT_E
FN:368,369,_ZNSt10shared_ptrIN5Catch5Clara6Detail8BoundRefEEC2INS2_11BoundLambdaIZNS0_21makeCommandLineParserERNS0_10ConfigDataEEUlRKNSt7__cxx1112basic_stringIcSt11char_traitsIcESaIcEEEE8_EEvEEOS_IT_E
FN:368,369,_ZNSt10shared_ptrIN5Catch5Clara6Detail8BoundRefEEC2INS2_11BoundLambdaIZNS0_21makeCommandLineParserERNS0_10ConfigDataEEUlbE0_EEvEEOS_IT_E
FN:368,369,_ZNSt10shared_ptrIN5Catch5Clara6Detail8BoundRefEEC2INS2_11BoundLambdaIZNS0_21makeCommandLineParserERNS0_10ConfigDataEEUliE_EEvEEOS_IT_E
FN:368,369,_ZNSt10shared_ptrIN5Catch5Clara6Detail8BoundRefEEC2INS2_12BoundFlagRefEvEEOS_IT_E
FN:368,369,_ZNSt10shared_ptrIN5Catch5Clara6Detail8BoundRefEEC2INS2_13BoundValueRefINSt7__cxx1112basic_stringIcSt11char_traitsIcESaIcEEEEEvEEOS_IT_E
FN:368,369,_ZNSt10shared_ptrIN5Catch5Clara6Detail8BoundRefEEC2INS2_13BoundValueRefISt6vectorINSt7__cxx1112basic_stringIcSt11char_traitsIcESaIcEEESaISD_EEEEvEEOS_IT_E
FN:368,369,_ZNSt10shared_ptrIN5Catch5Clara6Detail8BoundRefEEC2INS2_13BoundValueRefIdEEvEEOS_IT_E
FN:368,369,_ZNSt10shared_ptrIN5Catch5Clara6Detail8BoundRefEEC2INS2_13BoundValueRefIjEEvEEOS_IT_E
FN:368,369,_ZNSt10shared_ptrIN5Catch5Clara6Detail8BoundRefEEC2INS2_13BoundValueRefIlEEvEEOS_IT_E
FN:368,369,_ZNSt10shared_ptrIN5Catch5Clara6Detail8BoundRefEEC2INS2_15BoundFlagLambdaIZNS0_21makeCommandLineParserERNS0_10ConfigDataEEUlbE_EEvEEOS_IT_E
FN:368,369,_ZNSt10shared_ptrIN5Catch5Clara6Detail8BoundRefEEC2INS2_15BoundFlagLambdaIZNS1_4HelpC4ERbEUlbE_EEvEEOS_IT_E
FN:368,369,_ZNSt10shared_ptrIN5Catch5Clara6Detail8BoundRefEEC2INS2_15BoundManyLambdaIZNS0_21makeCommandLineParserERNS0_10ConfigDataEEUlRKNSt7__cxx1112basic_stringIcSt11char_traitsIcESaIcEEEE6_EEvEEOS_IT_E
FN:368,369,_ZNSt10shared_ptrIN5Catch5Clara6Detail8BoundRefEEC2INS2_15BoundManyLambdaIZNS0_21makeCommandLineParserERNS0_10ConfigDataEEUlRKNSt7__cxx1112basic_stringIcSt11char_traitsIcESaIcEEEE_EEvEEOS_IT_E
FN:414,414,_ZNSt10shared_ptrIN5Catch5Clara6Detail17BoundValueRefBaseEEaSERKS4_
FN:414,414,_ZNSt10shared_ptrIN5Catch5Clara6Detail8BoundRefEEaSERKS4_
FN:414,414,_ZNSt10shared_ptrINSt7__cxx1112basic_stringIcSt11char_traitsIcESaIcEEEEaSERKS6_
FN:438,442,_ZNSt10shared_ptrIKNSt8__detail4_NFAINSt7__cxx1112regex_traitsIcEEEEEaSEOS7_
FN:438,442,_ZNSt10shared_ptrIN5Catch5Clara6Detail17BoundValueRefBaseEEaSEOS4_
FN:438,442,_ZNSt10shared_ptrIN5Catch5Clara6Detail8BoundRefEEaSEOS4_
FN:438,442,_ZNSt10shared_ptrINSt7__cxx1112basic_stringIcSt11char_traitsIcESaIcEEEEaSEOS6_
FN:446,450,_ZNSt10shared_ptrIN5Catch5Clara6Detail17BoundValueRefBaseEEaSINS2_13BoundValueRefINSt7__cxx1112basic_stringIcSt11char_traitsIcESaIcEEEEEEENSt9enable_ifIXsrSt13is_assignableIRSt12__shared_ptrIS3_LN9__gnu_cxx12_Lock_policyE2EES_IT_EE5valueERS4_E4typeEOSM_
FN:463,465,_ZNSt10shared_ptrIN5Catch5Clara6Detail11BoundLambdaIZNS0_21makeCommandLineParserERNS0_10ConfigDataEEUlRKNSt7__cxx1112basic_stringIcSt11char_traitsIcESaIcEEEE0_EEEC2ISaIvEJRKSE_EEESt20_Sp_alloc_shared_tagIT_EDpOT0_
FN:463,465,_ZNSt10shared_ptrIN5Catch5Clara6Detail11BoundLambdaIZNS0_21makeCommandLineParserERNS0_10ConfigDataEEUlRKNSt7__cxx1112basic_stringIcSt11char_traitsIcESaIcEEEE1_EEEC2ISaIvEJRKSE_EEESt20_Sp_alloc_shared_tagIT_EDpOT0_
FN:463,465,_ZNSt10shared_ptrIN5Catch5Clara6Detail11BoundLambdaIZNS0_21makeCommandLineParserERNS0_10ConfigDataEEUlRKNSt7__cxx1112basic_stringIcSt11char_traitsIcESaIcEEEE2_EEEC2ISaIvEJRKSE_EEESt20_Sp_alloc_shared_tagIT_EDpOT0_
FN:463,465,_ZNSt10shared_ptrIN5Catch5Clara6Detail11BoundLambdaIZNS0_21makeCommandLineParserERNS0_10ConfigDataEEUlRKNSt7__cxx1112basic_stringIcSt11char_traitsIcESaIcEEEE3_EEEC2ISaIvEJRKSE_EEESt20_Sp_alloc_shared_tagIT_EDpOT0_
FN:463,465,_ZNSt10shared_ptrIN5Catch5Clara6Detail11BoundLambdaIZNS0_21makeCommandLineParserERNS0_10ConfigDataEEUlRKNSt7__cxx1112basic_stringIcSt11char_traitsIcESaIcEEEE4_EEEC2ISaIvEJRKSE_EEESt20_Sp_alloc_shared_tagIT_EDpOT0_
FN:463,465,_ZNSt10shared_ptrIN5Catch5Clara6Detail11BoundLambdaIZNS0_21makeCommandLineParserERNS0_10ConfigDataEEUlRKNSt7__cxx1112basic_stringIcSt11char_traitsIcESaIcEEEE5_EEEC2ISaIvEJRKSE_EEESt20_Sp_alloc_shared_tagIT_EDpOT0_
FN:463,465,_ZNSt10shared_ptrIN5Catch5Clara6Detail11BoundLambdaIZNS0_21makeCommandLineParserERNS0_10ConfigDataEEUlRKNSt7__cxx1112basic_stringIcSt11char_traitsIcESaIcEEEE7_EEEC2ISaIvEJRKSE_EEESt20_Sp_alloc_shared_tagIT_EDpOT0_
FN:463,465,_ZNSt10shared_ptrIN5Catch5Clara6Detail11BoundLambdaIZNS0_21makeCommandLineParserERNS0_10ConfigDataEEUlRKNSt7__cxx1112basic_stringIcSt11char_traitsIcESaIcEEEE8_EEEC2ISaIvEJRKSE_EEESt20_Sp_alloc_shared_tagIT_EDpOT0_
FN:463,465,_ZNSt10shared_ptrIN5Catch5Clara6Detail11BoundLambdaIZNS0_21makeCommandLineParserERNS0_10ConfigDataEEUlbE0_EEEC2ISaIvEJRKS6_EEESt20_Sp_alloc_shared_tagIT_EDpOT0_
FN:463,465,_ZNSt10shared_ptrIN5Catch5Clara6Detail11BoundLambdaIZNS0_21makeCommandLineParserERNS0_10ConfigDataEEUliE_EEEC2ISaIvEJRKS6_EEESt20_Sp_alloc_shared_tagIT_EDpOT0_
FN:463,465,_ZNSt10shared_ptrIN5Catch5Clara6Detail12BoundFlagRefEEC2ISaIvEJRbEEESt20_Sp_alloc_shared_tagIT_EDpOT0_
FN:463,465,_ZNSt10shared_ptrIN5Catch5Clara6Detail13BoundValueRefINSt7__cxx1112basic_stringIcSt11char_traitsIcESaIcEEEEEEC2ISaIvEJRS9_EEESt20_Sp_alloc_shared_tagIT_EDpOT0_
FN:463,465,_ZNSt10shared_ptrIN5Catch5Clara6Detail13BoundValueRefISt6vectorINSt7__cxx1112basic_stringIcSt11char_traitsIcESaIcEEESaISA_EEEEEC2ISaIvEJRSC_EEESt20_Sp_alloc_shared_tagIT_EDpOT0_
FN:463,465,_ZNSt10shared_ptrIN5Catch5Clara6Detail13BoundValueRefIdEEEC2ISaIvEJRdEEESt20_Sp_alloc_shared_tagIT_EDpOT0_
FN:463,465,_ZNSt10shared_ptrIN5Catch5Clara6Detail13BoundValueRefIjEEEC2ISaIvEJRjEEESt20_Sp_alloc_shared_tagIT_EDpOT0_
FN:463,465,_ZNSt10shared_ptrIN5Catch5Clara6Detail13BoundValueRefIlEEEC2ISaIvEJRlEEESt20_Sp_alloc_shared_tagIT_EDpOT0_
FN:463,465,_ZNSt10shared_ptrIN5Catch5Clara6Detail15BoundFlagLambdaIZNS0_21makeCommandLineParserERNS0_10ConfigDataEEUlbE_EEEC2ISaIvEJRKS6_EEESt20_Sp_alloc_shared_tagIT_EDpOT0_
FN:463,465,_ZNSt10shared_ptrIN5Catch5Clara6Detail15BoundFlagLambdaIZNS1_4HelpC4ERbEUlbE_EEEC2ISaIvEJRKS6_EEESt20_Sp_alloc_shared_tagIT_EDpOT0_
FN:463,465,_ZNSt10shared_ptrIN5Catch5Clara6Detail15BoundManyLambdaIZNS0_21makeCommandLineParserERNS0_10ConfigDataEEUlRKNSt7__cxx1112basic_stringIcSt11char_traitsIcESaIcEEEE6_EEEC2ISaIvEJRKSE_EEESt20_Sp_alloc_shared_tagIT_EDpOT0_
FN:463,465,_ZNSt10shared_ptrIN5Catch5Clara6Detail15BoundManyLambdaIZNS0_21makeCommandLineParserERNS0_10ConfigDataEEUlRKNSt7__cxx1112basic_stringIcSt11char_traitsIcESaIcEEEE_EEEC2ISaIvEJRKSE_EEESt20_Sp_alloc_shared_tagIT_EDpOT0_
FN:463,465,_ZNSt10shared_ptrINSt7__cxx1112basic_stringIcSt11char_traitsIcESaIcEEEEC2ISaIvEJRA13_KcEEESt20_Sp_alloc_shared_tagIT_EDpOT0_
FN:463,465,_ZNSt10shared_ptrINSt8__detail4_NFAINSt7__cxx1112regex_traitsIcEEEEEC2ISaIvEJRKSt6localeRNSt15regex_constants18syntax_option_typeEEEESt20_Sp_alloc_shared_tagIT_EDpOT0_
FN:561,562,_ZSteqIKNSt8__detail4_NFAINSt7__cxx1112regex_traitsIcEEEEEbRKSt10shared_ptrIT_EDn
FNDA:1,_ZSt11make_sharedIN5Catch5Clara6Detail11BoundLambdaIZNS0_21makeCommandLineParserERNS0_10ConfigDataEEUlRKNSt7__cxx1112basic_stringIcSt11char_traitsIcESaIcEEEE0_EEJRKSE_EESt10shared_ptrINSt9enable_ifIXntsrSt8is_arrayIT_E5valueESL_E4typeEEDpOT0_
FNDA:1,_ZSt11make_sharedIN5Catch5Clara6Detail11BoundLambdaIZNS0_21makeCommandLineParserERNS0_10ConfigDataEEUlRKNSt7__cxx1112basic_stringIcSt11char_traitsIcESaIcEEEE1_EEJRKSE_EESt10shared_ptrINSt9enable_ifIXntsrSt8is_arrayIT_E5valueESL_E4typeEEDpOT0_
FNDA:1,_ZSt11make_sharedIN5Catch5Clara6Detail11BoundLambdaIZNS0_21makeCommandLineParserERNS0_10ConfigDataEEUlRKNSt7__cxx1112basic_stringIcSt11char_traitsIcESaIcEEEE2_EEJRKSE_EESt10shared_ptrINSt9enable_ifIXntsrSt8is_arrayIT_E5valueESL_E4typeEEDpOT0_
FNDA:1,_ZSt11make_sharedIN5Catch5Clara6Detail11BoundLambdaIZNS0_21makeCommandLineParserERNS0_10ConfigDataEEUlRKNSt7__cxx1112basic_stringIcSt11char_traitsIcESaIcEEEE3_EEJRKSE_EESt10shared_ptrINSt9enable_ifIXntsrSt8is_arrayIT_E5valueESL_E4typeEEDpOT0_
FNDA:1,_ZSt11make_sharedIN5Catch5Clara6Detail11BoundLambdaIZNS0_21makeCommandLineParserERNS0_10ConfigDataEEUlRKNSt7__cxx1112basic_stringIcSt11char_traitsIcESaIcEEEE4_EEJRKSE_EESt10shared_ptrINSt9enable_ifIXntsrSt8is_arrayIT_E5valueESL_E4typeEEDpOT0_
FNDA:1,_ZSt11make_sharedIN5Catch5Clara6Detail11BoundLambdaIZNS0_21makeCommandLineParserERNS0_10ConfigDataEEUlRKNSt7__cxx1112basic_stringIcSt11char_traitsIcESaIcEEEE5_EEJRKSE_EESt10shared_ptrINSt9enable_ifIXntsrSt8is_arrayIT_E5valueESL_E4typeEEDpOT0_
FNDA:1,_ZSt11make_sharedIN5Catch5Clara6Detail11BoundLambdaIZNS0_21makeCommandLineParserERNS0_10ConfigDataEEUlRKNSt7__cxx1112basic_stringIcSt11char_traitsIcESaIcEEEE7_EEJRKSE_EESt10shared_ptrINSt9enable_ifIXntsrSt8is_arrayIT_E5valueESL_E4typeEEDpOT0_
FNDA:1,_ZSt11make_sharedIN5Catch5Clara6Detail11BoundLambdaIZNS0_21makeCommandLineParserERNS0_10ConfigDataEEUlRKNSt7__cxx1112basic_stringIcSt11char_traitsIcESaIcEEEE8_EEJRKSE_EESt10shared_ptrINSt9enable_ifIXntsrSt8is_arrayIT_E5valueESL_E4typeEEDpOT0_
FNDA:1,_ZSt11make_sharedIN5Catch5Clara6Detail11BoundLambdaIZNS0_21makeCommandLineParserERNS0_10ConfigDataEEUlbE0_EEJRKS6_EESt10shared_ptrINSt9enable_ifIXntsrSt8is_arrayIT_E5valueESD_E4typeEEDpOT0_
FNDA:1,_ZSt11make_sharedIN5Catch5Clara6Detail11BoundLambdaIZNS0_21makeCommandLineParserERNS0_10ConfigDataEEUliE_EEJRKS6_EESt10shared_ptrINSt9enable_ifIXntsrSt8is_arrayIT_E5valueESD_E4typeEEDpOT0_
FNDA:13,_ZSt11make_sharedIN5Catch5Clara6Detail12BoundFlagRefEJRbEESt10shared_ptrINSt9enable_ifIXntsrSt8is_arrayIT_E5valueES8_E4typeEEDpOT0_
FNDA:4,_ZSt11make_sharedIN5Catch5Clara6Detail13BoundValueRefINSt7__cxx1112basic_stringIcSt11char_traitsIcESaIcEEEEEJRS9_EESt10shared_ptrINSt9enable_ifIXntsrSt8is_arrayIT_E5valueESF_E4typeEEDpOT0_
FNDA:2,_ZSt11make_sharedIN5Catch5Clara6Detail13BoundValueRefISt6vectorINSt7__cxx1112basic_stringIcSt11char_traitsIcESaIcEEESaISA_EEEEJRSC_EESt10shared_ptrINSt9enable_ifIXntsrSt8is_arrayIT_E5valueESI_E4typeEEDpOT0_
FNDA:2,_ZSt11make_sharedIN5Catch5Clara6Detail13BoundValueRefIdEEJRdEESt10shared_ptrINSt9enable_ifIXntsrSt8is_arrayIT_E5valueES9_E4typeEEDpOT0_
FNDA:2,_ZSt11make_sharedIN5Catch5Clara6Detail13BoundValueRefIjEEJRjEESt10shared_ptrINSt9enable_ifIXntsrSt8is_arrayIT_E5valueES9_E4typeEEDpOT0_
FNDA:1,_ZSt11make_sharedIN5Catch5Clara6Detail13BoundValueRefIlEEJRlEESt10shared_ptrINSt9enable_ifIXntsrSt8is_arrayIT_E5valueES9_E4typeEEDpOT0_
FNDA:1,_ZSt11make_sharedIN5Catch5Clara6Detail15BoundFlagLambdaIZNS0_21makeCommandLineParserERNS0_10ConfigDataEEUlbE_EEJRKS6_EESt10shared_ptrINSt9enable_ifIXntsrSt8is_arrayIT_E5valueESD_E4typeEEDpOT0_
FNDA:1,_ZSt11make_sharedIN5Catch5Clara6Detail15BoundFlagLambdaIZNS1_4HelpC4ERbEUlbE_EEJRKS6_EESt10shared_ptrINSt9enable_ifIXntsrSt8is_arrayIT_E5valueESD_E4typeEEDpOT0_
FNDA:1,_ZSt11make_sharedIN5Catch5Clara6Detail15BoundManyLambdaIZNS0_21makeCommandLineParserERNS0_10ConfigDataEEUlRKNSt7__cxx1112basic_stringIcSt11char_traitsIcESaIcEEEE6_EEJRKSE_EESt10shared_ptrINSt9enable_ifIXntsrSt8is_arrayIT_E5valueESL_E4typeEEDpOT0_
FNDA:1,_ZSt11make_sharedIN5Catch5Clara6Detail15BoundManyLambdaIZNS0_21makeCommandLineParserERNS0_10ConfigDataEEUlRKNSt7__cxx1112basic_stringIcSt11char_traitsIcESaIcEEEE_EEJRKSE_EESt10shared_ptrINSt9enable_ifIXntsrSt8is_arrayIT_E5valueESL_E4typeEEDpOT0_
FNDA:3,_ZSt11make_sharedINSt7__cxx1112basic_stringIcSt11char_traitsIcESaIcEEEJRA13_KcEESt10shared_ptrINSt9enable_ifIXntsrSt8is_arrayIT_E5valueESC_E4typeEEDpOT0_
FNDA:0,_ZSt11make_sharedINSt8__detail4_NFAINSt7__cxx1112regex_traitsIcEEEEJRKSt6localeRNSt15regex_constants18syntax_option_typeEEESt10shared_ptrINSt9enable_ifIXntsrSt8is_arrayIT_E5valueESF_E4typeEEDpOT0_
FNDA:0,_ZNSt10shared_ptrIKNSt8__detail4_NFAINSt7__cxx1112regex_traitsIcEEEEEC2Ev
FNDA:3,_ZNSt10shared_ptrIN5Catch5Clara6Detail17BoundValueRefBaseEEC2Ev
FNDA:17,_ZNSt10shared_ptrIN5Catch5Clara6Detail8BoundRefEEC2ERKS4_
FNDA:38,_ZNSt10shared_ptrIN5Catch5Clara6Detail17BoundValueRefBaseEEC2EOS4_
FNDA:98,_ZNSt10shared_ptrIN5Catch5Clara6Detail8BoundRefEEC2EOS4_
FNDA:38,_ZNSt10shared_ptrINSt7__cxx1112basic_stringIcSt11char_traitsIcESaIcEEEEC2EOS6_
FNDA:0,_ZNSt10shared_ptrIKNSt8__detail4_NFAINSt7__cxx1112regex_traitsIcEEEEEC2IS5_vEEOS_IT_E
FNDA:1,_ZNSt10shared_ptrIN5Catch5Clara6Detail8BoundRefEEC2INS2_11BoundLambdaIZNS0_21makeCommandLineParserERNS0_10ConfigDataEEUlRKNSt7__cxx1112basic_stringIcSt11char_traitsIcESaIcEEEE0_EEvEEOS_IT_E
FNDA:1,_ZNSt10shared_ptrIN5Catch5Clara6Detail8BoundRefEEC2INS2_11BoundLambdaIZNS0_21makeCommandLineParserERNS0_10ConfigDataEEUlRKNSt7__cxx1112basic_stringIcSt11char_traitsIcESaIcEEEE1_EEvEEOS_IT_E
FNDA:1,_ZNSt10shared_ptrIN5Catch5Clara6Detail8BoundRefEEC2INS2_11BoundLambdaIZNS0_21makeCommandLineParserERNS0_10ConfigDataEEUlRKNSt7__cxx1112basic_stringIcSt11char_traitsIcESaIcEEEE2_EEvEEOS_IT_E
FNDA:1,_ZNSt10shared_ptrIN5Catch5Clara6Detail8BoundRefEEC2INS2_11BoundLambdaIZNS0_21makeCommandLineParserERNS0_10ConfigDataEEUlRKNSt7__cxx1112basic_stringIcSt11char_traitsIcESaIcEEEE3_EEvEEOS_IT_E
FNDA:1,_ZNSt10shared_ptrIN5Catch5Clara6Detail8BoundRefEEC2INS2_11BoundLambdaIZNS0_21makeCommandLineParserERNS0_10ConfigDataEEUlRKNSt7__cxx1112basic_stringIcSt11char_traitsIcESaIcEEEE4_EEvEEOS_IT_E
FNDA:1,_ZNSt10shared_ptrIN5Catch5Clara6Detail8BoundRefEEC2INS2_11BoundLambdaIZNS0_21makeCommandLineParserERNS0_10ConfigDataEEUlRKNSt7__cxx1112basic_stringIcSt11char_traitsIcESaIcEEEE5_EEvEEOS_IT_E
FNDA:1,_ZNSt10shared_ptrIN5Catch5Clara6Detail8BoundRefEEC2INS2_11BoundLambdaIZNS0_21makeCommandLineParserERNS0_10ConfigDataEEUlRKNSt7__cxx1112basic_stringIcSt11char_traitsIcESaIcEEEE7_EEvEEOS_IT_E
FNDA:1,_ZNSt10shared_ptrIN5Catch5Clara6Detail8BoundRefEEC2INS2_11BoundLambdaIZNS0_21makeCommandLineParserERNS0_10ConfigDataEEUlRKNSt7__cxx1112basic_stringIcSt11char_traitsIcESaIcEEEE8_EEvEEOS_IT_E
FNDA:1,_ZNSt10shared_ptrIN5Catch5Clara6Detail8BoundRefEEC2INS2_11BoundLambdaIZNS0_21makeCommandLineParserERNS0_10ConfigDataEEUlbE0_EEvEEOS_IT_E
FNDA:1,_ZNSt10shared_ptrIN5Catch5Clara6Detail8BoundRefEEC2INS2_11BoundLambdaIZNS0_21makeCommandLineParserERNS0_10ConfigDataEEUliE_EEvEEOS_IT_E
FNDA:13,_ZNSt10shared_ptrIN5Catch5Clara6Detail8BoundRefEEC2INS2_12BoundFlagRefEvEEOS_IT_E
FNDA:3,_ZNSt10shared_ptrIN5Catch5Clara6Detail8BoundRefEEC2INS2_13BoundValueRefINSt7__cxx1112basic_stringIcSt11char_traitsIcESaIcEEEEEvEEOS_IT_E
FNDA:2,_ZNSt10shared_ptrIN5Catch5Clara6Detail8BoundRefEEC2INS2_13BoundValueRefISt6vectorINSt7__cxx1112basic_stringIcSt11char_traitsIcESaIcEEESaISD_EEEEvEEOS_IT_E
FNDA:2,_ZNSt10shared_ptrIN5Catch5Clara6Detail8BoundRefEEC2INS2_13BoundValueRefIdEEvEEOS_IT_E
FNDA:2,_ZNSt10shared_ptrIN5Catch5Clara6Detail8BoundRefEEC2INS2_13BoundValueRefIjEEvEEOS_IT_E
FNDA:1,_ZNSt10shared_ptrIN5Catch5Clara6Detail8BoundRefEEC2INS2_13BoundValueRefIlEEvEEOS_IT_E
FNDA:1,_ZNSt10shared_ptrIN5Catch5Clara6Detail8BoundRefEEC2INS2_15BoundFlagLambdaIZNS0_21makeCommandLineParserERNS0_10ConfigDataEEUlbE_EEvEEOS_IT_E
FNDA:1,_ZNSt10shared_ptrIN5Catch5Clara6Detail8BoundRefEEC2INS2_15BoundFlagLambdaIZNS1_4HelpC4ERbEUlbE_EEvEEOS_IT_E
FNDA:1,_ZNSt10shared_ptrIN5Catch5Clara6Detail8BoundRefEEC2INS2_15BoundManyLambdaIZNS0_21makeCommandLineParserERNS0_10ConfigDataEEUlRKNSt7__cxx1112basic_stringIcSt11char_traitsIcESaIcEEEE6_EEvEEOS_IT_E
FNDA:1,_ZNSt10shared_ptrIN5Catch5Clara6Detail8BoundRefEEC2INS2_15BoundManyLambdaIZNS0_21makeCommandLineParserERNS0_10ConfigDataEEUlRKNSt7__cxx1112basic_stringIcSt11char_traitsIcESaIcEEEE_EEvEEOS_IT_E
FNDA:1,_ZNSt10shared_ptrIN5Catch5Clara6Detail17BoundValueRefBaseEEaSERKS4_
FNDA:0,_ZNSt10shared_ptrIN5Catch5Clara6Detail8BoundRefEEaSERKS4_
FNDA:1,_ZNSt10shared_ptrINSt7__cxx1112basic_stringIcSt11char_traitsIcESaIcEEEEaSERKS6_
FNDA:0,_ZNSt10shared_ptrIKNSt8__detail4_NFAINSt7__cxx1112regex_traitsIcEEEEEaSEOS7_
FNDA:1,_ZNSt10shared_ptrIN5Catch5Clara6Detail17BoundValueRefBaseEEaSEOS4_
FNDA:0,_ZNSt10shared_ptrIN5Catch5Clara6Detail8BoundRefEEaSEOS4_
FNDA:1,_ZNSt10shared_ptrINSt7__cxx1112basic_stringIcSt11char_traitsIcESaIcEEEEaSEOS6_
FNDA:1,_ZNSt10shared_ptrIN5Catch5Clara6Detail17BoundValueRefBaseEEaSINS2_13BoundValueRefINSt7__cxx1112basic_stringIcSt11char_traitsIcESaIcEEEEEEENSt9enable_ifIXsrSt13is_assignableIRSt12__shared_ptrIS3_LN9__gnu_cxx12_Lock_policyE2EES_IT_EE5valueERS4_E4typeEOSM_
FNDA:1,_ZNSt10shared_ptrIN5Catch5Clara6Detail11BoundLambdaIZNS0_21makeCommandLineParserERNS0_10ConfigDataEEUlRKNSt7__cxx1112basic_stringIcSt11char_traitsIcESaIcEEEE0_EEEC2ISaIvEJRKSE_EEESt20_Sp_alloc_shared_tagIT_EDpOT0_
FNDA:1,_ZNSt10shared_ptrIN5Catch5Clara6Detail11BoundLambdaIZNS0_21makeCommandLineParserERNS0_10ConfigDataEEUlRKNSt7__cxx1112basic_stringIcSt11char_traitsIcESaIcEEEE1_EEEC2ISaIvEJRKSE_EEESt20_Sp_alloc_shared_tagIT_EDpOT0_
FNDA:1,_ZNSt10shared_ptrIN5Catch5Clara6Detail11BoundLambdaIZNS0_21makeCommandLineParserERNS0_10ConfigDataEEUlRKNSt7__cxx1112basic_stringIcSt11char_traitsIcESaIcEEEE2_EEEC2ISaIvEJRKSE_EEESt20_Sp_alloc_shared_tagIT_EDpOT0_
FNDA:1,_ZNSt10shared_ptrIN5Catch5Clara6Detail11BoundLambdaIZNS0_21makeCommandLineParserERNS0_10ConfigDataEEUlRKNSt7__cxx1112basic_stringIcSt11char_traitsIcESaIcEEEE3_EEEC2ISaIvEJRKSE_EEESt20_Sp_alloc_shared_tagIT_EDpOT0_
FNDA:1,_ZNSt10shared_ptrIN5Catch5Clara6Detail11BoundLambdaIZNS0_21makeCommandLineParserERNS0_10ConfigDataEEUlRKNSt7__cxx1112basic_stringIcSt11char_traitsIcESaIcEEEE4_EEEC2ISaIvEJRKSE_EEESt20_Sp_alloc_shared_tagIT_EDpOT0_
FNDA:1,_ZNSt10shared_ptrIN5Catch5Clara6Detail11BoundLambdaIZNS0_21makeCommandLineParserERNS0_10ConfigDataEEUlRKNSt7__cxx1112basic_stringIcSt11char_traitsIcESaIcEEEE5_EEEC2ISaIvEJRKSE_EEESt20_Sp_alloc_shared_tagIT_EDpOT0_
FNDA:1,_ZNSt10shared_ptrIN5Catch5Clara6Detail11BoundLambdaIZNS0_21makeCommandLineParserERNS0_10ConfigDataEEUlRKNSt7__cxx1112basic_stringIcSt11char_traitsIcESaIcEEEE7_EEEC2ISaIvEJRKSE_EEESt20_Sp_alloc_shared_tagIT_EDpOT0_
FNDA:1,_ZNSt10shared_ptrIN5Catch5Clara6Detail11BoundLambdaIZNS0_21makeCommandLineParserERNS0_10ConfigDataEEUlRKNSt7__cxx1112basic_stringIcSt11char_traitsIcESaIcEEEE8_EEEC2ISaIvEJRKSE_EEESt20_Sp_alloc_shared_tagIT_EDpOT0_
FNDA:1,_ZNSt10shared_ptrIN5Catch5Clara6Detail11BoundLambdaIZNS0_21makeCommandLineParserERNS0_10ConfigDataEEUlbE0_EEEC2ISaIvEJRKS6_EEESt20_Sp_alloc_shared_tagIT_EDpOT0_
FNDA:1,_ZNSt10shared_ptrIN5Catch5Clara6Detail11BoundLambdaIZNS0_21makeCommandLineParserERNS0_10ConfigDataEEUliE_EEEC2ISaIvEJRKS6_EEESt20_Sp_alloc_shared_tagIT_EDpOT0_
FNDA:13,_ZNSt10shared_ptrIN5Catch5Clara6Detail12BoundFlagRefEEC2ISaIvEJRbEEESt20_Sp_alloc_shared_tagIT_EDpOT0_
FNDA:4,_ZNSt10shared_ptrIN5Catch5Clara6Detail13BoundValueRefINSt7__cxx1112basic_stringIcSt11char_traitsIcESaIcEEEEEEC2ISaIvEJRS9_EEESt20_Sp_alloc_shared_tagIT_EDpOT0_
FNDA:2,_ZNSt10shared_ptrIN5Catch5Clara6Detail13BoundValueRefISt6vectorINSt7__cxx1112basic_stringIcSt11char_traitsIcESaIcEEESaISA_EEEEEC2ISaIvEJRSC_EEESt20_Sp_alloc_shared_tagIT_EDpOT0_
FNDA:2,_ZNSt10shared_ptrIN5Catch5Clara6Detail13BoundValueRefIdEEEC2ISaIvEJRdEEESt20_Sp_alloc_shared_tagIT_EDpOT0_
FNDA:2,_ZNSt10shared_ptrIN5Catch5Clara6Detail13BoundValueRefIjEEEC2ISaIvEJRjEEESt20_Sp_alloc_shared_tagIT_EDpOT0_
FNDA:1,_ZNSt10shared_ptrIN5Catch5Clara6Detail13BoundValueRefIlEEEC2ISaIvEJRlEEESt20_Sp_alloc_shared_tagIT_EDpOT0_
FNDA:1,_ZNSt10shared_ptrIN5Catch5Clara6Detail15BoundFlagLambdaIZNS0_21makeCommandLineParserERNS0_10ConfigDataEEUlbE_EEEC2ISaIvEJRKS6_EEESt20_Sp_alloc_shared_tagIT_EDpOT0_
FNDA:1,_ZNSt10shared_ptrIN5Catch5Clara6Detail15BoundFlagLambdaIZNS1_4HelpC4ERbEUlbE_EEEC2ISaIvEJRKS6_EEESt20_Sp_alloc_shared_tagIT_EDpOT0_
FNDA:1,_ZNSt10shared_ptrIN5Catch5Clara6Detail15BoundManyLambdaIZNS0_21makeCommandLineParserERNS0_10ConfigDataEEUlRKNSt7__cxx1112basic_stringIcSt11char_traitsIcESaIcEEEE6_EEEC2ISaIvEJRKSE_EEESt20_Sp_alloc_shared_tagIT_EDpOT0_
FNDA:1,_ZNSt10shared_ptrIN5Catch5Clara6Detail15BoundManyLambdaIZNS0_21makeCommandLineParserERNS0_10ConfigDataEEUlRKNSt7__cxx1112basic_stringIcSt11char_traitsIcESaIcEEEE_EEEC2ISaIvEJRKSE_EEESt20_Sp_alloc_shared_tagIT_EDpOT0_
FNDA:3,_ZNSt10shared_ptrINSt7__cxx1112basic_stringIcSt11char_traitsIcESaIcEEEEC2ISaIvEJRA13_KcEEESt20_Sp_alloc_shared_tagIT_EDpOT0_
FNDA:0,_ZNSt10shared_ptrINSt8__detail4_NFAINSt7__cxx1112regex_traitsIcEEEEEC2ISaIvEJRKSt6localeRNSt15regex_constants18syntax_option_typeEEEESt20_Sp_alloc_shared_tagIT_EDpOT0_
FNDA:0,_ZSteqIKNSt8__detail4_NFAINSt7__cxx1112regex_traitsIcEEEEEbRKSt10shared_ptrIT_EDn
FNF:80
FNH:72
DA:202,3
DA:204,17
DA:359,174
DA:360,174
DA:368,37
DA:369,37
DA:414,2
DA:438,2
DA:440,2
DA:441,2
DA:446,1
DA:448,1
DA:449,1
DA:463,41
DA:464,41
DA:465,41
DA:561,0
DA:562,0
DA:1005,41
DA:1010,82
LF:20
LH:18
end_of_record
TN:
SF:/usr/include/c++/13/bits/shared_ptr_base.h
FN:1068,1072,_ZNSt14__shared_countILN9__gnu_cxx12_Lock_policyE2EED2Ev
FN:1074,1079,_ZNSt14__shared_countILN9__gnu_cxx12_Lock_policyE2EEC2ERKS2_
FN:1082,1094,_ZNSt14__shared_countILN9__gnu_cxx12_Lock_policyE2EEaSERKS2_
FN:1097,1102,_ZNSt14__shared_countILN9__gnu_cxx12_Lock_policyE2EE7_M_swapERS2_
FN:129,130,_ZNSt16_Sp_counted_baseILN9__gnu_cxx12_Lock_policyE2EEC2Ev
FN:133,134,_ZNSt16_Sp_counted_baseILN9__gnu_cxx12_Lock_policyE2EED0Ev
FN:133,134,_ZNSt16_Sp_counted_baseILN9__gnu_cxx12_Lock_policyE2EED2Ev
FN:1347,1351,_ZNKSt19__shared_ptr_accessIKNSt8__detail4_NFAINSt7__cxx1112regex_traitsIcEEEELN9__gnu_cxx12_Lock_policyE2ELb0ELb0EEdeEv
FN:1347,1351,_ZNKSt19__shared_ptr_accessINSt7__cxx1112basic_stringIcSt11char_traitsIcESaIcEEELN9__gnu_cxx12_Lock_policyE2ELb0ELb0EEdeEv
FN:1347,1351,_ZNKSt19__shared_ptr_accessINSt8__detail4_NFAINSt7__cxx1112regex_traitsIcEEEELN9__gnu_cxx12_Lock_policyE2ELb0ELb0EEdeEv
FN:1354,1358,_ZNKSt19__shared_ptr_accessIKNSt8__detail4_NFAINSt7__cxx1112regex_traitsIcEEEELN9__gnu_cxx12_Lock_policyE2ELb0ELb0EEptEv
FN:1354,1358,_ZNKSt19__shared_ptr_accessIN5Catch5Clara6Detail17BoundValueRefBaseELN9__gnu_cxx12_Lock_policyE2ELb0ELb0EEptEv
FN:1354,1358,_ZNKSt19__shared_ptr_accessIN5Catch5Clara6Detail8BoundRefELN9__gnu_cxx12_Lock_policyE2ELb0ELb0EEptEv
FN:1354,1358,_ZNKSt19__shared_ptr_accessINSt8__detail4_NFAINSt7__cxx1112regex_traitsIcEEEELN9__gnu_cxx12_Lock_policyE2ELb0ELb0EEptEv
FN:1362,1363,_ZNKSt19__shared_ptr_accessIKNSt8__detail4_NFAINSt7__cxx1112regex_traitsIcEEEELN9__gnu_cxx12_Lock_policyE2ELb0ELb0EE6_M_getEv
FN:1362,1363,_ZNKSt19__shared_ptr_accessIN5Catch5Clara6Detail17BoundValueRefBaseELN9__gnu_cxx12_Lock_policyE2ELb0ELb0EE6_M_getEv
FN:1362,1363,_ZNKSt19__shared_ptr_accessIN5Catch5Clara6Detail8BoundRefELN9__gnu_cxx12_Lock_policyE2ELb0ELb0EE6_M_getEv
FN:1362,1363,_ZNKSt19__shared_ptr_accessINSt7__cxx1112basic_stringIcSt11char_traitsIcESaIcEEELN9__gnu_cxx12_Lock_policyE2ELb0ELb0EE6_M_getEv
FN:1362,1363,_ZNKSt19__shared_ptr_accessINSt8__detail4_NFAINSt7__cxx1112regex_traitsIcEEEELN9__gnu_cxx12_Lock_policyE2ELb0ELb0EE6_M_getEv
FN:143,144,_ZNSt16_Sp_counted_baseILN9__gnu_cxx12_Lock_policyE2EE10_M_destroyEv
FN:1462,1464,_ZNSt12__shared_ptrIKNSt8__detail4_NFAINSt7__cxx1112regex_traitsIcEEEELN9__gnu_cxx12_Lock_policyE2EEC2Ev
FN:1462,1464,_ZNSt12__shared_ptrIN5Catch5Clara6Detail17BoundValueRefBaseELN9__gnu_cxx12_Lock_policyE2EEC2Ev
FN:151,152,_ZNSt16_Sp_counted_baseILN9__gnu_cxx12_Lock_policyE2EE15_M_add_ref_copyEv
FN:1522,1522,_ZNSt12__shared_ptrIN5Catch5Clara6Detail8BoundRefELN9__gnu_cxx12_Lock_policyE2EEC2ERKS6_
FN:1523,1523,_ZNSt12__shared_ptrIN5Catch5Clara6Detail17BoundValueRefBaseELN9__gnu_cxx12_Lock_policyE2EEaSERKS6_
FN:1523,1523,_ZNSt12__shared_ptrIN5Catch5Clara6Detail8BoundRefELN9__gnu_cxx12_Lock_policyE2EEaSERKS6_
FN:1523,1523,_ZNSt12__shared_ptrINSt7__cxx1112basic_stringIcSt11char_traitsIcESaIcEEELN9__gnu_cxx12_Lock_policyE2EEaSERKS8_
FN:1524,1524,_ZNSt12__shared_ptrIKNSt8__detail4_NFAINSt7__cxx1112regex_traitsIcEEEELN9__gnu_cxx12_Lock_policyE2EED2Ev
FN:1524,1524,_ZNSt12__shared_ptrIN5Catch5Clara6Detail11BoundLambdaIZNS0_21makeCommandLineParserERNS0_10ConfigDataEEUlRKNSt7__cxx1112basic_stringIcSt11char_traitsIcESaIcEEEE0_EELN9__gnu_cxx12_Lock_policyE2EED2Ev
FN:1524,1524,_ZNSt12__shared_ptrIN5Catch5Clara6Detail11BoundLambdaIZNS0_21makeCommandLineParserERNS0_10ConfigDataEEUlRKNSt7__cxx1112basic_stringIcSt11char_traitsIcESaIcEEEE1_EELN9__gnu_cxx12_Lock_policyE2EED2Ev
FN:1524,1524,_ZNSt12__shared_ptrIN5Catch5Clara6Detail11BoundLambdaIZNS0_21makeCommandLineParserERNS0_10ConfigDataEEUlRKNSt7__cxx1112basic_stringIcSt11char_traitsIcESaIcEEEE2_EELN9__gnu_cxx12_Lock_policyE2EED2Ev
FN:1524,1524,_ZNSt12__shared_ptrIN5Catch5Clara6Detail11BoundLambdaIZNS0_21makeCommandLineParserERNS0_10ConfigDataEEUlRKNSt7__cxx1112basic_stringIcSt11char_traitsIcESaIcEEEE3_EELN9__gnu_cxx12_Lock_policyE2EED2Ev
FN:1524,1524,_ZNSt12__shared_ptrIN5Catch5Clara6Detail11BoundLambdaIZNS0_21makeCommandLineParserERNS0_10ConfigDataEEUlRKNSt7__cxx1112basic_stringIcSt11char_traitsIcESaIcEEEE4_EELN9__gnu_cxx12_Lock_policyE2EED2Ev
FN:1524,1524,_ZNSt12__shared_ptrIN5Catch5Clara6Detail11BoundLambdaIZNS0_21makeCommandLineParserERNS0_10ConfigDataEEUlRKNSt7__cxx1112basic_stringIcSt11char_traitsIcESaIcEEEE5_EELN9__gnu_cxx12_Lock_policyE2EED2Ev
FN:1524,1524,_ZNSt12__shared_ptrIN5Catch5Clara6Detail11BoundLambdaIZNS0_21makeCommandLineParserERNS0_10ConfigDataEEUlRKNSt7__cxx1112basic_stringIcSt11char_traitsIcESaIcEEEE7_EELN9__gnu_cxx12_Lock_policyE2EED2Ev
FN:1524,1524,_ZNSt12__shared_ptrIN5Catch5Clara6Detail11BoundLambdaIZNS0_21makeCommandLineParserERNS0_10ConfigDataEEUlRKNSt7__cxx1112basic_stringIcSt11char_traitsIcESaIcEEEE8_EELN9__gnu_cxx12_Lock_policyE2EED2Ev
FN:1524,1524,_ZNSt12__shared_ptrIN5Catch5Clara6Detail11BoundLambdaIZNS0_21makeCommandLineParserERNS0_10ConfigDataEEUlbE0_EELN9__gnu_cxx12_Lock_policyE2EED2Ev
FN:1524,1524,_ZNSt12__shared_ptrIN5Catch5Clara6Detail11BoundLambdaIZNS0_21makeCommandLineParserERNS0_10ConfigDataEEUliE_EELN9__gnu_cxx12_Lock_policyE2EED2Ev
FN:1524,1524,_ZNSt12__shared_ptrIN5Catch5Clara6Detail12BoundFlagRefELN9__gnu_cxx12_Lock_policyE2EED2Ev
FN:1524,1524,_ZNSt12__shared_ptrIN5Catch5Clara6Detail13BoundValueRefINSt7__cxx1112basic_stringIcSt11char_traitsIcESaIcEEEEELN9__gnu_cxx12_Lock_policyE2EED2Ev
FN:1524,1524,_ZNSt12__shared_ptrIN5Catch5Clara6Detail13BoundValueRefISt6vectorINSt7__cxx1112basic_stringIcSt11char_traitsIcESaIcEEESaISA_EEEELN9__gnu_cxx12_Lock_policyE2EED2Ev
FN:1524,1524,_ZNSt12__shared_ptrIN5Catch5Clara6Detail13BoundValueRefIdEELN9__gnu_cxx12_Lock_policyE2EED2Ev
FN:1524,1524,_ZNSt12__shared_ptrIN5Catch5Clara6Detail13BoundValueRefIjEELN9__gnu_cxx12_Lock_policyE2EED2Ev
FN:1524,1524,_ZNSt12__shared_ptrIN5Catch5Clara6Detail13BoundValueRefIlEELN9__gnu_cxx12_Lock_policyE2EED2Ev
FN:1524,1524,_ZNSt12__shared_ptrIN5Catch5Clara6Detail15BoundFlagLambdaIZNS0_21makeCommandLineParserERNS0_10ConfigDataEEUlbE_EELN9__gnu_cxx12_Lock_policyE2EED2Ev
FN:1524,1524,_ZNSt12__shared_ptrIN5Catch5Clara6Detail15BoundFlagLambdaIZNS1_4HelpC4ERbEUlbE_EELN9__gnu_cxx12_Lock_policyE2EED2Ev
FN:1524,1524,_ZNSt12__shared_ptrIN5Catch5Clara6Detail15BoundManyLambdaIZNS0_21makeCommandLineParserERNS0_10ConfigDataEEUlRKNSt7__cxx1112basic_stringIcSt11char_traitsIcESaIcEEEE6_EELN9__gnu_cxx12_Lock_policyE2EED2Ev
FN:1524,1524,_ZNSt12__shared_ptrIN5Catch5Clara6Detail15BoundManyLambdaIZNS0_21makeCommandLineParserERNS0_10ConfigDataEEUlRKNSt7__cxx1112basic_stringIcSt11char_traitsIcESaIcEEEE_EELN9__gnu_cxx12_Lock_policyE2EED2Ev
FN:1524,1524,_ZNSt12__shared_ptrIN5Catch5Clara6Detail17BoundValueRefBaseELN9__gnu_cxx12_Lock_policyE2EED2Ev
FN:1524,1524,_ZNSt12__shared_ptrIN5Catch5Clara6Detail8BoundRefELN9__gnu_cxx12_Lock_policyE2EED2Ev
FN:1524,1524,_ZNSt12__shared_ptrINSt7__cxx1112basic_stringIcSt11char_traitsIcESaIcEEELN9__gnu_cxx12_Lock_policyE2EED2Ev
FN:1524,1524,_ZNSt12__shared_ptrINSt8__detail4_NFAINSt7__cxx1112regex_traitsIcEEEELN9__gnu_cxx12_Lock_policyE2EED2Ev
FN:1531,1536,_ZNSt12__shared_ptrIKNSt8__detail4_NFAINSt7__cxx1112regex_traitsIcEEEELN9__gnu_cxx12_Lock_policyE2EEC2EOS9_
FN:1531,1536,_ZNSt12__shared_ptrIN5Catch5Clara6Detail17BoundValueRefBaseELN9__gnu_cxx12_Lock_policyE2EEC2EOS6_
FN:1531,1536,_ZNSt12__shared_ptrIN5Catch5Clara6Detail8BoundRefELN9__gnu_cxx12_Lock_policyE2EEC2EOS6_
FN:1531,1536,_ZNSt12__shared_ptrINSt7__cxx1112basic_stringIcSt11char_traitsIcESaIcEEELN9__gnu_cxx12_Lock_policyE2EEC2EOS8_
FN:1539,1544,_ZNSt12__shared_ptrIKNSt8__detail4_NFAINSt7__cxx1112regex_traitsIcEEEELN9__gnu_cxx12_Lock_policyE2EEC2IS5_vEEOS_IT_LS8_2EE
FN:1539,1544,_ZNSt12__shared_ptrIN5Catch5Clara6Detail17BoundValueRefBaseELN9__gnu_cxx12_Lock_policyE2EEC2INS2_13BoundValueRefINSt7__cxx1112basic_stringIcSt11char_traitsIcESaIcEEEEEvEEOS_IT_LS5_2EE
FN:1539,1544,_ZNSt12__shared_ptrIN5Catch5Clara6Detail8BoundRefELN9__gnu_cxx12_Lock_policyE2EEC2INS2_11BoundLambdaIZNS0_21makeCommandLineParserERNS0_10ConfigDataEEUlRKNSt7__cxx1112basic_stringIcSt11char_traitsIcESaIcEEEE0_EEvEEOS_IT_LS5_2EE
FN:1539,1544,_ZNSt12__shared_ptrIN5Catch5Clara6Detail8BoundRefELN9__gnu_cxx12_Lock_policyE2EEC2INS2_11BoundLambdaIZNS0_21makeCommandLineParserERNS0_10ConfigDataEEUlRKNSt7__cxx1112basic_stringIcSt11char_traitsIcESaIcEEEE1_EEvEEOS_IT_LS5_2EE
FN:1539,1544,_ZNSt12__shared_ptrIN5Catch5Clara6Detail8BoundRefELN9__gnu_cxx12_Lock_policyE2EEC2INS2_11BoundLambdaIZNS0_21makeCommandLineParserERNS0_10ConfigDataEEUlRKNSt7__cxx1112basic_stringIcSt11char_traitsIcESaIcEEEE2_EEvEEOS_IT_LS5_2EE
FN:1539,1544,_ZNSt12__shared_ptrIN5Catch5Clara6Detail8BoundRefELN9__gnu_cxx12_Lock_policyE2EEC2INS2_11BoundLambdaIZNS0_21makeCommandLineParserERNS0_10ConfigDataEEUlRKNSt7__cxx1112basic_stringIcSt11char_traitsIcESaIcEEEE3_EEvEEOS_IT_LS5_2EE
FN:1539,1544,_ZNSt12__shared_ptrIN5Catch5Clara6Detail8BoundRefELN9__gnu_cxx12_Lock_policyE2EEC2INS2_11BoundLambdaIZNS0_21makeCommandLineParserERNS0_10ConfigDataEEUlRKNSt7__cxx1112basic_stringIcSt11char_traitsIcESaIcEEEE4_EEvEEOS_IT_LS5_2EE
FN:1539,1544,_ZNSt12__shared_ptrIN5Catch5Clara6Detail8BoundRefELN9__gnu_cxx12_Lock_policyE2EEC2INS2_11BoundLambdaIZNS0_21makeCommandLineParserERNS0_10ConfigDataEEUlRKNSt7__cxx1112basic_stringIcSt11char_traitsIcESaIcEEEE5_EEvEEOS_IT_LS5_2EE
FN:1539,1544,_ZNSt12__shared_ptrIN5Catch5Clara6Detail8BoundRefELN9__gnu_cxx12_Lock_policyE2EEC2INS2_11BoundLambdaIZNS0_21makeCommandLineParserERNS0_10ConfigDataEEUlRKNSt7__cxx1112basic_stringIcSt11char_traitsIcESaIcEEEE7_EEvEEOS_IT_LS5_2EE
FN:1539,1544,_ZNSt12__shared_ptrIN5Catch5Clara6Detail8BoundRefELN9__gnu_cxx12_Lock_policyE2EEC2INS2_11BoundLambdaIZNS0_21makeCommandLineParserERNS0_10ConfigDataEEUlRKNSt7__cxx1112basic_stringIcSt11char_traitsIcESaIcEEEE8_EEvEEOS_IT_LS5_2EE
FN:1539,1544,_ZNSt12__shared_ptrIN5Catch5Clara6Detail8BoundRefELN9__gnu_cxx12_Lock_policyE2EEC2INS2_11BoundLambdaIZNS0_21makeCommandLineParserERNS0_10ConfigDataEEUlbE0_EEvEEOS_IT_LS5_2EE
FN:1539,1544,_ZNSt12__shared_ptrIN5Catch5Clara6Detail8BoundRefELN9__gnu_cxx12_Lock_policyE2EEC2INS2_11BoundLambdaIZNS0_21makeCommandLineParserERNS0_10ConfigDataEEUliE_EEvEEOS_IT_LS5_2EE
FN:1539,1544,_ZNSt12__shared_ptrIN5Catch5Clara6Detail8BoundRefELN9__gnu_cxx12_Lock_policyE2EEC2INS2_12BoundFlagRefEvEEOS_IT_LS5_2EE
FN:1539,1544,_ZNSt12__shared_ptrIN5Catch5Clara6Detail8BoundRefELN9__gnu_cxx12_Lock_policyE2EEC2INS2_13BoundValueRefINSt7__cxx1112basic_stringIcSt11char_traitsIcESaIcEEEEEvEEOS_IT_LS5_2EE
FN:1539,1544,_ZNSt12__shared_ptrIN5Catch5Clara6Detail8BoundRefELN9__gnu_cxx12_Lock_policyE2EEC2INS2_13BoundValueRefISt6vectorINSt7__cxx1112basic_stringIcSt11char_traitsIcESaIcEEESaISF_EEEEvEEOS_IT_LS5_2EE
FN:1539,1544,_ZNSt12__shared_ptrIN5Catch5Clara6Detail8BoundRefELN9__gnu_cxx12_Lock_policyE2EEC2INS2_13BoundValueRefIdEEvEEOS_IT_LS5_2EE
FN:1539,1544,_ZNSt12__shared_ptrIN5Catch5Clara6Detail8BoundRefELN9__gnu_cxx12_Lock_policyE2EEC2INS2_13BoundValueRefIjEEvEEOS_IT_LS5_2EE
FN:1539,1544,_ZNSt12__shared_ptrIN5Catch5Clara6Detail8BoundRefELN9__gnu_cxx12_Lock_policyE2EEC2INS2_13BoundValueRefIlEEvEEOS_IT_LS5_2EE
FN:1539,1544,_ZNSt12__shared_ptrIN5Catch5Clara6Detail8BoundRefELN9__gnu_cxx12_Lock_policyE2EEC2INS2_15BoundFlagLambdaIZNS0_21makeCommandLineParserERNS0_10ConfigDataEEUlbE_EEvEEOS_IT_LS5_2EE
FN:1539,1544,_ZNSt12__shared_ptrIN5Catch5Clara6Detail8BoundRefELN9__gnu_cxx12_Lock_policyE2EEC2INS2_15BoundFlagLambdaIZNS1_4HelpC4ERbEUlbE_EEvEEOS_IT_LS5_2EE
FN:1539,1544,_ZNSt12__shared_ptrIN5Catch5Clara6Detail8BoundRefELN9__gnu_cxx12_Lock_policyE2EEC2INS2_15BoundManyLambdaIZNS0_21makeCommandLineParserERNS0_10ConfigDataEEUlRKNSt7__cxx1112basic_stringIcSt11char_traitsIcESaIcEEEE6_EEvEEOS_IT_LS5_2EE
FN:1539,1544,_ZNSt12__shared_ptrIN5Catch5Clara6Detail8BoundRefELN9__gnu_cxx12_Lock_policyE2EEC2INS2_15BoundManyLambdaIZNS0_21makeCommandLineParserERNS0_10ConfigDataEEUlRKNSt7__cxx1112basic_stringIcSt11char_traitsIcESaIcEEEE_EEvEEOS_IT_LS5_2EE
FN:1618,1622,_ZNSt12__shared_ptrIKNSt8__detail4_NFAINSt7__cxx1112regex_traitsIcEEEELN9__gnu_cxx12_Lock_policyE2EEaSEOS9_
FN:1618,1622,_ZNSt12__shared_ptrIN5Catch5Clara6Detail17BoundValueRefBaseELN9__gnu_cxx12_Lock_policyE2EEaSEOS6_
FN:1618,1622,_ZNSt12__shared_ptrIN5Catch5Clara6Detail8BoundRefELN9__gnu_cxx12_Lock_policyE2EEaSEOS6_
FN:1618,1622,_ZNSt12__shared_ptrINSt7__cxx1112basic_stringIcSt11char_traitsIcESaIcEEELN9__gnu_cxx12_Lock_policyE2EEaSEOS8_
FN:1626,1630,_ZNSt12__shared_ptrIN5Catch5Clara6Detail17BoundValueRefBaseELN9__gnu_cxx12_Lock_policyE2EEaSINS2_13BoundValueRefINSt7__cxx1112basic_stringIcSt11char_traitsIcESaIcEEEEEEENSt9enable_ifIXsrSt20__sp_compatible_withIPT_PS3_E5valueERS6_E4typeEOS_ISI_LS5_2EE
FN:1665,1666,_ZNKSt12__shared_ptrIKNSt8__detail4_NFAINSt7__cxx1112regex_traitsIcEEEELN9__gnu_cxx12_Lock_policyE2EE3getEv
FN:1665,1666,_ZNKSt12__shared_ptrIN5Catch5Clara6Detail17BoundValueRefBaseELN9__gnu_cxx12_Lock_policyE2EE3getEv
FN:1665,1666,_ZNKSt12__shared_ptrIN5Catch5Clara6Detail8BoundRefELN9__gnu_cxx12_Lock_policyE2EE3getEv
FN:1665,1666,_ZNKSt12__shared_ptrINSt7__cxx1112basic_stringIcSt11char_traitsIcESaIcEEELN9__gnu_cxx12_Lock_policyE2EE3getEv
FN:1665,1666,_ZNKSt12__shared_ptrINSt8__detail4_NFAINSt7__cxx1112regex_traitsIcEEEELN9__gnu_cxx12_Lock_policyE2EE3getEv
FN:1669,1670,_ZNKSt12__shared_ptrIKNSt8__detail4_NFAINSt7__cxx1112regex_traitsIcEEEELN9__gnu_cxx12_Lock_policyE2EEcvbEv
FN:1669,1670,_ZNKSt12__shared_ptrIN5Catch5Clara6Detail17BoundValueRefBaseELN9__gnu_cxx12_Lock_policyE2EEcvbEv
FN:1684,1688,_ZNSt12__shared_ptrIKNSt8__detail4_NFAINSt7__cxx1112regex_traitsIcEEEELN9__gnu_cxx12_Lock_policyE2EE4swapERS9_
FN:1684,1688,_ZNSt12__shared_ptrIN5Catch5Clara6Detail17BoundValueRefBaseELN9__gnu_cxx12_Lock_policyE2EE4swapERS6_
FN:1684,1688,_ZNSt12__shared_ptrIN5Catch5Clara6Detail8BoundRefELN9__gnu_cxx12_Lock_policyE2EE4swapERS6_
FN:1684,1688,_ZNSt12__shared_ptrINSt7__cxx1112basic_stringIcSt11char_traitsIcESaIcEEELN9__gnu_cxx12_Lock_policyE2EE4swapERS8_
FN:1711,1713,_ZNSt12__shared_ptrIN5Catch5Clara6Detail11BoundLambdaIZNS0_21makeCommandLineParserERNS0_10ConfigDataEEUlRKNSt7__cxx1112basic_stringIcSt11char_traitsIcESaIcEEEE0_EELN9__gnu_cxx12_Lock_policyE2EEC2ISaIvEJRKSE_EEESt20_Sp_alloc_shared_tagIT_EDpOT0_
FN:1711,1713,_ZNSt12__shared_ptrIN5Catch5Clara6Detail11BoundLambdaIZNS0_21makeCommandLineParserERNS0_10ConfigDataEEUlRKNSt7__cxx1112basic_stringIcSt11char_traitsIcESaIcEEEE1_EELN9__gnu_cxx12_Lock_policyE2EEC2ISaIvEJRKSE_EEESt20_Sp_alloc_shared_tagIT_EDpOT0_
FN:1711,1713,_ZNSt12__shared_ptrIN5Catch5Clara6Detail11BoundLambdaIZNS0_21makeCommandLineParserERNS0_10ConfigDataEEUlRKNSt7__cxx1112basic_stringIcSt11char_traitsIcESaIcEEEE2_EELN9__gnu_cxx12_Lock_policyE2EEC2ISaIvEJRKSE_EEESt20_Sp_alloc_shared_tagIT_EDpOT0_
FN:1711,1713,_ZNSt12__shared_ptrIN5Catch5Clara6Detail11BoundLambdaIZNS0_21makeCommandLineParserERNS0_10ConfigDataEEUlRKNSt7__cxx1112basic_stringIcSt11char_traitsIcESaIcEEEE3_EELN9__gnu_cxx12_Lock_policyE2EEC2ISaIvEJRKSE_EEESt20_Sp_alloc_shared_tagIT_EDpOT0_
FN:1711,1713,_ZNSt12__shared_ptrIN5Catch5Clara6Detail11BoundLambdaIZNS0_21makeCommandLineParserERNS0_10ConfigDataEEUlRKNSt7__cxx1112basic_stringIcSt11char_traitsIcESaIcEEEE4_EELN9__gnu_cxx12_Lock_policyE2EEC2ISaIvEJRKSE_EEESt20_Sp_alloc_shared_tagIT_EDpOT0_
FN:1711,1713,_ZNSt12__shared_ptrIN5Catch5Clara6Detail11BoundLambdaIZNS0_21makeCommandLineParserERNS0_10ConfigDataEEUlRKNSt7__cxx1112basic_stringIcSt11char_traitsIcESaIcEEEE5_EELN9__gnu_cxx12_Lock_policyE2EEC2ISaIvEJRKSE_EEESt20_Sp_alloc_shared_tagIT_EDpOT0_
FN:1711,1713,_ZNSt12__shared_ptrIN5Catch5Clara6Detail11BoundLambdaIZNS0_21makeCommandLineParserERNS0_10ConfigDataEEUlRKNSt7__cxx1112basic_stringIcSt11char_traitsIcESaIcEEEE7_EELN9__gnu_cxx12_Lock_policyE2EEC2ISaIvEJRKSE_EEESt20_Sp_alloc_shared_tagIT_EDpOT0_
FN:1711,1713,_ZNSt12__shared_ptrIN5Catch5Clara6Detail11BoundLambdaIZNS0_21makeCommandLineParserERNS0_10ConfigDataEEUlRKNSt7__cxx1112basic_stringIcSt11char_traitsIcESaIcEEEE8_EELN9__gnu_cxx12_Lock_policyE2EEC2ISaIvEJRKSE_EEESt20_Sp_alloc_shared_tagIT_EDpOT0_
FN:1711,1713,_ZNSt12__shared_ptrIN5Catch5Clara6Detail11BoundLambdaIZNS0_21makeCommandLineParserERNS0_10ConfigDataEEUlbE0_EELN9__gnu_cxx12_Lock_policyE2EEC2ISaIvEJRKS6_EEESt20_Sp_alloc_shared_tagIT_EDpOT0_
FN:1711,1713,_ZNSt12__shared_ptrIN5Catch5Clara6Detail11BoundLambdaIZNS0_21makeCommandLineParserERNS0_10ConfigDataEEUliE_EELN9__gnu_cxx12_Lock_policyE2EEC2ISaIvEJRKS6_EEESt20_Sp_alloc_shared_tagIT_EDpOT0_
FN:1711,1713,_ZNSt12__shared_ptrIN5Catch5Clara6Detail12BoundFlagRefELN9__gnu_cxx12_Lock_policyE2EEC2ISaIvEJRbEEESt20_Sp_alloc_shared_tagIT_EDpOT0_
FN:1711,1713,_ZNSt12__shared_ptrIN5Catch5Clara6Detail13BoundValueRefINSt7__cxx1112basic_stringIcSt11char_traitsIcESaIcEEEEELN9__gnu_cxx12_Lock_policyE2EEC2ISaIvEJRS9_EEESt20_Sp_alloc_shared_tagIT_EDpOT0_
FN:1711,1713,_ZNSt12__shared_ptrIN5Catch5Clara6Detail13BoundValueRefISt6vectorINSt7__cxx1112basic_stringIcSt11char_traitsIcESaIcEEESaISA_EEEELN9__gnu_cxx12_Lock_policyE2EEC2ISaIvEJRSC_EEESt20_Sp_alloc_shared_tagIT_EDpOT0_
FN:1711,1713,_ZNSt12__shared_ptrIN5Catch5Clara6Detail13BoundValueRefIdEELN9__gnu_cxx12_Lock_policyE2EEC2ISaIvEJRdEEESt20_Sp_alloc_shared_tagIT_EDpOT0_
FN:1711,1713,_ZNSt12__shared_ptrIN5Catch5Clara6Detail13BoundValueRefIjEELN9__gnu_cxx12_Lock_policyE2EEC2ISaIvEJRjEEESt20_Sp_alloc_shared_tagIT_EDpOT0_
FN:1711,1713,_ZNSt12__shared_ptrIN5Catch5Clara6Detail13BoundValueRefIlEELN9__gnu_cxx12_Lock_policyE2EEC2ISaIvEJRlEEESt20_Sp_alloc_shared_tagIT_EDpOT0_
FN:1711,1713,_ZNSt12__shared_ptrIN5Catch5Clara6Detail15BoundFlagLambdaIZNS0_21makeCommandLineParserERNS0_10ConfigDataEEUlbE_EELN9__gnu_cxx12_Lock_policyE2EEC2ISaIvEJRKS6_EEESt20_Sp_alloc_shared_tagIT_EDpOT0_
FN:1711,1713,_ZNSt12__shared_ptrIN5Catch5Clara6Detail15BoundFlagLambdaIZNS1_4HelpC4ERbEUlbE_EELN9__gnu_cxx12_Lock_policyE2EEC2ISaIvEJRKS6_EEESt20_Sp_alloc_shared_tagIT_EDpOT0_
FN:1711,1713,_ZNSt12__shared_ptrIN5Catch5Clara6Detail15BoundManyLambdaIZNS0_21makeCommandLineParserERNS0_10ConfigDataEEUlRKNSt7__cxx1112basic_stringIcSt11char_traitsIcESaIcEEEE6_EELN9__gnu_cxx12_Lock_policyE2EEC2ISaIvEJRKSE_EEESt20_Sp_alloc_shared_tagIT_EDpOT0_
FN:1711,1713,_ZNSt12__shared_ptrIN5Catch5Clara6Detail15BoundManyLambdaIZNS0_21makeCommandLineParserERNS0_10ConfigDataEEUlRKNSt7__cxx1112basic_stringIcSt11char_traitsIcESaIcEEEE_EELN9__gnu_cxx12_Lock_policyE2EEC2ISaIvEJRKSE_EEESt20_Sp_alloc_shared_tagIT_EDpOT0_
FN:1711,1713,_ZNSt12__shared_ptrINSt7__cxx1112basic_stringIcSt11char_traitsIcESaIcEEELN9__gnu_cxx12_Lock_policyE2EEC2ISaIvEJRA13_KcEEESt20_Sp_alloc_shared_tagIT_EDpOT0_
FN:1711,1713,_ZNSt12__shared_ptrINSt8__detail4_NFAINSt7__cxx1112regex_traitsIcEEEELN9__gnu_cxx12_Lock_policyE2EEC2ISaIvEJRKSt6localeRNSt15regex_constants18syntax_option_typeEEEESt20_Sp_alloc_shared_tagIT_EDpOT0_
FN:172,193,_ZNSt16_Sp_counted_baseILN9__gnu_cxx12_Lock_policyE2EE19_M_release_last_useEv
FN:1765,1766,_ZNSt12__shared_ptrIN5Catch5Clara6Detail11BoundLambdaIZNS0_21makeCommandLineParserERNS0_10ConfigDataEEUlRKNSt7__cxx1112basic_stringIcSt11char_traitsIcESaIcEEEE0_EELN9__gnu_cxx12_Lock_policyE2EE31_M_enable_shared_from_this_withISF_SF_EENSt9enable_ifIXntsrNSI_15__has_esft_baseIT0_vEE5valueEvE4typeEPT_
FN:1765,1766,_ZNSt12__shared_ptrIN5Catch5Clara6Detail11BoundLambdaIZNS0_21makeCommandLineParserERNS0_10ConfigDataEEUlRKNSt7__cxx1112basic_stringIcSt11char_traitsIcESaIcEEEE1_EELN9__gnu_cxx12_Lock_policyE2EE31_M_enable_shared_from_this_withISF_SF_EENSt9enable_ifIXntsrNSI_15__has_esft_baseIT0_vEE5valueEvE4typeEPT_
FN:1765,1766,_ZNSt12__shared_ptrIN5Catch5Clara6Detail11BoundLambdaIZNS0_21makeCommandLineParserERNS0_10ConfigDataEEUlRKNSt7__cxx1112basic_stringIcSt11char_traitsIcESaIcEEEE2_EELN9__gnu_cxx12_Lock_policyE2EE31_M_enable_shared_from_this_withISF_SF_EENSt9enable_ifIXntsrNSI_15__has_esft_baseIT0_vEE5valueEvE4typeEPT_
FN:1765,1766,_ZNSt12__shared_ptrIN5Catch5Clara6Detail11BoundLambdaIZNS0_21makeCommandLineParserERNS0_10ConfigDataEEUlRKNSt7__cxx1112basic_stringIcSt11char_traitsIcESaIcEEEE3_EELN9__gnu_cxx12_Lock_policyE2EE31_M_enable_shared_from_this_withISF_SF_EENSt9enable_ifIXntsrNSI_15__has_esft_baseIT0_vEE5valueEvE4typeEPT_
FN:1765,1766,_ZNSt12__shared_ptrIN5Catch5Clara6Detail11BoundLambdaIZNS0_21makeCommandLineParserERNS0_10ConfigDataEEUlRKNSt7__cxx1112basic_stringIcSt11char_traitsIcESaIcEEEE4_EELN9__gnu_cxx12_Lock_policyE2EE31_M_enable_shared_from_this_withISF_SF_EENSt9enable_ifIXntsrNSI_15__has_esft_baseIT0_vEE5valueEvE4typeEPT_
FN:1765,1766,_ZNSt12__shared_ptrIN5Catch5Clara6Detail11BoundLambdaIZNS0_21makeCommandLineParserERNS0_10ConfigDataEEUlRKNSt7__cxx1112basic_stringIcSt11char_traitsIcESaIcEEEE5_EELN9__gnu_cxx12_Lock_policyE2EE31_M_enable_shared_from_this_withISF_SF_EENSt9enable_ifIXntsrNSI_15__has_esft_baseIT0_vEE5valueEvE4typeEPT_
FN:1765,1766,_ZNSt12__shared_ptrIN5Catch5Clara6Detail11BoundLambdaIZNS0_21makeCommandLineParserERNS0_10ConfigDataEEUlRKNSt7__cxx1112basic_stringIcSt11char_traitsIcESaIcEEEE7_EELN9__gnu_cxx12_Lock_policyE2EE31_M_enable_shared_from_this_withISF_SF_EENSt9enable_ifIXntsrNSI_15__has_esft_baseIT0_vEE5valueEvE4typeEPT_
FN:1765,1766,_ZNSt12__shared_ptrIN5Catch5Clara6Detail11BoundLambdaIZNS0_21makeCommandLineParserERNS0_10ConfigDataEEUlRKNSt7__cxx1112basic_stringIcSt11char_traitsIcESaIcEEEE8_EELN9__gnu_cxx12_Lock_policyE2EE31_M_enable_shared_from_this_withISF_SF_EENSt9enable_ifIXntsrNSI_15__has_esft_baseIT0_vEE5valueEvE4typeEPT_
FN:1765,1766,_ZNSt12__shared_ptrIN5Catch5Clara6Detail11BoundLambdaIZNS0_21makeCommandLineParserERNS0_10ConfigDataEEUlbE0_EELN9__gnu_cxx12_Lock_policyE2EE31_M_enable_shared_from_this_withIS7_S7_EENSt9enable_ifIXntsrNSA_15__has_esft_baseIT0_vEE5valueEvE4typeEPT_
FN:1765,1766,_ZNSt12__shared_ptrIN5Catch5Clara6Detail11BoundLambdaIZNS0_21makeCommandLineParserERNS0_10ConfigDataEEUliE_EELN9__gnu_cxx12_Lock_policyE2EE31_M_enable_shared_from_this_withIS7_S7_EENSt9enable_ifIXntsrNSA_15__has_esft_baseIT0_vEE5valueEvE4typeEPT_
FN:1765,1766,_ZNSt12__shared_ptrIN5Catch5Clara6Detail12BoundFlagRefELN9__gnu_cxx12_Lock_policyE2EE31_M_enable_shared_from_this_withIS3_S3_EENSt9enable_ifIXntsrNS6_15__has_esft_baseIT0_vEE5valueEvE4typeEPT_
FN:1765,1766,_ZNSt12__shared_ptrIN5Catch5Clara6Detail13BoundValueRefINSt7__cxx1112basic_stringIcSt11char_traitsIcESaIcEEEEELN9__gnu_cxx12_Lock_policyE2EE31_M_enable_shared_from_this_withISA_SA_EENSt9enable_ifIXntsrNSD_15__has_esft_baseIT0_vEE5valueEvE4typeEPT_
FN:1765,1766,_ZNSt12__shared_ptrIN5Catch5Clara6Detail13BoundValueRefISt6vectorINSt7__cxx1112basic_stringIcSt11char_traitsIcESaIcEEESaISA_EEEELN9__gnu_cxx12_Lock_policyE2EE31_M_enable_shared_from_this_withISD_SD_EENSt9enable_ifIXntsrNSG_15__has_esft_baseIT0_vEE5valueEvE4typeEPT_
FN:1765,1766,_ZNSt12__shared_ptrIN5Catch5Clara6Detail13BoundValueRefIdEELN9__gnu_cxx12_Lock_policyE2EE31_M_enable_shared_from_this_withIS4_S4_EENSt9enable_ifIXntsrNS7_15__has_esft_baseIT0_vEE5valueEvE4typeEPT_
FN:1765,1766,_ZNSt12__shared_ptrIN5Catch5Clara6Detail13BoundValueRefIjEELN9__gnu_cxx12_Lock_policyE2EE31_M_enable_shared_from_this_withIS4_S4_EENSt9enable_ifIXntsrNS7_15__has_esft_baseIT0_vEE5valueEvE4typeEPT_
FN:1765,1766,_ZNSt12__shared_ptrIN5Catch5Clara6Detail13BoundValueRefIlEELN9__gnu_cxx12_Lock_policyE2EE31_M_enable_shared_from_this_withIS4_S4_EENSt9enable_ifIXntsrNS7_15__has_esft_baseIT0_vEE5valueEvE4typeEPT_
FN:1765,1766,_ZNSt12__shared_ptrIN5Catch5Clara6Detail15BoundFlagLambdaIZNS0_21makeCommandLineParserERNS0_10ConfigDataEEUlbE_EELN9__gnu_cxx12_Lock_policyE2EE31_M_enable_shared_from_this_withIS7_S7_EENSt9enable_ifIXntsrNSA_15__has_esft_baseIT0_vEE5valueEvE4typeEPT_
FN:1765,1766,_ZNSt12__shared_ptrIN5Catch5Clara6Detail15BoundFlagLambdaIZNS1_4HelpC4ERbEUlbE_EELN9__gnu_cxx12_Lock_policyE2EE31_M_enable_shared_from_this_withIS7_S7_EENSt9enable_ifIXntsrNSA_15__has_esft_baseIT0_vEE5valueEvE4typeEPT_
FN:1765,1766,_ZNSt12__shared_ptrIN5Catch5Clara6Detail15BoundManyLambdaIZNS0_21makeCommandLineParserERNS0_10ConfigDataEEUlRKNSt7__cxx1112basic_stringIcSt11char_traitsIcESaIcEEEE6_EELN9__gnu_cxx12_Lock_policyE2EE31_M_enable_shared_from_this_withISF_SF_EENSt9enable_ifIXntsrNSI_15__has_esft_baseIT0_vEE5valueEvE4typeEPT_
FN:1765,1766,_ZNSt12__shared_ptrIN5Catch5Clara6Detail15BoundManyLambdaIZNS0_21makeCommandLineParserERNS0_10ConfigDataEEUlRKNSt7__cxx1112basic_stringIcSt11char_traitsIcESaIcEEEE_EELN9__gnu_cxx12_Lock_policyE2EE31_M_enable_shared_from_this_withISF_SF_EENSt9enable_ifIXntsrNSI_15__has_esft_baseIT0_vEE5valueEvE4typeEPT_
FN:1765,1766,_ZNSt12__shared_ptrINSt7__cxx1112basic_stringIcSt11char_traitsIcESaIcEEELN9__gnu_cxx12_Lock_policyE2EE31_M_enable_shared_from_this_withIS5_S5_EENSt9enable_ifIXntsrNS8_15__has_esft_baseIT0_vEE5valueEvE4typeEPT_
FN:1765,1766,_ZNSt12__shared_ptrINSt8__detail4_NFAINSt7__cxx1112regex_traitsIcEEEELN9__gnu_cxx12_Lock_policyE2EE31_M_enable_shared_from_this_withIS5_S5_EENSt9enable_ifIXntsrNS8_15__has_esft_baseIT0_vEE5valueEvE4typeEPT_
FN:198,199,_ZNSt16_Sp_counted_baseILN9__gnu_cxx12_Lock_policyE2EE24_M_release_last_use_coldEv
FN:317,363,_ZNSt16_Sp_counted_baseILN9__gnu_cxx12_Lock_policyE2EE10_M_releaseEv
FN:470,470,_ZNSt14_Sp_ebo_helperILi0ESaIvELb1EEC2ERKS0_
FN:474,474,_ZNSt14_Sp_ebo_helperILi0ESaIvELb1EE6_S_getERS1_
FN:564,568,_ZNSt19_Sp_make_shared_tag5_S_tiEv
FN:587,587,_ZNSt23_Sp_counted_ptr_inplaceIN5Catch5Clara6Detail11BoundLambdaIZNS0_21makeCommandLineParserERNS0_10ConfigDataEEUlRKNSt7__cxx1112basic_stringIcSt11char_traitsIcESaIcEEEE0_EESaIvELN9__gnu_cxx12_Lock_policyE2EE5_ImplC2ESG_
FN:587,587,_ZNSt23_Sp_counted_ptr_inplaceIN5Catch5Clara6Detail11BoundLambdaIZNS0_21makeCommandLineParserERNS0_10ConfigDataEEUlRKNSt7__cxx1112basic_stringIcSt11char_traitsIcESaIcEEEE1_EESaIvELN9__gnu_cxx12_Lock_policyE2EE5_ImplC2ESG_
FN:587,587,_ZNSt23_Sp_counted_ptr_inplaceIN5Catch5Clara6Detail11BoundLambdaIZNS0_21makeCommandLineParserERNS0_10ConfigDataEEUlRKNSt7__cxx1112basic_stringIcSt11char_traitsIcESaIcEEEE2_EESaIvELN9__gnu_cxx12_Lock_policyE2EE5_ImplC2ESG_
FN:587,587,_ZNSt23_Sp_counted_ptr_inplaceIN5Catch5Clara6Detail11BoundLambdaIZNS0_21makeCommandLineParserERNS0_10ConfigDataEEUlRKNSt7__cxx1112basic_stringIcSt11char_traitsIcESaIcEEEE3_EESaIvELN9__gnu_cxx12_Lock_policyE2EE5_ImplC2ESG_
FN:587,587,_ZNSt23_Sp_counted_ptr_inplaceIN5Catch5Clara6Detail11BoundLambdaIZNS0_21makeCommandLineParserERNS0_10ConfigDataEEUlRKNSt7__cxx1112basic_stringIcSt11char_traitsIcESaIcEEEE4_EESaIvELN9__gnu_cxx12_Lock_policyE2EE5_ImplC2ESG_
FN:587,587,_ZNSt23_Sp_counted_ptr_inplaceIN5Catch5Clara6Detail11BoundLambdaIZNS0_21makeCommandLineParserERNS0_10ConfigDataEEUlRKNSt7__cxx1112basic_stringIcSt11char_traitsIcESaIcEEEE5_EESaIvELN9__gnu_cxx12_Lock_policyE2EE5_ImplC2ESG_
FN:587,587,_ZNSt23_Sp_counted_ptr_inplaceIN5Catch5Clara6Detail11BoundLambdaIZNS0_21makeCommandLineParserERNS0_10ConfigDataEEUlRKNSt7__cxx1112basic_stringIcSt11char_traitsIcESaIcEEEE7_EESaIvELN9__gnu_cxx12_Lock_policyE2EE5_ImplC2ESG_
FN:587,587,_ZNSt23_Sp_counted_ptr_inplaceIN5Catch5Clara6Detail11BoundLambdaIZNS0_21makeCommandLineParserERNS0_10ConfigDataEEUlRKNSt7__cxx1112basic_stringIcSt11char_traitsIcESaIcEEEE8_EESaIvELN9__gnu_cxx12_Lock_policyE2EE5_ImplC2ESG_
FN:587,587,_ZNSt23_Sp_counted_ptr_inplaceIN5Catch5Clara6Detail11BoundLambdaIZNS0_21makeCommandLineParserERNS0_10ConfigDataEEUlbE0_EESaIvELN9__gnu_cxx12_Lock_policyE2EE5_ImplC2ES8_
FN:587,587,_ZNSt23_Sp_counted_ptr_inplaceIN5Catch5Clara6Detail11BoundLambdaIZNS0_21makeCommandLineParserERNS0_10ConfigDataEEUliE_EESaIvELN9__gnu_cxx12_Lock_policyE2EE5_ImplC2ES8_
FN:587,587,_ZNSt23_Sp_counted_ptr_inplaceIN5Catch5Clara6Detail12BoundFlagRefESaIvELN9__gnu_cxx12_Lock_policyE2EE5_ImplC2ES4_
FN:587,587,_ZNSt23_Sp_counted_ptr_inplaceIN5Catch5Clara6Detail13BoundValueRefINSt7__cxx1112basic_stringIcSt11char_traitsIcESaIcEEEEESaIvELN9__gnu_cxx12_Lock_policyE2EE5_ImplC2ESB_
FN:587,587,_ZNSt23_Sp_counted_ptr_inplaceIN5Catch5Clara6Detail13BoundValueRefISt6vectorINSt7__cxx1112basic_stringIcSt11char_traitsIcESaIcEEESaISA_EEEESaIvELN9__gnu_cxx12_Lock_policyE2EE5_ImplC2ESE_
FN:587,587,_ZNSt23_Sp_counted_ptr_inplaceIN5Catch5Clara6Detail13BoundValueRefIdEESaIvELN9__gnu_cxx12_Lock_policyE2EE5_ImplC2ES5_
FN:587,587,_ZNSt23_Sp_counted_ptr_inplaceIN5Catch5Clara6Detail13BoundValueRefIjEESaIvELN9__gnu_cxx12_Lock_policyE2EE5_ImplC2ES5_
FN:587,587,_ZNSt23_Sp_counted_ptr_inplaceIN5Catch5Clara6Detail13BoundValueRefIlEESaIvELN9__gnu_cxx12_Lock_policyE2EE5_ImplC2ES5_
FN:587,587,_ZNSt23_Sp_counted_ptr_inplaceIN5Catch5Clara6Detail15BoundFlagLambdaIZNS0_21makeCommandLineParserERNS0_10ConfigDataEEUlbE_EESaIvELN9__gnu_cxx12_Lock_policyE2EE5_ImplC2ES8_
FN:587,587,_ZNSt23_Sp_counted_ptr_inplaceIN5Catch5Clara6Detail15BoundFlagLambdaIZNS1_4HelpC4ERbEUlbE_EESaIvELN9__gnu_cxx12_Lock_policyE2EE5_ImplC2ES8_
FN:587,587,_ZNSt23_Sp_counted_ptr_inplaceIN5Catch5Clara6Detail15BoundManyLambdaIZNS0_21makeCommandLineParserERNS0_10ConfigDataEEUlRKNSt7__cxx1112basic_stringIcSt11char_traitsIcESaIcEEEE6_EESaIvELN9__gnu_cxx12_Lock_policyE2EE5_ImplC2ESG_
FN:587,587,_ZNSt23_Sp_counted_ptr_inplaceIN5Catch5Clara6Detail15BoundManyLambdaIZNS0_21makeCommandLineParserERNS0_10ConfigDataEEUlRKNSt7__cxx1112basic_stringIcSt11char_traitsIcESaIcEEEE_EESaIvELN9__gnu_cxx12_Lock_policyE2EE5_ImplC2ESG_
FN:587,587,_ZNSt23_Sp_counted_ptr_inplaceINSt7__cxx1112basic_stringIcSt11char_traitsIcESaIcEEESaIvELN9__gnu_cxx12_Lock_policyE2EE5_ImplC2ES6_
FN:587,587,_ZNSt23_Sp_counted_ptr_inplaceINSt8__detail4_NFAINSt7__cxx1112regex_traitsIcEEEESaIvELN9__gnu_cxx12_Lock_policyE2EE5_ImplC2ES6_
FN:589,589,_ZNSt23_Sp_counted_ptr_inplaceIN5Catch5Clara6Detail11BoundLambdaIZNS0_21makeCommandLineParserERNS0_10ConfigDataEEUlRKNSt7__cxx1112basic_stringIcSt11char_traitsIcESaIcEEEE0_EESaIvELN9__gnu_cxx12_Lock_policyE2EE5_Impl8_M_allocEv
FN:589,589,_ZNSt23_Sp_counted_ptr_inplaceIN5Catch5Clara6Detail11BoundLambdaIZNS0_21makeCommandLineParserERNS0_10ConfigDataEEUlRKNSt7__cxx1112basic_stringIcSt11char_traitsIcESaIcEEEE1_EESaIvELN9__gnu_cxx12_Lock_policyE2EE5_Impl8_M_allocEv
FN:589,589,_ZNSt23_Sp_counted_ptr_inplaceIN5Catch5Clara6Detail11BoundLambdaIZNS0_21makeCommandLineParserERNS0_10ConfigDataEEUlRKNSt7__cxx1112basic_stringIcSt11char_traitsIcESaIcEEEE2_EESaIvELN9__gnu_cxx12_Lock_policyE2EE5_Impl8_M_allocEv
FN:589,589,_ZNSt23_Sp_counted_ptr_inplaceIN5Catch5Clara6Detail11BoundLambdaIZNS0_21makeCommandLineParserERNS0_10ConfigDataEEUlRKNSt7__cxx1112basic_stringIcSt11char_traitsIcESaIcEEEE3_EESaIvELN9__gnu_cxx12_Lock_policyE2EE5_Impl8_M_allocEv
FN:589,589,_ZNSt23_Sp_counted_ptr_inplaceIN5Catch5Clara6Detail11BoundLambdaIZNS0_21makeCommandLineParserERNS0_10ConfigDataEEUlRKNSt7__cxx1112basic_stringIcSt11char_traitsIcESaIcEEEE4_EESaIvELN9__gnu_cxx12_Lock_policyE2EE5_Impl8_M_allocEv
FN:589,589,_ZNSt23_Sp_counted_ptr_inplaceIN5Catch5Clara6Detail11BoundLambdaIZNS0_21makeCommandLineParserERNS0_10ConfigDataEEUlRKNSt7__cxx1112basic_stringIcSt11char_traitsIcESaIcEEEE5_EESaIvELN9__gnu_cxx12_Lock_policyE2EE5_Impl8_M_allocEv
FN:589,589,_ZNSt23_Sp_counted_ptr_inplaceIN5Catch5Clara6Detail11BoundLambdaIZNS0_21makeCommandLineParserERNS0_10ConfigDataEEUlRKNSt7__cxx1112basic_stringIcSt11char_traitsIcESaIcEEEE7_EESaIvELN9__gnu_cxx12_Lock_policyE2EE5_Impl8_M_allocEv
FN:589,589,_ZNSt23_Sp_counted_ptr_inplaceIN5Catch5Clara6Detail11BoundLambdaIZNS0_21makeCommandLineParserERNS0_10ConfigDataEEUlRKNSt7__cxx1112basic_stringIcSt11char_traitsIcESaIcEEEE8_EESaIvELN9__gnu_cxx12_Lock_policyE2EE5_Impl8_M_allocEv
FN:589,589,_ZNSt23_Sp_counted_ptr_inplaceIN5Catch5Clara6Detail11BoundLambdaIZNS0_21makeCommandLineParserERNS0_10ConfigDataEEUlbE0_EESaIvELN9__gnu_cxx12_Lock_policyE2EE5_Impl8_M_allocEv
FN:589,589,_ZNSt23_Sp_counted_ptr_inplaceIN5Catch5Clara6Detail11BoundLambdaIZNS0_21makeCommandLineParserERNS0_10ConfigDataEEUliE_EESaIvELN9__gnu_cxx12_Lock_policyE2EE5_Impl8_M_allocEv
FN:589,589,_ZNSt23_Sp_counted_ptr_inplaceIN5Catch5Clara6Detail12BoundFlagRefESaIvELN9__gnu_cxx12_Lock_policyE2EE5_Impl8_M_allocEv
FN:589,589,_ZNSt23_Sp_counted_ptr_inplaceIN5Catch5Clara6Detail13BoundValueRefINSt7__cxx1112basic_stringIcSt11char_traitsIcESaIcEEEEESaIvELN9__gnu_cxx12_Lock_policyE2EE5_Impl8_M_allocEv
FN:589,589,_ZNSt23_Sp_counted_ptr_inplaceIN5Catch5Clara6Detail13BoundValueRefISt6vectorINSt7__cxx1112basic_stringIcSt11char_traitsIcESaIcEEESaISA_EEEESaIvELN9__gnu_cxx12_Lock_policyE2EE5_Impl8_M_allocEv
FN:589,589,_ZNSt23_Sp_counted_ptr_inplaceIN5Catch5Clara6Detail13BoundValueRefIdEESaIvELN9__gnu_cxx12_Lock_policyE2EE5_Impl8_M_allocEv
FN:589,589,_ZNSt23_Sp_counted_ptr_inplaceIN5Catch5Clara6Detail13BoundValueRefIjEESaIvELN9__gnu_cxx12_Lock_policyE2EE5_Impl8_M_allocEv
FN:589,589,_ZNSt23_Sp_counted_ptr_inplaceIN5Catch5Clara6Detail13BoundValueRefIlEESaIvELN9__gnu_cxx12_Lock_policyE2EE5_Impl8_M_allocEv
FN:589,589,_ZNSt23_Sp_counted_ptr_inplaceIN5Catch5Clara6Detail15BoundFlagLambdaIZNS0_21makeCommandLineParserERNS0_10ConfigDataEEUlbE_EESaIvELN9__gnu_cxx12_Lock_policyE2EE5_Impl8_M_allocEv
FN:589,589,_ZNSt23_Sp_counted_ptr_inplaceIN5Catch5Clara6Detail15BoundFlagLambdaIZNS1_4HelpC4ERbEUlbE_EESaIvELN9__gnu_cxx12_Lock_policyE2EE5_Impl8_M_allocEv
FN:589,589,_ZNSt23_Sp_counted_ptr_inplaceIN5Catch5Clara6Detail15BoundManyLambdaIZNS0_21makeCommandLineParserERNS0_10ConfigDataEEUlRKNSt7__cxx1112basic_stringIcSt11char_traitsIcESaIcEEEE6_EESaIvELN9__gnu_cxx12_Lock_policyE2EE5_Impl8_M_allocEv
FN:589,589,_ZNSt23_Sp_counted_ptr_inplaceIN5Catch5Clara6Detail15BoundManyLambdaIZNS0_21makeCommandLineParserERNS0_10ConfigDataEEUlRKNSt7__cxx1112basic_stringIcSt11char_traitsIcESaIcEEEE_EESaIvELN9__gnu_cxx12_Lock_policyE2EE5_Impl8_M_allocEv
FN:589,589,_ZNSt23_Sp_counted_ptr_inplaceINSt7__cxx1112basic_stringIcSt11char_traitsIcESaIcEEESaIvELN9__gnu_cxx12_Lock_policyE2EE5_Impl8_M_allocEv
FN:589,589,_ZNSt23_Sp_counted_ptr_inplaceINSt8__detail4_NFAINSt7__cxx1112regex_traitsIcEEEESaIvELN9__gnu_cxx12_Lock_policyE2EE5_Impl8_M_allocEv
FN:599,606,_ZNSt23_Sp_counted_ptr_inplaceIN5Catch5Clara6Detail11BoundLambdaIZNS0_21makeCommandLineParserERNS0_10ConfigDataEEUlRKNSt7__cxx1112basic_stringIcSt11char_traitsIcESaIcEEEE0_EESaIvELN9__gnu_cxx12_Lock_policyE2EEC2IJRKSE_EEESG_DpOT_
FN:599,606,_ZNSt23_Sp_counted_ptr_inplaceIN5Catch5Clara6Detail11BoundLambdaIZNS0_21makeCommandLineParserERNS0_10ConfigDataEEUlRKNSt7__cxx1112basic_stringIcSt11char_traitsIcESaIcEEEE1_EESaIvELN9__gnu_cxx12_Lock_policyE2EEC2IJRKSE_EEESG_DpOT_
FN:599,606,_ZNSt23_Sp_counted_ptr_inplaceIN5Catch5Clara6Detail11BoundLambdaIZNS0_21makeCommandLineParserERNS0_10ConfigDataEEUlRKNSt7__cxx1112basic_stringIcSt11char_traitsIcESaIcEEEE2_EESaIvELN9__gnu_cxx12_Lock_policyE2EEC2IJRKSE_EEESG_DpOT_
FN:599,606,_ZNSt23_Sp_counted_ptr_inplaceIN5Catch5Clara6Detail11BoundLambdaIZNS0_21makeCommandLineParserERNS0_10ConfigDataEEUlRKNSt7__cxx1112basic_stringIcSt11char_traitsIcESaIcEEEE3_EESaIvELN9__gnu_cxx12_Lock_policyE2EEC2IJRKSE_EEESG_DpOT_
FN:599,606,_ZNSt23_Sp_counted_ptr_inplaceIN5Catch5Clara6Detail11BoundLambdaIZNS0_21makeCommandLineParserERNS0_10ConfigDataEEUlRKNSt7__cxx1112basic_stringIcSt11char_traitsIcESaIcEEEE4_EESaIvELN9__gnu_cxx12_Lock_policyE2EEC2IJRKSE_EEESG_DpOT_
